
main/out/main.elf:     file format elf32-littlearm
main/out/main.elf
architecture: armv7e-m, flags 0x00000112:
EXEC_P, HAS_SYMS, D_PAGED
start address 0x1a00354d

Program Header:
0x70000001 off    0x00017fe0 vaddr 0x1a007fe0 paddr 0x1a007fe0 align 2**2
         filesz 0x00000008 memsz 0x00000008 flags r--
    LOAD off    0x00000000 vaddr 0x10000000 paddr 0x10000000 align 2**16
         filesz 0x000000b4 memsz 0x0000032c flags rw-
    LOAD off    0x00010000 vaddr 0x1a000000 paddr 0x1a000000 align 2**16
         filesz 0x00007fe8 memsz 0x00007fe8 flags r-x
    LOAD off    0x00020000 vaddr 0x10000000 paddr 0x1a007fe8 align 2**16
         filesz 0x000002bc memsz 0x000002bc flags rw-
private flags = 5000400: [Version5 EABI] [hard-float ABI]

Sections:
Idx Name          Size      VMA       LMA       File off  Algn
  0 .text         00007fe0  1a000000  1a000000  00010000  2**4
                  CONTENTS, ALLOC, LOAD, READONLY, CODE
  1 .data         000002bc  10000000  1a007fe8  00020000  2**2
                  CONTENTS, ALLOC, LOAD, DATA
  2 .data_RAM2    00000000  10080000  10080000  000202bc  2**2
                  CONTENTS
  3 .data_RAM3    00000000  20000000  20000000  000202bc  2**2
                  CONTENTS
  4 .data_RAM4    00000000  20008000  20008000  000202bc  2**2
                  CONTENTS
  5 .data_RAM5    00000000  2000c000  2000c000  000202bc  2**2
                  CONTENTS
  6 .bss          0000006c  100002c0  100002c0  000002c0  2**3
                  ALLOC
  7 .bss_RAM2     00000000  10080000  10080000  000202bc  2**2
                  CONTENTS
  8 .bss_RAM3     00000000  20000000  20000000  000202bc  2**2
                  CONTENTS
  9 .bss_RAM4     00000000  20008000  20008000  000202bc  2**2
                  CONTENTS
 10 .bss_RAM5     00000000  2000c000  2000c000  000202bc  2**2
                  CONTENTS
 11 .ARM.exidx    00000008  1a007fe0  1a007fe0  00017fe0  2**2
                  CONTENTS, ALLOC, LOAD, READONLY, DATA
 12 .uninit_RESERVED 00000000  10000000  10000000  000202bc  2**2
                  CONTENTS
 13 .noinit_RAM2  00000000  10080000  10080000  000202bc  2**2
                  CONTENTS
 14 .noinit_RAM3  00000000  20000000  20000000  000202bc  2**2
                  CONTENTS
 15 .noinit_RAM4  00000000  20008000  20008000  000202bc  2**2
                  CONTENTS
 16 .noinit_RAM5  00000000  2000c000  2000c000  000202bc  2**2
                  CONTENTS
 17 .noinit       00000000  1000032c  1000032c  000202bc  2**2
                  CONTENTS
 18 .debug_info   0003937f  00000000  00000000  000202bc  2**0
                  CONTENTS, READONLY, DEBUGGING
 19 .debug_abbrev 00007195  00000000  00000000  0005963b  2**0
                  CONTENTS, READONLY, DEBUGGING
 20 .debug_loc    0000e576  00000000  00000000  000607d0  2**0
                  CONTENTS, READONLY, DEBUGGING
 21 .debug_aranges 00001060  00000000  00000000  0006ed46  2**0
                  CONTENTS, READONLY, DEBUGGING
 22 .debug_ranges 00001168  00000000  00000000  0006fda6  2**0
                  CONTENTS, READONLY, DEBUGGING
 23 .debug_macro  00010a55  00000000  00000000  00070f0e  2**0
                  CONTENTS, READONLY, DEBUGGING
 24 .debug_line   0001d174  00000000  00000000  00081963  2**0
                  CONTENTS, READONLY, DEBUGGING
 25 .debug_str    00028403  00000000  00000000  0009ead7  2**0
                  CONTENTS, READONLY, DEBUGGING
 26 .comment      00000068  00000000  00000000  000c6eda  2**0
                  CONTENTS, READONLY
 27 .ARM.attributes 00000032  00000000  00000000  000c6f42  2**0
                  CONTENTS, READONLY
 28 .debug_frame  00003ea4  00000000  00000000  000c6f74  2**2
                  CONTENTS, READONLY, DEBUGGING
SYMBOL TABLE:
1a000000 l    d  .text	00000000 .text
10000000 l    d  .data	00000000 .data
10080000 l    d  .data_RAM2	00000000 .data_RAM2
20000000 l    d  .data_RAM3	00000000 .data_RAM3
20008000 l    d  .data_RAM4	00000000 .data_RAM4
2000c000 l    d  .data_RAM5	00000000 .data_RAM5
100002c0 l    d  .bss	00000000 .bss
10080000 l    d  .bss_RAM2	00000000 .bss_RAM2
20000000 l    d  .bss_RAM3	00000000 .bss_RAM3
20008000 l    d  .bss_RAM4	00000000 .bss_RAM4
2000c000 l    d  .bss_RAM5	00000000 .bss_RAM5
1a007fe0 l    d  .ARM.exidx	00000000 .ARM.exidx
10000000 l    d  .uninit_RESERVED	00000000 .uninit_RESERVED
10080000 l    d  .noinit_RAM2	00000000 .noinit_RAM2
20000000 l    d  .noinit_RAM3	00000000 .noinit_RAM3
20008000 l    d  .noinit_RAM4	00000000 .noinit_RAM4
2000c000 l    d  .noinit_RAM5	00000000 .noinit_RAM5
1000032c l    d  .noinit	00000000 .noinit
00000000 l    d  .debug_info	00000000 .debug_info
00000000 l    d  .debug_abbrev	00000000 .debug_abbrev
00000000 l    d  .debug_loc	00000000 .debug_loc
00000000 l    d  .debug_aranges	00000000 .debug_aranges
00000000 l    d  .debug_ranges	00000000 .debug_ranges
00000000 l    d  .debug_macro	00000000 .debug_macro
00000000 l    d  .debug_line	00000000 .debug_line
00000000 l    d  .debug_str	00000000 .debug_str
00000000 l    d  .comment	00000000 .comment
00000000 l    d  .ARM.attributes	00000000 .ARM.attributes
00000000 l    d  .debug_frame	00000000 .debug_frame
00000000 l    df *ABS*	00000000 cr_startup_lpc43xx.c
00000000 l    df *ABS*	00000000 crp.c
00000000 l    df *ABS*	00000000 luces.c
00000000 l    df *ABS*	00000000 wifi.c
100002cc l     O .bss	00000004 json
00000000 l    df *ABS*	00000000 puertos.c
00000000 l    df *ABS*	00000000 cJSON.c
1a00067c l     F .text	00000058 case_insensitive_strcmp
1a0006d4 l     F .text	00000004 get_decimal_point
1a0006d8 l     F .text	00000060 compare_double
1a000738 l     F .text	00000056 parse_hex4
1a000790 l     F .text	000000e8 utf16_literal_to_utf8
1a000878 l     F .text	00000190 parse_string
1a000a08 l     F .text	00000042 buffer_skip_whitespace
1a000a4a l     F .text	0000001a update_offset
1a000a64 l     F .text	000000a6 ensure
1a000b0a l     F .text	00000018 cJSON_New_Item
1a000b24 l     F .text	0000003c skip_utf8_bom
1a000b60 l     F .text	000001d4 parse_number
1a000d34 l     F .text	00000128 print_string_ptr
1a000e5c l     F .text	0000000a print_string
1a000e68 l     F .text	0000013c print_number
1a000fa4 l     F .text	000000f4 print_value
1a001138 l     F .text	000000a8 print_array
1a0011e0 l     F .text	00000172 print_object
1a001098 l     F .text	000000a0 print
1a001352 l     F .text	00000048 get_object_item
1a001400 l     F .text	00000130 parse_object
1a001530 l     F .text	00000108 parse_value
1a001638 l     F .text	000000ee parse_array
100002d0 l     O .bss	00000008 global_error
10000008 l     O .data	0000000c global_hooks
00000000 l    df *ABS*	00000000 main.c
00000000 l    df *ABS*	00000000 mode.c
00000000 l    df *ABS*	00000000 lux.c
00000000 l    df *ABS*	00000000 pir.c
00000000 l    df *ABS*	00000000 sapi_cyclesCounter.c
10000014 l     O .data	00000004 ClockSpeed
00000000 l    df *ABS*	00000000 sapi_gpio.c
1a001b38 l     F .text	00000034 gpioObtainPinInit
00000000 l    df *ABS*	00000000 sapi_adc.c
00000000 l    df *ABS*	00000000 sapi_sct.c
1a007ab8 l     O .text	0000001c SCTdataList
00000000 l    df *ABS*	00000000 sapi_timer.c
1a001f34 l     F .text	00000002 errorOcurred
1a001f36 l     F .text	00000002 doNothing
1000001c l     O .data	00000040 timer_dd
00000000 l    df *ABS*	00000000 sapi_tick.c
100002e4 l     O .bss	00000004 callBackFuncParams
100002e8 l     O .bss	00000008 tickCounter
100002f0 l     O .bss	00000004 tickHookFunction
00000000 l    df *ABS*	00000000 sapi_uart.c
1a007ad4 l     O .text	00000048 lpcUarts
00000000 l    df *ABS*	00000000 sapi_pwm.c
1a00222e l     F .text	0000000c pwmInitTimers
1a002288 l     F .text	00000034 pwmAttach
1a0022bc l     F .text	0000001c pwmDetach
1000005c l     O .data	0000000b AttachedPWMList
1a007b1c l     O .text	0000000b pwmMap
00000000 l    df *ABS*	00000000 sapi_usb_device.c
100002f4 l     O .bss	00000004 g_hUsb
00000000 l    df *ABS*	00000000 sapi_board.c
00000000 l    df *ABS*	00000000 sapi_delay.c
00000000 l    df *ABS*	00000000 sapi_ultrasonic_hcsr04.c
1a0024a4 l     F .text	00000010 clearInterrupt
1a0024b4 l     F .text	0000005c serveInterrupt
10000068 l     O .data	00000048 ultrasonicSensors
1a007b28 l     O .text	00000003 ultrasonicSensorsIrqMap
00000000 l    df *ABS*	00000000 board_sysinit.c
1a007b2c l     O .text	00000004 InitClkStates
1a007b30 l     O .text	00000074 pinmuxing
00000000 l    df *ABS*	00000000 sysinit.c
00000000 l    df *ABS*	00000000 system.c
100002f8 l     O .bss	00000004 heap_end.11577
00000000 l    df *ABS*	00000000 board.c
1a0026c0 l     F .text	00000044 Board_LED_Init
1a002704 l     F .text	00000040 Board_TEC_Init
1a002744 l     F .text	00000040 Board_GPIO_Init
1a002784 l     F .text	00000038 Board_SPI_Init
1a0027bc l     F .text	00000024 Board_I2C_Init
1a0027e0 l     F .text	00000030 Board_ADC_Init
1a007ba8 l     O .text	00000008 GpioButtons
1a007bb0 l     O .text	0000000c GpioLeds
1a007bbc l     O .text	00000012 GpioPorts
00000000 l    df *ABS*	00000000 ssp_18xx_43xx.c
1a002890 l     F .text	00000014 Chip_SSP_GetClockIndex
1a0028a4 l     F .text	00000018 Chip_SSP_GetPeriphClockIndex
00000000 l    df *ABS*	00000000 sct_pwm_18xx_43xx.c
00000000 l    df *ABS*	00000000 i2c_18xx_43xx.c
100000b0 l     O .data	00000038 i2c
00000000 l    df *ABS*	00000000 gpio_18xx_43xx.c
00000000 l    df *ABS*	00000000 sct_18xx_43xx.c
00000000 l    df *ABS*	00000000 fpu_init.c
00000000 l    df *ABS*	00000000 adc_18xx_43xx.c
1a002ab8 l     F .text	00000014 Chip_ADC_GetClockIndex
1a002acc l     F .text	00000032 getClkDiv
00000000 l    df *ABS*	00000000 sysinit_18xx_43xx.c
1a007bd4 l     O .text	00000048 InitClkStates
00000000 l    df *ABS*	00000000 chip_18xx_43xx.c
00000000 l    df *ABS*	00000000 clock_18xx_43xx.c
1a002df0 l     F .text	000000a0 pll_calc_divs
1a002e90 l     F .text	0000010c pll_get_frac
1a002f9c l     F .text	0000004c Chip_Clock_FindBaseClock
1a003210 l     F .text	00000022 Chip_Clock_GetDivRate
100002fc l     O .bss	00000008 audio_usb_pll_freq
1a007c28 l     O .text	0000006c periph_to_base
00000000 l    df *ABS*	00000000 uart_18xx_43xx.c
1a0033b0 l     F .text	0000002c Chip_UART_GetIndex
1a007c94 l     O .text	00000008 UART_BClock
1a007c9c l     O .text	00000008 UART_PClock
00000000 l    df *ABS*	00000000 _arm_addsubdf3.o
00000000 l    df *ABS*	00000000 _arm_muldivdf3.o
00000000 l    df *ABS*	00000000 _arm_cmpdf2.o
00000000 l    df *ABS*	00000000 _arm_unorddf2.o
00000000 l    df *ABS*	00000000 _arm_fixdfsi.o
00000000 l    df *ABS*	00000000 _aeabi_uldivmod.o
00000000 l    df *ABS*	00000000 libgcc2.c
00000000 l    df *ABS*	00000000 _dvmd_tls.o
00000000 l    df *ABS*	00000000 _arm_fixunsdfsi.o
00000000 l    df *ABS*	00000000 init.c
00000000 l    df *ABS*	00000000 malloc.c
00000000 l    df *ABS*	00000000 memcpy-stub.c
00000000 l    df *ABS*	00000000 memset.c
00000000 l    df *ABS*	00000000 nano-mallocr.c
00000000 l    df *ABS*	00000000 nano-mallocr.c
00000000 l    df *ABS*	00000000 printf.c
00000000 l    df *ABS*	00000000 realloc.c
00000000 l    df *ABS*	00000000 sprintf.c
00000000 l    df *ABS*	00000000 sscanf.c
00000000 l    df *ABS*	00000000 stdio.c
00000000 l    df *ABS*	00000000 lib_a-strcmp.o
00000000 l    df *ABS*	00000000 lib_a-strlen.o
00000000 l    df *ABS*	00000000 strncmp.c
00000000 l    df *ABS*	00000000 strtod.c
1a0045ca l     F .text	00000038 sulp
1a007db4 l     O .text	00000014 fpi.7530
1a007dc8 l     O .text	00000014 fpinan.7566
1a007de0 l     O .text	00000028 tinytens
00000000 l    df *ABS*	00000000 wbuf.c
00000000 l    df *ABS*	00000000 wsetup.c
00000000 l    df *ABS*	00000000 fflush.c
00000000 l    df *ABS*	00000000 findfp.c
1a0054bc l     F .text	00000048 std
00000000 l    df *ABS*	00000000 fwalk.c
00000000 l    df *ABS*	00000000 gdtoa-gethex.c
1a0056a4 l     F .text	00000074 rshift
00000000 l    df *ABS*	00000000 gdtoa-hexnan.c
1a005b8c l     F .text	00000024 L_shift
00000000 l    df *ABS*	00000000 lock.c
00000000 l    df *ABS*	00000000 makebuf.c
00000000 l    df *ABS*	00000000 mbtowc_r.c
00000000 l    df *ABS*	00000000 mlock.c
00000000 l    df *ABS*	00000000 mprec.c
1a007f78 l     O .text	0000000c p05.7454
00000000 l    df *ABS*	00000000 nano-mallocr.c
00000000 l    df *ABS*	00000000 nano-mallocr.c
00000000 l    df *ABS*	00000000 nano-vfprintf.c
00000000 l    df *ABS*	00000000 nano-vfscanf.c
00000000 l    df *ABS*	00000000 nano-vfprintf.c
1a006c48 l     F .text	0000002e __sfputc_r
00000000 l    df *ABS*	00000000 nano-vfprintf_i.c
00000000 l    df *ABS*	00000000 nano-vfscanf_i.c
00000000 l    df *ABS*	00000000 s_nan.c
00000000 l    df *ABS*	00000000 sccl.c
00000000 l    df *ABS*	00000000 strtol.c
1a00750c l     F .text	000000f0 _strtol_l.isra.0
00000000 l    df *ABS*	00000000 strtoul.c
1a007600 l     F .text	000000ec _strtoul_l.isra.0
00000000 l    df *ABS*	00000000 ungetc.c
00000000 l    df *ABS*	00000000 wctomb_r.c
00000000 l    df *ABS*	00000000 lib_a-memchr.o
00000000 l    df *ABS*	00000000 memmove.c
00000000 l    df *ABS*	00000000 nano-mallocr.c
00000000 l    df *ABS*	00000000 libgcc2.c
00000000 l    df *ABS*	00000000 libgcc2.c
00000000 l    df *ABS*	00000000 ctype_.c
00000000 l    df *ABS*	00000000 impure.c
100000ec l     O .data	00000060 impure_data
00000000 l    df *ABS*	00000000 lnumeric.c
1000014c l     O .data	00000002 numempty
00000000 l    df *ABS*	00000000 locale.c
00000000 l    df *ABS*	00000000 
1a007fe0 l       .bss_RAM5	00000000 __init_array_end
1a007fe0 l       .bss_RAM5	00000000 __preinit_array_end
1a007fe0 l       .bss_RAM5	00000000 __init_array_start
1a007fe0 l       .bss_RAM5	00000000 __preinit_array_start
1a000590 g     F .text	00000024 imprimirJson
1a007854 g     F .text	00000010 _malloc_usable_size_r
1a007200 g     F .text	000000b0 _scanf_chars
1a003e80 g     F .text	0000002c .hidden __aeabi_dcmpun
1a003034 g     F .text	0000001c Chip_Clock_GetDividerSource
1a0065b2 g     F .text	00000042 __any_on
1a002610 g     F .text	00000012 _isatty_r
1a003e44 g     F .text	00000012 .hidden __aeabi_dcmple
1a001fb8 g     F .text	00000044 TIMER2_IRQHandler
1a00213c g     F .text	00000014 uartRxRead
1a003d80 g     F .text	0000007a .hidden __cmpdf2
1a000184  w    F .text	00000002 DebugMon_Handler
1a002622 g     F .text	0000000a _lseek_r
1a00018a  w    F .text	00000002 RIT_IRQHandler
1a002b64 g     F .text	00000016 Chip_ADC_DeInit
1a080000 g       *ABS*	00000000 __top_MFlashA512
1a003d80 g     F .text	0000007a .hidden __eqdf2
1a00018a  w    F .text	00000002 ADCHS_IRQHandler
1a000114 g       .text	00000000 __section_table_start
1a00018a  w    F .text	00000002 FLASH_EEPROM_IRQHandler
1a0038f0 g     F .text	0000005a .hidden __floatdidf
1a00018a  w    F .text	00000002 I2C0_IRQHandler
1a0021e0 g     F .text	0000001e uartReadByte
1a004424 g     F .text	00000030 printf
10000320 g     O .bss	00000001 __lock___atexit_recursive_mutex
1a002464 g     F .text	0000003e delayRead
1a004556 g     F .text	00000024 __sseek
1a00556c g     F .text	00000070 __sinit
1a0051b8 g     F .text	000000a4 __swbuf_r
1a00017a  w    F .text	00000002 HardFault_Handler
1a005510 g     F .text	0000002c __sfmoreglue
1a001a78 g     F .text	00000014 pir_off
1a000000 g       *ABS*	00000000 __vectors_start__
1a002c2c g     F .text	0000000c Chip_ADC_SetResolution
1a005df8 g     F .text	0000000c __malloc_unlock
1a0020e0 g     F .text	0000002c SysTick_Handler
1a005718 g     F .text	0000002a __hexdig_fun
1a003430 g     F .text	00000040 Chip_UART_SetBaud
10000321 g     O .bss	00000001 __lock___arc4random_mutex
1a00018a  w    F .text	00000002 SDIO_IRQHandler
1a002848 g     F .text	0000001c Board_UARTGetChar
1a00018a  w    F .text	00000002 ATIMER_IRQHandler
1a007820 g     F .text	00000034 memmove
1a000186  w    F .text	00000002 PendSV_Handler
1a000178  w    F .text	00000002 NMI_Handler
1a005e04 g     F .text	00000068 _Balloc
1a007fe8 g       .ARM.exidx	00000000 __exidx_end
1a000150 g       .text	00000000 __data_section_table_end
1a00018a  w    F .text	00000002 I2C1_IRQHandler
1a002a52 g     F .text	00000010 Chip_SCT_Init
1a0004c8 g     F .text	00000024 sensor_movimiento
1a00045c g     F .text	00000024 luz_1
1a00018a  w    F .text	00000002 UART1_IRQHandler
1a003d70 g     F .text	0000008a .hidden __gtdf2
1a00018a  w    F .text	00000002 GPIO5_IRQHandler
1a00018a  w    F .text	00000002 CAN1_IRQHandler
1a007864 g     F .text	0000002e .hidden __aeabi_d2lz
1a002606 g     F .text	0000000a _fstat_r
53ff4342 g       *ABS*	00000000 __valid_user_code_checksum
1a00030c g     F .text	0000000c relay_on
1a0072b0 g     F .text	000001e8 _scanf_i
1a00451a g     F .text	00000004 __seofread
1a007fe8 g       .ARM.exidx	00000000 _etext
1a003e0c g     F .text	00000010 .hidden __aeabi_cdcmple
1a00018a  w    F .text	00000002 USB1_IRQHandler
1a00018a  w    F .text	00000002 I2S0_IRQHandler
1a001728 g     F .text	000000c4 cJSON_ParseWithLengthOpts
1a001ffc g     F .text	00000044 TIMER3_IRQHandler
1a0032b2 g     F .text	0000000c Chip_Clock_GetBaseClocktHz
1a00018a  w    F .text	00000002 UART0_IRQHandler
1a0001aa g     F .text	00000012 bss_init
1a0042a8 g     F .text	0000001c memcpy
10000004 g     O .data	00000004 relay_status
1a005bd8 g     F .text	00000120 __hexnan
1a003dfc g     F .text	00000020 .hidden __aeabi_cdrcmple
1a00018a  w    F .text	00000002 SGPIO_IRQHandler
1a005504 g     F .text	0000000c _cleanup_r
1a006714 g     F .text	000001f0 _svfprintf_r
1a003878 g     F .text	00000022 .hidden __floatsidf
1a003d78 g     F .text	00000082 .hidden __ltdf2
1a003efc g     F .text	00000000 .hidden __aeabi_uldivmod
1000032c g       .noinit	00000000 _noinit
1a001832 g     F .text	00000012 cJSON_IsTrue
1a002218 g     F .text	00000016 uartWriteString
1000031c g     O .bss	00000004 SystemCoreClock
1a006518 g     F .text	00000066 __ratio
1a0033dc g     F .text	00000054 Chip_UART_Init
1a00018a  w    F .text	00000002 ADC0_IRQHandler
1a004288 g     F .text	00000010 malloc
1a002b0c g     F .text	00000018 readAdcVal
1a007eb0 g     O .text	000000c8 __mprec_tens
10000000 g     O .data	00000004 relay_previous
1a000180  w    F .text	00000002 UsageFault_Handler
1a003364 g     F .text	0000004c Chip_Clock_GetRate
1a004200 g     F .text	00000040 .hidden __fixunsdfsi
1a00018a  w    F .text	00000002 GPIO6_IRQHandler
1a00697e g     F .text	0000003a __ssrefill_r
1a002568 g     F .text	0000006c Board_SetupClocking
20008000 g       *ABS*	00000000 __top_RamAHB32
1a003858 g     F .text	0000001e .hidden __aeabi_ui2d
1a001acc g     F .text	00000050 pir_read
1a00602c g     F .text	00000012 __i2b
1a003f2c g     F .text	000002d0 .hidden __udivmoddi4
1a0035d4 g     F .text	00000000 .hidden __aeabi_drsub
1a002678 g     F .text	00000020 _sbrk_r
1a007ba4 g     O .text	00000004 ExtRateIn
1a00018a  w    F .text	00000002 IntDefaultHandler
1a000300 g       .text	00000000 __CRP_WORD_END__
1a001ee8 g     F .text	0000004c Sct_EnablePwmFor
1a00262c g     F .text	0000004a _read_r
1a000370 g     F .text	0000008c led_bright
1a003e30 g     F .text	00000012 .hidden __aeabi_dcmplt
1a00251a g     F .text	0000000a GPIO1_IRQHandler
1a00389c g     F .text	00000042 .hidden __extendsfdf2
1a0069b8 g     F .text	00000290 __ssvfscanf_r
1a003ba0 g     F .text	000001d0 .hidden __aeabi_ddiv
1a00018a  w    F .text	00000002 SSP0_IRQHandler
1a0035e0 g     F .text	00000276 .hidden __adddf3
1a00210c g     F .text	00000018 uartRxReady
1a0063dc g     F .text	000000a0 __b2d
1a007fe0 g       .ARM.exidx	00000000 __exidx_start
10000322 g     O .bss	00000001 __lock___env_recursive_mutex
1a00394c g     F .text	00000254 .hidden __aeabi_dmul
1a0002fc g     O .text	00000004 CRP_WORD
1a002afe g     F .text	0000000e setStartMode
10000323 g     O .bss	00000001 __lock___sinit_recursive_mutex
1a007e68 g     O .text	00000004 _global_impure_ptr
1a006610 g     F .text	0000004c _realloc_r
1a004240 g     F .text	00000048 __libc_init_array
1a001818 g     F .text	00000010 cJSON_Print
1a007e88 g     O .text	00000028 __mprec_bigtens
1a005f10 g     F .text	0000007c __s2b
1a000318 g     F .text	00000020 relay_toggle
1a001dac g     F .text	0000008c adcInit
1a003858 g     F .text	0000001e .hidden __floatunsidf
1a00018a  w    F .text	00000002 ADC1_IRQHandler
1a0062a2 g     F .text	00000034 __mcmp
1a00180c g     F .text	0000000c cJSON_Parse
1a001e90 g     F .text	00000024 Sct_Init
1a002864 g     F .text	0000002c Board_Init
1a0035d0 g     F .text	00000002 _init
1a000114 g       .text	00000000 __data_section_table
1a0019c8 g     F .text	00000030 mode_toggle
1a007894 g     F .text	0000003c .hidden __aeabi_d2ulz
1a00018a  w    F .text	00000002 RTC_IRQHandler
1a004608 g     F .text	00000b98 _strtod_l
1a005bb0 g     F .text	00000028 __match
1000032c g       .bss	00000000 _ebss
1a002c38 g     F .text	0000002a Chip_ADC_EnableChannel
1a001f38 g     F .text	00000040 TIMER0_IRQHandler
1a002064 g     F .text	0000007c tickInit
20010000 g       *ABS*	00000000 __top_RamAHB_ETB16
1a00018a  w    F .text	00000002 SPI_IRQHandler
1a005f8c g     F .text	00000040 __hi0bits
1a002988 g     F .text	0000004a Chip_SCTPWM_SetRate
1a002a18 g     F .text	00000038 Chip_I2C_SetClockRate
1a003eac g     F .text	0000004e .hidden __fixdfsi
1a00018a  w    F .text	00000002 LCD_IRQHandler
1a002fe8 g     F .text	0000004c Chip_Clock_EnableCrystal
10000324 g     O .bss	00000001 __lock___malloc_recursive_mutex
1a0051a0 g     F .text	00000018 strtod
1a002b7a g     F .text	00000008 Chip_ADC_ReadValue
10008000 g       *ABS*	00000000 __top_RamLoc32
1a0019f8 g     F .text	00000014 lux_on
1a0003fc g     F .text	0000000c led_on
1a0035e0 g     F .text	00000276 .hidden __aeabi_dadd
1a00018c g     F .text	0000001e data_init
1a003d78 g     F .text	00000082 .hidden __ledf2
1a002bda g     F .text	00000020 Chip_ADC_SetStartMode
1a006160 g     F .text	0000009c __pow5mult
1a0038e0 g     F .text	0000006a .hidden __aeabi_ul2d
1a000480 g     F .text	00000024 led
1a001f78 g     F .text	00000040 TIMER1_IRQHandler
1a007e08 g     O .text	00000020 __sf_fake_stderr
1a0029f4 g     F .text	00000024 Chip_I2C_Init
1a001a8c g     F .text	00000014 pir_on
1a005cfc g     F .text	00000002 __retarget_lock_release_recursive
1a00018a  w    F .text	00000002 UART2_IRQHandler
1a0031a4 g     F .text	0000006c Chip_Clock_GetMainPLLHz
1a00665c g     F .text	000000b6 __ssputs_r
1a007980 g     O .text	00000136 gpioPinsInit
1000030c g     O .bss	00000002 i
1a0021fe g     F .text	0000001a uartWriteByte
1a0028bc g     F .text	00000012 Chip_SSP_SetClockRate
1a003e6c g     F .text	00000012 .hidden __aeabi_dcmpgt
1a006c76 g     F .text	00000024 __sfputs_r
1a002524 g     F .text	0000000a GPIO2_IRQHandler
1a00553c g     F .text	0000000c __sfp_lock_acquire
1a007780 g     F .text	00000000 memchr
100002d8 g     O .bss	00000004 mode_status
1a0042d4 g     F .text	0000009c _free_r
1a001e38 g     F .text	00000058 adcRead
1a00328c g     F .text	00000026 Chip_Clock_GetBaseClock
1a003e58 g     F .text	00000012 .hidden __aeabi_dcmpge
100002c0 g       .bss	00000000 _bss
1a002b82 g     F .text	00000036 Chip_ADC_ReadStatus
1000030e g     O .bss	00000001 dato
1a006904 g     F .text	0000007a _sungetc_r
1a002bfa g     F .text	00000032 Chip_ADC_SetSampleRate
1a0035dc g     F .text	0000027a .hidden __aeabi_dsub
100002dc g     O .bss	00000004 lux_status
100002c0 g     O .bss	00000004 led_status
1a002444 g     F .text	00000020 delayInit
1a0038e0 g     F .text	0000006a .hidden __floatundidf
1a0061fc g     F .text	000000a6 __lshift
1a00018a  w    F .text	00000002 I2S1_IRQHandler
1a0028ce g     F .text	0000003e Chip_SSP_SetBitRate
1a002a50 g     F .text	00000002 Chip_GPIO_Init
1a0045a6 g     F .text	00000024 strncmp
1a007bd0 g     O .text	00000004 OscRateIn
1a001858 g     F .text	00000020 cJSON_GetNumberValue
1a002164 g     F .text	0000007c uartInit
1a00603e g     F .text	00000120 __multiply
1000032c g       .noinit	00000000 _end_noinit
10008000 g       *ABS*	00000000 _vStackTop
1a00647c g     F .text	0000009c __d2b
1a001894 g     F .text	00000014 PIRSetStatus
1a00018a  w    F .text	00000002 SSP1_IRQHandler
1a004454 g     F .text	00000010 realloc
1a0076ec g     F .text	00000004 _strtoul_r
1a000178 g       .text	00000000 __bss_section_table_end
1a0025fc g     F .text	0000000a _close_r
1a003878 g     F .text	00000022 .hidden __aeabi_i2d
1a001b6c g     F .text	00000194 gpioInit
1a0022d8 g     F .text	00000024 pwmInit
1a000600 g     F .text	0000007a puertos_init
1a0017ec g     F .text	00000020 cJSON_ParseWithOpts
1a0044a4 g     F .text	00000054 sscanf
1a00525c g     F .text	000000dc __swsetup_r
1a0041fc  w    F .text	00000002 .hidden __aeabi_ldiv0
1a003ba0 g     F .text	000001d0 .hidden __divdf3
1a0055dc g     F .text	0000008c __sfp
1a00657e g     F .text	00000034 __copybits
1a0019b4 g     F .text	00000014 mode_on
1a005560 g     F .text	0000000c __sinit_lock_release
1a00394c g     F .text	00000254 .hidden __muldf3
1a0044f8 g     F .text	00000022 __sread
1a0022fc g     F .text	0000001c USB0_IRQHandler
1a003330 g     F .text	00000034 Chip_Clock_Disable
1a00018a  w    F .text	00000002 GPIO3_IRQHandler
1a005dec g     F .text	0000000c __malloc_lock
1a002834 g     F .text	00000014 Board_UARTPutChar
1a00018a  w    F .text	00000002 SCT_IRQHandler
1a005444 g     F .text	00000078 _fflush_r
1a0065f4 g     F .text	0000001c _calloc_r
1a007e28 g     O .text	00000020 __sf_fake_stdin
1a003050 g     F .text	0000001c Chip_Clock_GetDividerDivisor
1a0002fc g       .text	00000000 __CRP_WORD_START__
1a005cfa g     F .text	00000002 __retarget_lock_acquire_recursive
1a0013ac g     F .text	00000054 cJSON_Delete
1a001844 g     F .text	00000012 cJSON_IsNumber
1a0042c4 g     F .text	00000010 memset
1a00017c  w    F .text	00000002 MemManage_Handler
1a0018d4 g     F .text	000000ca main
1a005cf8 g     F .text	00000002 __retarget_lock_init_recursive
1a0004a4 g     F .text	00000024 sensor_luminosidad
1a00018a  w    F .text	00000002 WDT_IRQHandler
2000c000 g       *ABS*	00000000 __top_RamAHB16
100002c4 g     O .bss	00000004 toggle_status
1008a000 g       *ABS*	00000000 __top_RamLoc40
1a000182  w    F .text	00000002 SVC_Handler
10000018 g     O .data	00000004 DWT_CTRL
1a00457a g     F .text	00000008 __sclose
1a0075fc g     F .text	00000004 _strtol_r
1a001ed0 g     F .text	00000018 Sct_SetDutyCycle
1a004370 g     F .text	000000b4 _malloc_r
1a007764 g     F .text	0000001a __ascii_wctomb
1a0038f0 g     F .text	0000005a .hidden __aeabi_l2d
1a002124 g     F .text	00000018 uartTxReady
1a0076f0 g     F .text	00000074 __submore
1a00018a  w    F .text	00000002 GPIO7_IRQHandler
1a0032c0 g     F .text	0000003c Chip_Clock_EnableOpts
1a00306c g     F .text	000000b8 Chip_Clock_GetClockInputHz
1a002a64 g     F .text	00000054 fpuInit
1a004582 g     F .text	00000014 strcmp
1a0044a4 g     F .text	00000054 siscanf
1a003124 g     F .text	00000080 Chip_Clock_CalcMainPLLValue
1a001a20 g     F .text	0000002c lux_toggle
1a00041c g     F .text	00000034 led_toggle
1a0025e0 g     F .text	0000001c SystemInit
1a00018a  w    F .text	00000002 SPIFI_IRQHandler
100002e0 g     O .bss	00000004 pir_status
1a00240c g     F .text	00000038 delay
1a00018a  w    F .text	00000002 QEI_IRQHandler
1a000150 g       .text	00000000 __bss_section_table
1a007894 g     F .text	0000003c .hidden __fixunsdfdi
1a003d80 g     F .text	0000007a .hidden __nedf2
1a0004ec g     F .text	00000024 intensidad
1a001d00 g     F .text	00000056 gpioWrite
1a004424 g     F .text	00000030 iprintf
1a004464 g     F .text	00000040 sprintf
1a002b24 g     F .text	00000040 Chip_ADC_Init
1a0018a8 g     F .text	0000002c ledSetStatus
1a001878 g     F .text	0000001c luxSetStatus
1a007864 g     F .text	0000002e .hidden __fixdfdi
10000318 g     O .bss	00000004 g_pUsbApi
1a002530 g     F .text	00000038 Board_SetupMuxing
1a000300 g     F .text	0000000c relay_off
1a003470 g     F .text	000000dc Chip_UART_SetBaudFDR
1a002040 g     F .text	0000000c tickRead
1a002698 g     F .text	00000028 _write_r
1a001a0c g     F .text	00000014 lux_off
1a000408 g     F .text	00000014 led_off
10000310 g     O .bss	00000008 tickRateMS
1a002c62 g     F .text	00000022 Chip_ADC_SetBurstCmd
1a001a4c g     F .text	0000002c lux_read
1a0019a0 g     F .text	00000014 mode_off
1a00018a  w    F .text	00000002 ETH_IRQHandler
1a006eec g     F .text	000000ea _printf_common
100000e8 g     O .data	00000004 _impure_ptr
1a005338 g     F .text	0000010c __sflush_r
10000000 g       .uninit_RESERVED	00000000 _end_uninit_RESERVED
1a001eb4 g     F .text	0000001c Sct_Uint8ToTicks
1a000510 g     F .text	00000080 leerJson
1a006714 g     F .text	000001f0 _svfiprintf_r
1a002150 g     F .text	00000014 uartTxWrite
1a00018a  w    F .text	00000002 CAN0_IRQHandler
1a005dc8 g     F .text	00000024 __ascii_mbtowc
10000000 g       .data	00000000 _data
1a006390 g     F .text	0000004c __ulp
1a007e6c g     O .text	0000000c _C_numeric_locale
1000032c g       .bss	00000000 _pvHeapStart
1a000178 g       .text	00000000 __section_table_end
1a000338 g     F .text	00000038 toggle_read
1a00290c g     F .text	00000038 Chip_SSP_Init
1a004200 g     F .text	00000040 .hidden __aeabi_d2uiz
1a00018a  w    F .text	00000002 GINT0_IRQHandler
1a007498 g     F .text	00000010 nan
1a0069b8 g     F .text	00000290 __ssvfiscanf_r
1a005cfe g     F .text	00000048 __swhatbuf_r
1a00018a  w    F .text	00000002 DAC_IRQHandler
1a002810 g     F .text	00000024 Board_Debug_Init
1a003e1c g     F .text	00000012 .hidden __aeabi_dcmpeq
1a002bb8 g     F .text	00000022 Chip_ADC_Int_SetChannelCmd
100002bc g       .data	00000000 _edata
1a0029d4 g     F .text	00000020 Chip_I2C_EventHandler
1a00018a  w    F .text	00000002 M0SUB_IRQHandler
10000325 g     O .bss	00000001 __lock___at_quick_exit_mutex
1a00139c g     F .text	00000010 cJSON_GetErrorPtr
1a002944 g     F .text	00000044 Chip_SCTPWM_SetOutPin
1a002c84 g     F .text	00000158 Chip_SetupCoreClock
1a00451e g     F .text	00000038 __swrite
1a002510 g     F .text	0000000a GPIO0_IRQHandler
1a006c9c g     F .text	00000250 _vfiprintf_r
1a000000 g     O .text	00000114 g_pfnVectors
1a00354c g     F .text	00000084 ResetISR
1a005668 g     F .text	0000003c _fwalk_reent
1a002ddc g     F .text	00000014 SystemCoreClockUpdate
1a0062d6 g     F .text	000000ba __mdiff
1a003eac g     F .text	0000004e .hidden __aeabi_d2iz
1a00223c g     F .text	00000028 pwmIsAttached
1a00018a  w    F .text	00000002 DMA_IRQHandler
1a00018a  w    F .text	00000002 EVRT_IRQHandler
1b080000 g       *ABS*	00000000 __top_MFlashB512
1a005548 g     F .text	0000000c __sfp_lock_release
1a007e48 g     O .text	00000020 __sf_fake_stdout
1a004464 g     F .text	00000040 siprintf
1a0074a8 g     F .text	00000064 __sccl
1a007ca4 g     O .text	00000101 _ctype_
1a0041fc  w    F .text	00000002 .hidden __aeabi_idiv0
1a003e80 g     F .text	0000002c .hidden __unorddf2
1a00017e  w    F .text	00000002 BusFault_Handler
10000326 g     O .bss	00000001 __lock___dd_hash_mutex
1a005d48 g     F .text	00000080 __smakebuf_r
10000327 g     O .bss	00000001 __lock___tz_mutex
1a0005b4 g     F .text	0000004c wifiSetup
1a004596 g     F .text	00000010 strlen
1a006fd8 g     F .text	00000228 _printf_i
1a001828 g     F .text	0000000a cJSON_GetObjectItemCaseSensitive
1a002264 g     F .text	00000024 pwmWrite
1a0032fc g     F .text	00000034 Chip_Clock_Enable
1a003e0c g     F .text	00000010 .hidden __aeabi_cdcmpeq
1a003d70 g     F .text	0000008a .hidden __gedf2
1a00018a  w    F .text	00000002 UART3_IRQHandler
1a005744 g     F .text	00000446 __gethex
10000308 g     O .bss	00000004 __malloc_sbrk_start
1a00018a  w    F .text	00000002 MCPWM_IRQHandler
1a00018a  w    F .text	00000002 M0APP_IRQHandler
1a001d56 g     F .text	00000054 gpioRead
1a00389c g     F .text	00000042 .hidden __aeabi_f2d
1a002318 g     F .text	000000f4 boardInit
10000304 g     O .bss	00000004 __malloc_free_list
100002c8 g     O .bss	00000001 valor_pwm
1a0035dc g     F .text	0000027a .hidden __subdf3
1a006c9c g     F .text	00000250 _vfprintf_r
1a00018a  w    F .text	00000002 GINT1_IRQHandler
1a005fcc g     F .text	00000060 __lo0bits
1a00204c g     F .text	00000018 tickPowerSet
1a000450 g     F .text	0000000a pot_read
10000150 g     O .data	0000016c __global_locale
1a003234 g     F .text	00000058 Chip_Clock_SetBaseClock
1a001b1c g     F .text	0000001c cyclesCounterInit
1a00018a  w    F .text	00000002 GPIO4_IRQHandler
10000328 g     O .bss	00000001 __lock___sfp_recursive_mutex
1a001aa0 g     F .text	0000002c pir_toggle
1a004298 g     F .text	00000010 free
1a005554 g     F .text	0000000c __sinit_lock_acquire
1a0025d4 g     F .text	0000000c Board_SystemInit
1a005e9a g     F .text	00000076 __multadd
1a005e6c g     F .text	0000002e _Bfree



Disassembly of section .text:

1a000000 <g_pfnVectors>:
1a000000:	00 80 00 10 4d 35 00 1a 79 01 00 1a 7b 01 00 1a     ....M5..y...{...
1a000010:	7d 01 00 1a 7f 01 00 1a 81 01 00 1a 42 43 ff 53     }...........BC.S
	...
1a00002c:	83 01 00 1a 85 01 00 1a 00 00 00 00 87 01 00 1a     ................
1a00003c:	e1 20 00 1a 8b 01 00 1a 8b 01 00 1a 8b 01 00 1a     . ..............
1a00004c:	00 00 00 00 8b 01 00 1a 8b 01 00 1a 8b 01 00 1a     ................
1a00005c:	8b 01 00 1a fd 22 00 1a 8b 01 00 1a 8b 01 00 1a     ....."..........
1a00006c:	8b 01 00 1a 39 1f 00 1a 79 1f 00 1a b9 1f 00 1a     ....9...y.......
1a00007c:	fd 1f 00 1a 8b 01 00 1a 8b 01 00 1a 8b 01 00 1a     ................
1a00008c:	8b 01 00 1a 8b 01 00 1a 8b 01 00 1a 8b 01 00 1a     ................
1a00009c:	8b 01 00 1a 8b 01 00 1a 8b 01 00 1a 8b 01 00 1a     ................
1a0000ac:	8b 01 00 1a 8b 01 00 1a 8b 01 00 1a 8b 01 00 1a     ................
1a0000bc:	8b 01 00 1a 11 25 00 1a 1b 25 00 1a 25 25 00 1a     .....%...%..%%..
1a0000cc:	8b 01 00 1a 8b 01 00 1a 8b 01 00 1a 8b 01 00 1a     ................
1a0000dc:	8b 01 00 1a 8b 01 00 1a 8b 01 00 1a 8b 01 00 1a     ................
1a0000ec:	8b 01 00 1a 00 00 00 00 8b 01 00 1a 8b 01 00 1a     ................
1a0000fc:	8b 01 00 1a 00 00 00 00 8b 01 00 1a 8b 01 00 1a     ................
1a00010c:	8b 01 00 1a 8b 01 00 1a                             ........

1a000114 <__data_section_table>:
1a000114:	1a007fe8 	.word	0x1a007fe8
1a000118:	10000000 	.word	0x10000000
1a00011c:	000002bc 	.word	0x000002bc
1a000120:	1a007fe8 	.word	0x1a007fe8
1a000124:	10080000 	.word	0x10080000
1a000128:	00000000 	.word	0x00000000
1a00012c:	1a007fe8 	.word	0x1a007fe8
1a000130:	20000000 	.word	0x20000000
1a000134:	00000000 	.word	0x00000000
1a000138:	1a007fe8 	.word	0x1a007fe8
1a00013c:	20008000 	.word	0x20008000
1a000140:	00000000 	.word	0x00000000
1a000144:	1a007fe8 	.word	0x1a007fe8
1a000148:	2000c000 	.word	0x2000c000
1a00014c:	00000000 	.word	0x00000000

1a000150 <__bss_section_table>:
1a000150:	100002c0 	.word	0x100002c0
1a000154:	0000006c 	.word	0x0000006c
1a000158:	10080000 	.word	0x10080000
1a00015c:	00000000 	.word	0x00000000
1a000160:	20000000 	.word	0x20000000
1a000164:	00000000 	.word	0x00000000
1a000168:	20008000 	.word	0x20008000
1a00016c:	00000000 	.word	0x00000000
1a000170:	2000c000 	.word	0x2000c000
1a000174:	00000000 	.word	0x00000000

1a000178 <NMI_Handler>:
1a000178:	e7fe      	b.n	1a000178 <NMI_Handler>

1a00017a <HardFault_Handler>:
1a00017a:	e7fe      	b.n	1a00017a <HardFault_Handler>

1a00017c <MemManage_Handler>:
1a00017c:	e7fe      	b.n	1a00017c <MemManage_Handler>

1a00017e <BusFault_Handler>:
1a00017e:	e7fe      	b.n	1a00017e <BusFault_Handler>

1a000180 <UsageFault_Handler>:
1a000180:	e7fe      	b.n	1a000180 <UsageFault_Handler>

1a000182 <SVC_Handler>:
1a000182:	e7fe      	b.n	1a000182 <SVC_Handler>

1a000184 <DebugMon_Handler>:
1a000184:	e7fe      	b.n	1a000184 <DebugMon_Handler>

1a000186 <PendSV_Handler>:
1a000186:	e7fe      	b.n	1a000186 <PendSV_Handler>
1a000188:	e7fe      	b.n	1a000188 <PendSV_Handler+0x2>

1a00018a <ADC0_IRQHandler>:
1a00018a:	e7fe      	b.n	1a00018a <ADC0_IRQHandler>

1a00018c <data_init>:
1a00018c:	2300      	movs	r3, #0
1a00018e:	4293      	cmp	r3, r2
1a000190:	d20a      	bcs.n	1a0001a8 <data_init+0x1c>
1a000192:	b410      	push	{r4}
1a000194:	f850 4b04 	ldr.w	r4, [r0], #4
1a000198:	f841 4b04 	str.w	r4, [r1], #4
1a00019c:	3304      	adds	r3, #4
1a00019e:	4293      	cmp	r3, r2
1a0001a0:	d3f8      	bcc.n	1a000194 <data_init+0x8>
1a0001a2:	f85d 4b04 	ldr.w	r4, [sp], #4
1a0001a6:	4770      	bx	lr
1a0001a8:	4770      	bx	lr

1a0001aa <bss_init>:
1a0001aa:	2300      	movs	r3, #0
1a0001ac:	428b      	cmp	r3, r1
1a0001ae:	d204      	bcs.n	1a0001ba <bss_init+0x10>
1a0001b0:	2200      	movs	r2, #0
1a0001b2:	f840 2b04 	str.w	r2, [r0], #4
1a0001b6:	3304      	adds	r3, #4
1a0001b8:	e7f8      	b.n	1a0001ac <bss_init+0x2>
1a0001ba:	4770      	bx	lr
1a0001bc:	ffff ffff 			; <UNDEFINED> instruction: 0xffffffff
1a0001c0:	ffff ffff 			; <UNDEFINED> instruction: 0xffffffff
1a0001c4:	ffff ffff 			; <UNDEFINED> instruction: 0xffffffff
1a0001c8:	ffff ffff 			; <UNDEFINED> instruction: 0xffffffff
1a0001cc:	ffff ffff 			; <UNDEFINED> instruction: 0xffffffff
1a0001d0:	ffff ffff 			; <UNDEFINED> instruction: 0xffffffff
1a0001d4:	ffff ffff 			; <UNDEFINED> instruction: 0xffffffff
1a0001d8:	ffff ffff 			; <UNDEFINED> instruction: 0xffffffff
1a0001dc:	ffff ffff 			; <UNDEFINED> instruction: 0xffffffff
1a0001e0:	ffff ffff 			; <UNDEFINED> instruction: 0xffffffff
1a0001e4:	ffff ffff 			; <UNDEFINED> instruction: 0xffffffff
1a0001e8:	ffff ffff 			; <UNDEFINED> instruction: 0xffffffff
1a0001ec:	ffff ffff 			; <UNDEFINED> instruction: 0xffffffff
1a0001f0:	ffff ffff 			; <UNDEFINED> instruction: 0xffffffff
1a0001f4:	ffff ffff 			; <UNDEFINED> instruction: 0xffffffff
1a0001f8:	ffff ffff 			; <UNDEFINED> instruction: 0xffffffff
1a0001fc:	ffff ffff 			; <UNDEFINED> instruction: 0xffffffff
1a000200:	ffff ffff 			; <UNDEFINED> instruction: 0xffffffff
1a000204:	ffff ffff 			; <UNDEFINED> instruction: 0xffffffff
1a000208:	ffff ffff 			; <UNDEFINED> instruction: 0xffffffff
1a00020c:	ffff ffff 			; <UNDEFINED> instruction: 0xffffffff
1a000210:	ffff ffff 			; <UNDEFINED> instruction: 0xffffffff
1a000214:	ffff ffff 			; <UNDEFINED> instruction: 0xffffffff
1a000218:	ffff ffff 			; <UNDEFINED> instruction: 0xffffffff
1a00021c:	ffff ffff 			; <UNDEFINED> instruction: 0xffffffff
1a000220:	ffff ffff 			; <UNDEFINED> instruction: 0xffffffff
1a000224:	ffff ffff 			; <UNDEFINED> instruction: 0xffffffff
1a000228:	ffff ffff 			; <UNDEFINED> instruction: 0xffffffff
1a00022c:	ffff ffff 			; <UNDEFINED> instruction: 0xffffffff
1a000230:	ffff ffff 			; <UNDEFINED> instruction: 0xffffffff
1a000234:	ffff ffff 			; <UNDEFINED> instruction: 0xffffffff
1a000238:	ffff ffff 			; <UNDEFINED> instruction: 0xffffffff
1a00023c:	ffff ffff 			; <UNDEFINED> instruction: 0xffffffff
1a000240:	ffff ffff 			; <UNDEFINED> instruction: 0xffffffff
1a000244:	ffff ffff 			; <UNDEFINED> instruction: 0xffffffff
1a000248:	ffff ffff 			; <UNDEFINED> instruction: 0xffffffff
1a00024c:	ffff ffff 			; <UNDEFINED> instruction: 0xffffffff
1a000250:	ffff ffff 			; <UNDEFINED> instruction: 0xffffffff
1a000254:	ffff ffff 			; <UNDEFINED> instruction: 0xffffffff
1a000258:	ffff ffff 			; <UNDEFINED> instruction: 0xffffffff
1a00025c:	ffff ffff 			; <UNDEFINED> instruction: 0xffffffff
1a000260:	ffff ffff 			; <UNDEFINED> instruction: 0xffffffff
1a000264:	ffff ffff 			; <UNDEFINED> instruction: 0xffffffff
1a000268:	ffff ffff 			; <UNDEFINED> instruction: 0xffffffff
1a00026c:	ffff ffff 			; <UNDEFINED> instruction: 0xffffffff
1a000270:	ffff ffff 			; <UNDEFINED> instruction: 0xffffffff
1a000274:	ffff ffff 			; <UNDEFINED> instruction: 0xffffffff
1a000278:	ffff ffff 			; <UNDEFINED> instruction: 0xffffffff
1a00027c:	ffff ffff 			; <UNDEFINED> instruction: 0xffffffff
1a000280:	ffff ffff 			; <UNDEFINED> instruction: 0xffffffff
1a000284:	ffff ffff 			; <UNDEFINED> instruction: 0xffffffff
1a000288:	ffff ffff 			; <UNDEFINED> instruction: 0xffffffff
1a00028c:	ffff ffff 			; <UNDEFINED> instruction: 0xffffffff
1a000290:	ffff ffff 			; <UNDEFINED> instruction: 0xffffffff
1a000294:	ffff ffff 			; <UNDEFINED> instruction: 0xffffffff
1a000298:	ffff ffff 			; <UNDEFINED> instruction: 0xffffffff
1a00029c:	ffff ffff 			; <UNDEFINED> instruction: 0xffffffff
1a0002a0:	ffff ffff 			; <UNDEFINED> instruction: 0xffffffff
1a0002a4:	ffff ffff 			; <UNDEFINED> instruction: 0xffffffff
1a0002a8:	ffff ffff 			; <UNDEFINED> instruction: 0xffffffff
1a0002ac:	ffff ffff 			; <UNDEFINED> instruction: 0xffffffff
1a0002b0:	ffff ffff 			; <UNDEFINED> instruction: 0xffffffff
1a0002b4:	ffff ffff 			; <UNDEFINED> instruction: 0xffffffff
1a0002b8:	ffff ffff 			; <UNDEFINED> instruction: 0xffffffff
1a0002bc:	ffff ffff 			; <UNDEFINED> instruction: 0xffffffff
1a0002c0:	ffff ffff 			; <UNDEFINED> instruction: 0xffffffff
1a0002c4:	ffff ffff 			; <UNDEFINED> instruction: 0xffffffff
1a0002c8:	ffff ffff 			; <UNDEFINED> instruction: 0xffffffff
1a0002cc:	ffff ffff 			; <UNDEFINED> instruction: 0xffffffff
1a0002d0:	ffff ffff 			; <UNDEFINED> instruction: 0xffffffff
1a0002d4:	ffff ffff 			; <UNDEFINED> instruction: 0xffffffff
1a0002d8:	ffff ffff 			; <UNDEFINED> instruction: 0xffffffff
1a0002dc:	ffff ffff 			; <UNDEFINED> instruction: 0xffffffff
1a0002e0:	ffff ffff 			; <UNDEFINED> instruction: 0xffffffff
1a0002e4:	ffff ffff 			; <UNDEFINED> instruction: 0xffffffff
1a0002e8:	ffff ffff 			; <UNDEFINED> instruction: 0xffffffff
1a0002ec:	ffff ffff 			; <UNDEFINED> instruction: 0xffffffff
1a0002f0:	ffff ffff 			; <UNDEFINED> instruction: 0xffffffff
1a0002f4:	ffff ffff 			; <UNDEFINED> instruction: 0xffffffff
1a0002f8:	ffff ffff 			; <UNDEFINED> instruction: 0xffffffff

1a0002fc <CRP_WORD>:
1a0002fc:	ffff ffff                                   ....

1a000300 <relay_off>:
int relay_change() {
   return (relay_previous==relay_status);
}

void relay_off() {
   relay_status=ON;        // apagar relay
1a000300:	4b01      	ldr	r3, [pc, #4]	; (1a000308 <relay_off+0x8>)
1a000302:	2201      	movs	r2, #1
1a000304:	601a      	str	r2, [r3, #0]
}
1a000306:	4770      	bx	lr
1a000308:	10000004 	.word	0x10000004

1a00030c <relay_on>:

void relay_on() {
   relay_status=OFF;       // encender relay
1a00030c:	4b01      	ldr	r3, [pc, #4]	; (1a000314 <relay_on+0x8>)
1a00030e:	2200      	movs	r2, #0
1a000310:	601a      	str	r2, [r3, #0]
}
1a000312:	4770      	bx	lr
1a000314:	10000004 	.word	0x10000004

1a000318 <relay_toggle>:

void relay_toggle() {
1a000318:	b508      	push	{r3, lr}
   relay_previous=relay_status;           // actualizar estado
1a00031a:	4b05      	ldr	r3, [pc, #20]	; (1a000330 <relay_toggle+0x18>)
1a00031c:	6819      	ldr	r1, [r3, #0]
1a00031e:	4b05      	ldr	r3, [pc, #20]	; (1a000334 <relay_toggle+0x1c>)
1a000320:	6019      	str	r1, [r3, #0]
   gpioWrite(RELAY_OUT,!relay_status);    // conmutar relay
1a000322:	fab1 f181 	clz	r1, r1
1a000326:	0949      	lsrs	r1, r1, #5
1a000328:	2010      	movs	r0, #16
1a00032a:	f001 fce9 	bl	1a001d00 <gpioWrite>
   //printf("*********************************************************** RELAY : %d *\n",relay_status);    // debug
}
1a00032e:	bd08      	pop	{r3, pc}
1a000330:	10000004 	.word	0x10000004
1a000334:	10000000 	.word	0x10000000

1a000338 <toggle_read>:

int toggle_read() {
1a000338:	b508      	push	{r3, lr}
   if (!gpioRead(TOGGLE_IN)) toggle_status=!toggle_status;  // leer la entrada de control
1a00033a:	200f      	movs	r0, #15
1a00033c:	f001 fd0b 	bl	1a001d56 <gpioRead>
1a000340:	b928      	cbnz	r0, 1a00034e <toggle_read+0x16>
1a000342:	4a0a      	ldr	r2, [pc, #40]	; (1a00036c <toggle_read+0x34>)
1a000344:	6813      	ldr	r3, [r2, #0]
1a000346:	fab3 f383 	clz	r3, r3
1a00034a:	095b      	lsrs	r3, r3, #5
1a00034c:	6013      	str	r3, [r2, #0]
      
   //DEBUG
   if(toggle_status)
1a00034e:	4b07      	ldr	r3, [pc, #28]	; (1a00036c <toggle_read+0x34>)
1a000350:	681b      	ldr	r3, [r3, #0]
1a000352:	b133      	cbz	r3, 1a000362 <toggle_read+0x2a>
      gpioWrite(RELAY_ST_OUT,ON);
1a000354:	2101      	movs	r1, #1
1a000356:	2028      	movs	r0, #40	; 0x28
1a000358:	f001 fcd2 	bl	1a001d00 <gpioWrite>
   else
      gpioWrite(RELAY_ST_OUT, OFF);
   
   //printf("* TOGGLE %d *\n",toggle_status);  // debug
   return toggle_status;                                    // y devolver el resultado
}
1a00035c:	4b03      	ldr	r3, [pc, #12]	; (1a00036c <toggle_read+0x34>)
1a00035e:	6818      	ldr	r0, [r3, #0]
1a000360:	bd08      	pop	{r3, pc}
      gpioWrite(RELAY_ST_OUT, OFF);
1a000362:	2100      	movs	r1, #0
1a000364:	2028      	movs	r0, #40	; 0x28
1a000366:	f001 fccb 	bl	1a001d00 <gpioWrite>
1a00036a:	e7f7      	b.n	1a00035c <toggle_read+0x24>
1a00036c:	100002c4 	.word	0x100002c4

1a000370 <led_bright>:

void led_bright(int b) {                     // dar brillo al LED   
1a000370:	b538      	push	{r3, r4, r5, lr}
1a000372:	4604      	mov	r4, r0
   gpioWrite(LED_ST_OUT, led_status);     // debug
1a000374:	4d1e      	ldr	r5, [pc, #120]	; (1a0003f0 <led_bright+0x80>)
1a000376:	7829      	ldrb	r1, [r5, #0]
1a000378:	202a      	movs	r0, #42	; 0x2a
1a00037a:	f001 fcc1 	bl	1a001d00 <gpioWrite>
   if (led_status) {
1a00037e:	682b      	ldr	r3, [r5, #0]
1a000380:	b163      	cbz	r3, 1a00039c <led_bright+0x2c>
            512.. 767 = 51% -  75% = 128..191
            768..1023 = 76% - 100% = 192..255
      */
      if(!led_status)
         pwmWrite(LED_OUT,0);
      if ((b >= 0) && (b <= 255))           // 0..25 %
1a000382:	2cff      	cmp	r4, #255	; 0xff
1a000384:	d80d      	bhi.n	1a0003a2 <led_bright+0x32>
         valor_pwm = b/4;
1a000386:	4623      	mov	r3, r4
1a000388:	2c00      	cmp	r4, #0
1a00038a:	db08      	blt.n	1a00039e <led_bright+0x2e>
1a00038c:	109b      	asrs	r3, r3, #2
1a00038e:	4a19      	ldr	r2, [pc, #100]	; (1a0003f4 <led_bright+0x84>)
1a000390:	7013      	strb	r3, [r2, #0]
      else if ((b >= 512) && (b <= 767))    // 51..75 %
         valor_pwm = 128 + b/12;
      else                                   // 76..100 %
         valor_pwm = 192 + b/16;
      
      pwmWrite(LED_OUT,valor_pwm);
1a000392:	4b18      	ldr	r3, [pc, #96]	; (1a0003f4 <led_bright+0x84>)
1a000394:	7819      	ldrb	r1, [r3, #0]
1a000396:	2002      	movs	r0, #2
1a000398:	f001 ff64 	bl	1a002264 <pwmWrite>
      
      //dacWrite(LED_OUT, b);
      //printf("* POT    %d *\n",b);     // debug
   } //else printf("* POT    OFF *\n");  // debug
}
1a00039c:	bd38      	pop	{r3, r4, r5, pc}
         valor_pwm = b/4;
1a00039e:	1ce3      	adds	r3, r4, #3
1a0003a0:	e7f4      	b.n	1a00038c <led_bright+0x1c>
      else if ((b >= 256) && (b <= 511))    // 26..50 %
1a0003a2:	f5a4 7380 	sub.w	r3, r4, #256	; 0x100
1a0003a6:	2bff      	cmp	r3, #255	; 0xff
1a0003a8:	d809      	bhi.n	1a0003be <led_bright+0x4e>
         valor_pwm = 65 + b/8;
1a0003aa:	4623      	mov	r3, r4
1a0003ac:	2c00      	cmp	r4, #0
1a0003ae:	db04      	blt.n	1a0003ba <led_bright+0x4a>
1a0003b0:	10db      	asrs	r3, r3, #3
1a0003b2:	3341      	adds	r3, #65	; 0x41
1a0003b4:	4a0f      	ldr	r2, [pc, #60]	; (1a0003f4 <led_bright+0x84>)
1a0003b6:	7013      	strb	r3, [r2, #0]
1a0003b8:	e7eb      	b.n	1a000392 <led_bright+0x22>
1a0003ba:	1de3      	adds	r3, r4, #7
1a0003bc:	e7f8      	b.n	1a0003b0 <led_bright+0x40>
      else if ((b >= 512) && (b <= 767))    // 51..75 %
1a0003be:	f5a4 7300 	sub.w	r3, r4, #512	; 0x200
1a0003c2:	2bff      	cmp	r3, #255	; 0xff
1a0003c4:	d809      	bhi.n	1a0003da <led_bright+0x6a>
         valor_pwm = 128 + b/12;
1a0003c6:	4a0c      	ldr	r2, [pc, #48]	; (1a0003f8 <led_bright+0x88>)
1a0003c8:	fb82 3204 	smull	r3, r2, r2, r4
1a0003cc:	17e3      	asrs	r3, r4, #31
1a0003ce:	ebc3 0362 	rsb	r3, r3, r2, asr #1
1a0003d2:	3b80      	subs	r3, #128	; 0x80
1a0003d4:	4a07      	ldr	r2, [pc, #28]	; (1a0003f4 <led_bright+0x84>)
1a0003d6:	7013      	strb	r3, [r2, #0]
1a0003d8:	e7db      	b.n	1a000392 <led_bright+0x22>
         valor_pwm = 192 + b/16;
1a0003da:	4623      	mov	r3, r4
1a0003dc:	2c00      	cmp	r4, #0
1a0003de:	db04      	blt.n	1a0003ea <led_bright+0x7a>
1a0003e0:	111b      	asrs	r3, r3, #4
1a0003e2:	3b40      	subs	r3, #64	; 0x40
1a0003e4:	4a03      	ldr	r2, [pc, #12]	; (1a0003f4 <led_bright+0x84>)
1a0003e6:	7013      	strb	r3, [r2, #0]
1a0003e8:	e7d3      	b.n	1a000392 <led_bright+0x22>
1a0003ea:	f104 030f 	add.w	r3, r4, #15
1a0003ee:	e7f7      	b.n	1a0003e0 <led_bright+0x70>
1a0003f0:	100002c0 	.word	0x100002c0
1a0003f4:	100002c8 	.word	0x100002c8
1a0003f8:	2aaaaaab 	.word	0x2aaaaaab

1a0003fc <led_on>:
void led_on()
{
   led_status=ON;
1a0003fc:	4b01      	ldr	r3, [pc, #4]	; (1a000404 <led_on+0x8>)
1a0003fe:	2201      	movs	r2, #1
1a000400:	601a      	str	r2, [r3, #0]
}
1a000402:	4770      	bx	lr
1a000404:	100002c0 	.word	0x100002c0

1a000408 <led_off>:
void led_off()
{
1a000408:	b508      	push	{r3, lr}
   led_status=OFF;
1a00040a:	2100      	movs	r1, #0
1a00040c:	4b02      	ldr	r3, [pc, #8]	; (1a000418 <led_off+0x10>)
1a00040e:	6019      	str	r1, [r3, #0]
   pwmWrite(LED_OUT,0);
1a000410:	2002      	movs	r0, #2
1a000412:	f001 ff27 	bl	1a002264 <pwmWrite>
}
1a000416:	bd08      	pop	{r3, pc}
1a000418:	100002c0 	.word	0x100002c0

1a00041c <led_toggle>:
void led_toggle() {
1a00041c:	b508      	push	{r3, lr}
   if (!gpioRead(LED_TOGGLE)) led_status=!led_status;       // leer entrada de control y actualizar el estado del led
1a00041e:	200e      	movs	r0, #14
1a000420:	f001 fc99 	bl	1a001d56 <gpioRead>
1a000424:	b928      	cbnz	r0, 1a000432 <led_toggle+0x16>
1a000426:	4a09      	ldr	r2, [pc, #36]	; (1a00044c <led_toggle+0x30>)
1a000428:	6813      	ldr	r3, [r2, #0]
1a00042a:	fab3 f383 	clz	r3, r3
1a00042e:	095b      	lsrs	r3, r3, #5
1a000430:	6013      	str	r3, [r2, #0]
      
   //DEBUG
   if(led_status)
1a000432:	4b06      	ldr	r3, [pc, #24]	; (1a00044c <led_toggle+0x30>)
1a000434:	681b      	ldr	r3, [r3, #0]
1a000436:	b123      	cbz	r3, 1a000442 <led_toggle+0x26>
      gpioWrite(LED_ST_OUT,ON);
1a000438:	2101      	movs	r1, #1
1a00043a:	202a      	movs	r0, #42	; 0x2a
1a00043c:	f001 fc60 	bl	1a001d00 <gpioWrite>
   else
      gpioWrite(LED_ST_OUT, OFF);
}
1a000440:	bd08      	pop	{r3, pc}
      gpioWrite(LED_ST_OUT, OFF);
1a000442:	2100      	movs	r1, #0
1a000444:	202a      	movs	r0, #42	; 0x2a
1a000446:	f001 fc5b 	bl	1a001d00 <gpioWrite>
}
1a00044a:	e7f9      	b.n	1a000440 <led_toggle+0x24>
1a00044c:	100002c0 	.word	0x100002c0

1a000450 <pot_read>:

int pot_read() {                             // leer potenciometro y devolver el valor
1a000450:	b508      	push	{r3, lr}
   return adcRead(POT_IN);
1a000452:	2040      	movs	r0, #64	; 0x40
1a000454:	f001 fcf0 	bl	1a001e38 <adcRead>
1a000458:	bd08      	pop	{r3, pc}
1a00045a:	Address 0x1a00045a is out of bounds.


1a00045c <luz_1>:
}
static cJSON *json;
static char uartBuff[10];
uint16_t i;

int luz_1(){
1a00045c:	b508      	push	{r3, lr}
   cJSON *luz_1 = NULL;
   luz_1 = cJSON_GetObjectItemCaseSensitive(json, "luz_1");
1a00045e:	4906      	ldr	r1, [pc, #24]	; (1a000478 <luz_1+0x1c>)
1a000460:	4b06      	ldr	r3, [pc, #24]	; (1a00047c <luz_1+0x20>)
1a000462:	6818      	ldr	r0, [r3, #0]
1a000464:	f001 f9e0 	bl	1a001828 <cJSON_GetObjectItemCaseSensitive>
   if(cJSON_IsTrue(luz_1)) return 1; else return 0;
1a000468:	f001 f9e3 	bl	1a001832 <cJSON_IsTrue>
1a00046c:	b108      	cbz	r0, 1a000472 <luz_1+0x16>
1a00046e:	2001      	movs	r0, #1

}
1a000470:	bd08      	pop	{r3, pc}
   if(cJSON_IsTrue(luz_1)) return 1; else return 0;
1a000472:	2000      	movs	r0, #0
1a000474:	e7fc      	b.n	1a000470 <luz_1+0x14>
1a000476:	bf00      	nop
1a000478:	1a0078e8 	.word	0x1a0078e8
1a00047c:	100002cc 	.word	0x100002cc

1a000480 <led>:
int led(){
1a000480:	b508      	push	{r3, lr}
   cJSON *led = NULL;
   led = cJSON_GetObjectItemCaseSensitive(json, "led");
1a000482:	4906      	ldr	r1, [pc, #24]	; (1a00049c <led+0x1c>)
1a000484:	4b06      	ldr	r3, [pc, #24]	; (1a0004a0 <led+0x20>)
1a000486:	6818      	ldr	r0, [r3, #0]
1a000488:	f001 f9ce 	bl	1a001828 <cJSON_GetObjectItemCaseSensitive>
   if(cJSON_IsTrue(led)) return 1; else return 0;
1a00048c:	f001 f9d1 	bl	1a001832 <cJSON_IsTrue>
1a000490:	b108      	cbz	r0, 1a000496 <led+0x16>
1a000492:	2001      	movs	r0, #1

}
1a000494:	bd08      	pop	{r3, pc}
   if(cJSON_IsTrue(led)) return 1; else return 0;
1a000496:	2000      	movs	r0, #0
1a000498:	e7fc      	b.n	1a000494 <led+0x14>
1a00049a:	bf00      	nop
1a00049c:	1a0078e4 	.word	0x1a0078e4
1a0004a0:	100002cc 	.word	0x100002cc

1a0004a4 <sensor_luminosidad>:
int sensor_luminosidad(){
1a0004a4:	b508      	push	{r3, lr}
   cJSON *sensor_luminosidad = NULL;
   sensor_luminosidad = cJSON_GetObjectItemCaseSensitive(json, "sensor_luminosidad");
1a0004a6:	4906      	ldr	r1, [pc, #24]	; (1a0004c0 <sensor_luminosidad+0x1c>)
1a0004a8:	4b06      	ldr	r3, [pc, #24]	; (1a0004c4 <sensor_luminosidad+0x20>)
1a0004aa:	6818      	ldr	r0, [r3, #0]
1a0004ac:	f001 f9bc 	bl	1a001828 <cJSON_GetObjectItemCaseSensitive>
   if(cJSON_IsTrue(sensor_luminosidad)) return 1; else return 0;
1a0004b0:	f001 f9bf 	bl	1a001832 <cJSON_IsTrue>
1a0004b4:	b108      	cbz	r0, 1a0004ba <sensor_luminosidad+0x16>
1a0004b6:	2001      	movs	r0, #1

}
1a0004b8:	bd08      	pop	{r3, pc}
   if(cJSON_IsTrue(sensor_luminosidad)) return 1; else return 0;
1a0004ba:	2000      	movs	r0, #0
1a0004bc:	e7fc      	b.n	1a0004b8 <sensor_luminosidad+0x14>
1a0004be:	bf00      	nop
1a0004c0:	1a0078f0 	.word	0x1a0078f0
1a0004c4:	100002cc 	.word	0x100002cc

1a0004c8 <sensor_movimiento>:
int sensor_movimiento(){
1a0004c8:	b508      	push	{r3, lr}
   cJSON *sensor_movimiento = NULL;
   sensor_movimiento = cJSON_GetObjectItemCaseSensitive(json, "sensor_movimiento");
1a0004ca:	4906      	ldr	r1, [pc, #24]	; (1a0004e4 <sensor_movimiento+0x1c>)
1a0004cc:	4b06      	ldr	r3, [pc, #24]	; (1a0004e8 <sensor_movimiento+0x20>)
1a0004ce:	6818      	ldr	r0, [r3, #0]
1a0004d0:	f001 f9aa 	bl	1a001828 <cJSON_GetObjectItemCaseSensitive>
   if(cJSON_IsTrue(sensor_movimiento)) return 1; else return 0;
1a0004d4:	f001 f9ad 	bl	1a001832 <cJSON_IsTrue>
1a0004d8:	b108      	cbz	r0, 1a0004de <sensor_movimiento+0x16>
1a0004da:	2001      	movs	r0, #1

}
1a0004dc:	bd08      	pop	{r3, pc}
   if(cJSON_IsTrue(sensor_movimiento)) return 1; else return 0;
1a0004de:	2000      	movs	r0, #0
1a0004e0:	e7fc      	b.n	1a0004dc <sensor_movimiento+0x14>
1a0004e2:	bf00      	nop
1a0004e4:	1a007904 	.word	0x1a007904
1a0004e8:	100002cc 	.word	0x100002cc

1a0004ec <intensidad>:
int intensidad(){
1a0004ec:	b508      	push	{r3, lr}
   cJSON *intensidad = NULL;
   intensidad = cJSON_GetObjectItemCaseSensitive(json, "sensor_intensidad");
1a0004ee:	4906      	ldr	r1, [pc, #24]	; (1a000508 <intensidad+0x1c>)
1a0004f0:	4b06      	ldr	r3, [pc, #24]	; (1a00050c <intensidad+0x20>)
1a0004f2:	6818      	ldr	r0, [r3, #0]
1a0004f4:	f001 f998 	bl	1a001828 <cJSON_GetObjectItemCaseSensitive>
   int a = cJSON_GetNumberValue(intensidad);
1a0004f8:	f001 f9ae 	bl	1a001858 <cJSON_GetNumberValue>
1a0004fc:	ec51 0b10 	vmov	r0, r1, d0
1a000500:	f003 fcd4 	bl	1a003eac <__aeabi_d2iz>
   return a;

}
1a000504:	bd08      	pop	{r3, pc}
1a000506:	bf00      	nop
1a000508:	1a0078d0 	.word	0x1a0078d0
1a00050c:	100002cc 	.word	0x100002cc

1a000510 <leerJson>:
#define JSON_MAX_SIZE 150
uint8_t dato;
int leerJson(){
1a000510:	b538      	push	{r3, r4, r5, lr}
   
   char* palabra =  (char *) malloc(150 * sizeof(char));  
1a000512:	2096      	movs	r0, #150	; 0x96
1a000514:	f003 feb8 	bl	1a004288 <malloc>
1a000518:	4604      	mov	r4, r0

   i = 0;
1a00051a:	4b1a      	ldr	r3, [pc, #104]	; (1a000584 <leerJson+0x74>)
1a00051c:	2200      	movs	r2, #0
1a00051e:	801a      	strh	r2, [r3, #0]
   //Leo json de la uart
   while( (i < JSON_MAX_SIZE) && (dato != '\n')){
1a000520:	4b18      	ldr	r3, [pc, #96]	; (1a000584 <leerJson+0x74>)
1a000522:	881b      	ldrh	r3, [r3, #0]
1a000524:	2b95      	cmp	r3, #149	; 0x95
1a000526:	d812      	bhi.n	1a00054e <leerJson+0x3e>
1a000528:	4a17      	ldr	r2, [pc, #92]	; (1a000588 <leerJson+0x78>)
1a00052a:	7812      	ldrb	r2, [r2, #0]
1a00052c:	2a0a      	cmp	r2, #10
1a00052e:	d00e      	beq.n	1a00054e <leerJson+0x3e>
      if(uartReadByte( UART_232, &dato)){
1a000530:	4915      	ldr	r1, [pc, #84]	; (1a000588 <leerJson+0x78>)
1a000532:	2005      	movs	r0, #5
1a000534:	f001 fe54 	bl	1a0021e0 <uartReadByte>
1a000538:	2800      	cmp	r0, #0
1a00053a:	d0f1      	beq.n	1a000520 <leerJson+0x10>
         palabra[i]=dato;
1a00053c:	4b11      	ldr	r3, [pc, #68]	; (1a000584 <leerJson+0x74>)
1a00053e:	881a      	ldrh	r2, [r3, #0]
1a000540:	4911      	ldr	r1, [pc, #68]	; (1a000588 <leerJson+0x78>)
1a000542:	7809      	ldrb	r1, [r1, #0]
1a000544:	54a1      	strb	r1, [r4, r2]
         //uartWriteByte( UART_USB, dato );
         i++;
1a000546:	881a      	ldrh	r2, [r3, #0]
1a000548:	3201      	adds	r2, #1
1a00054a:	801a      	strh	r2, [r3, #0]
1a00054c:	e7e8      	b.n	1a000520 <leerJson+0x10>
      }
   }
   
   //Verificacin de error
   if((i < JSON_MAX_SIZE)){
1a00054e:	2b95      	cmp	r3, #149	; 0x95
1a000550:	d813      	bhi.n	1a00057a <leerJson+0x6a>
      palabra[i-1]='\0';
1a000552:	3b01      	subs	r3, #1
1a000554:	2200      	movs	r2, #0
1a000556:	54e2      	strb	r2, [r4, r3]
      cJSON_Delete(json);
1a000558:	4d0c      	ldr	r5, [pc, #48]	; (1a00058c <leerJson+0x7c>)
1a00055a:	6828      	ldr	r0, [r5, #0]
1a00055c:	f000 ff26 	bl	1a0013ac <cJSON_Delete>
      json = cJSON_Parse(palabra);
1a000560:	4620      	mov	r0, r4
1a000562:	f001 f953 	bl	1a00180c <cJSON_Parse>
1a000566:	6028      	str	r0, [r5, #0]
      
      const char *error_ptr = cJSON_GetErrorPtr();
1a000568:	f000 ff18 	bl	1a00139c <cJSON_GetErrorPtr>
      if ((error_ptr != NULL || json != NULL)){
1a00056c:	b908      	cbnz	r0, 1a000572 <leerJson+0x62>
1a00056e:	682b      	ldr	r3, [r5, #0]
1a000570:	b11b      	cbz	r3, 1a00057a <leerJson+0x6a>
         free(palabra);  
1a000572:	4620      	mov	r0, r4
1a000574:	f003 fe90 	bl	1a004298 <free>
         return 0;
1a000578:	e002      	b.n	1a000580 <leerJson+0x70>
      }
   }
   free(palabra);  
1a00057a:	4620      	mov	r0, r4
1a00057c:	f003 fe8c 	bl	1a004298 <free>
   //En caso de error retorno false
   return 0;
}
1a000580:	2000      	movs	r0, #0
1a000582:	bd38      	pop	{r3, r4, r5, pc}
1a000584:	1000030c 	.word	0x1000030c
1a000588:	1000030e 	.word	0x1000030e
1a00058c:	100002cc 	.word	0x100002cc

1a000590 <imprimirJson>:

int imprimirJson(){
1a000590:	b510      	push	{r4, lr}
   char *string = cJSON_Print(json);
1a000592:	4b07      	ldr	r3, [pc, #28]	; (1a0005b0 <imprimirJson+0x20>)
1a000594:	6818      	ldr	r0, [r3, #0]
1a000596:	f001 f93f 	bl	1a001818 <cJSON_Print>
1a00059a:	4604      	mov	r4, r0
   uartWriteString( UART_USB,  string);
1a00059c:	4601      	mov	r1, r0
1a00059e:	2003      	movs	r0, #3
1a0005a0:	f001 fe3a 	bl	1a002218 <uartWriteString>
   free(string);
1a0005a4:	4620      	mov	r0, r4
1a0005a6:	f003 fe77 	bl	1a004298 <free>
   return 1;
}
1a0005aa:	2001      	movs	r0, #1
1a0005ac:	bd10      	pop	{r4, pc}
1a0005ae:	bf00      	nop
1a0005b0:	100002cc 	.word	0x100002cc

1a0005b4 <wifiSetup>:

int wifiSetup(){
1a0005b4:	b530      	push	{r4, r5, lr}
1a0005b6:	b087      	sub	sp, #28
   // ------------- INICIALIZACIONES -------------

   // Inicializar UART_USB a 115200 baudios
   uartConfig( UART_USB, 9600 );
1a0005b8:	f44f 5116 	mov.w	r1, #9600	; 0x2580
1a0005bc:	2003      	movs	r0, #3
1a0005be:	f001 fdd1 	bl	1a002164 <uartInit>
   // Inicializar UART_USB a 115200 baudios
   uartConfig( UART_232, 9600 );
1a0005c2:	f44f 5116 	mov.w	r1, #9600	; 0x2580
1a0005c6:	2005      	movs	r0, #5
1a0005c8:	f001 fdcc 	bl	1a002164 <uartInit>
   
   char miTexto[] = "Setup wifi config...\r\n";
1a0005cc:	466c      	mov	r4, sp
1a0005ce:	4d0a      	ldr	r5, [pc, #40]	; (1a0005f8 <wifiSetup+0x44>)
1a0005d0:	cd0f      	ldmia	r5!, {r0, r1, r2, r3}
1a0005d2:	c40f      	stmia	r4!, {r0, r1, r2, r3}
1a0005d4:	e895 0003 	ldmia.w	r5, {r0, r1}
1a0005d8:	f844 0b04 	str.w	r0, [r4], #4
1a0005dc:	f824 1b02 	strh.w	r1, [r4], #2
1a0005e0:	0c09      	lsrs	r1, r1, #16
1a0005e2:	7021      	strb	r1, [r4, #0]
   uartWriteString( UART_USB, miTexto ); 
1a0005e4:	4669      	mov	r1, sp
1a0005e6:	2003      	movs	r0, #3
1a0005e8:	f001 fe16 	bl	1a002218 <uartWriteString>
   uartWriteString( UART_USB, "\r\n" );
1a0005ec:	4903      	ldr	r1, [pc, #12]	; (1a0005fc <wifiSetup+0x48>)
1a0005ee:	2003      	movs	r0, #3
1a0005f0:	f001 fe12 	bl	1a002218 <uartWriteString>
}
1a0005f4:	b007      	add	sp, #28
1a0005f6:	bd30      	pop	{r4, r5, pc}
1a0005f8:	1a007918 	.word	0x1a007918
1a0005fc:	1a00792c 	.word	0x1a00792c

1a000600 <puertos_init>:
      INICIALIZA PUERTOS I/O DIGITALES
      INICIALIZA PERIFERICO ADC
      INICIALIZA PERIFERICO PWM
*/

void puertos_init() {
1a000600:	b508      	push	{r3, lr}
   int valor;     // valor "de descarte" devuelto por pwmConfig()
   
   /*
      INICIALIZAR LOS PUERTOS DIGITALES A UTILIZAR
   */
   gpioInit(RELAY_OUT,  GPIO_OUTPUT);     // salida RELAY
1a000602:	2101      	movs	r1, #1
1a000604:	2010      	movs	r0, #16
1a000606:	f001 fab1 	bl	1a001b6c <gpioInit>
   
   gpioInit(TOGGLE_IN,  GPIO_INPUT);      // entrada toggle  RELAY
1a00060a:	2100      	movs	r1, #0
1a00060c:	200f      	movs	r0, #15
1a00060e:	f001 faad 	bl	1a001b6c <gpioInit>
   gpioInit(LED_TOGGLE, GPIO_INPUT);      // entrada toggle  LED
1a000612:	2100      	movs	r1, #0
1a000614:	200e      	movs	r0, #14
1a000616:	f001 faa9 	bl	1a001b6c <gpioInit>
   gpioInit(RELAY_ST_OUT,GPIO_OUTPUT);     // salida  estado  RELAY
1a00061a:	2101      	movs	r1, #1
1a00061c:	2028      	movs	r0, #40	; 0x28
1a00061e:	f001 faa5 	bl	1a001b6c <gpioInit>
   gpioInit(LED_ST_OUT,GPIO_OUTPUT);     // salida  estado  LED
1a000622:	2101      	movs	r1, #1
1a000624:	202a      	movs	r0, #42	; 0x2a
1a000626:	f001 faa1 	bl	1a001b6c <gpioInit>
   
   gpioInit(PIR_IN,     GPIO_INPUT);      // entrada sensor  PIR
1a00062a:	2100      	movs	r1, #0
1a00062c:	2011      	movs	r0, #17
1a00062e:	f001 fa9d 	bl	1a001b6c <gpioInit>
   gpioInit(PIR_ENABLE, GPIO_INPUT);      // entrada control PIR
1a000632:	2100      	movs	r1, #0
1a000634:	200c      	movs	r0, #12
1a000636:	f001 fa99 	bl	1a001b6c <gpioInit>
   gpioInit(PIR_ST_OUT, GPIO_OUTPUT);     // salida  estado  PIR
1a00063a:	2101      	movs	r1, #1
1a00063c:	202b      	movs	r0, #43	; 0x2b
1a00063e:	f001 fa95 	bl	1a001b6c <gpioInit>
   
   gpioInit(LUX_ST_OUT, GPIO_OUTPUT);     // salida  estado  LUX
1a000642:	2101      	movs	r1, #1
1a000644:	202c      	movs	r0, #44	; 0x2c
1a000646:	f001 fa91 	bl	1a001b6c <gpioInit>
   gpioInit(LUX_ENABLE, GPIO_INPUT);      // entrada control LUX
1a00064a:	2100      	movs	r1, #0
1a00064c:	200b      	movs	r0, #11
1a00064e:	f001 fa8d 	bl	1a001b6c <gpioInit>
   
   gpioInit(MODE_ST_OUT,GPIO_OUTPUT);     // salida  estado  modo
1a000652:	2101      	movs	r1, #1
1a000654:	202d      	movs	r0, #45	; 0x2d
1a000656:	f001 fa89 	bl	1a001b6c <gpioInit>
   gpioInit(MODE_TOGGLE,GPIO_INPUT);      // entrada control modo
1a00065a:	2100      	movs	r1, #0
1a00065c:	200d      	movs	r0, #13
1a00065e:	f001 fa85 	bl	1a001b6c <gpioInit>
   
   /*
      INICIALIZAR PERIFERICOS ANALOGICOS USADOS: ADC Y PWM
   */
   adcConfig(ADC_ENABLE);                          // habilitar ADC
1a000662:	2000      	movs	r0, #0
1a000664:	f001 fba2 	bl	1a001dac <adcInit>
   
   valor = pwmConfig(0, PWM_ENABLE);               // Configurar PWM
1a000668:	2100      	movs	r1, #0
1a00066a:	4608      	mov	r0, r1
1a00066c:	f001 fe34 	bl	1a0022d8 <pwmInit>
   valor = pwmConfig(LED_OUT, PWM_ENABLE_OUTPUT);  // salida de LED
1a000670:	2102      	movs	r1, #2
1a000672:	4608      	mov	r0, r1
1a000674:	f001 fe30 	bl	1a0022d8 <pwmInit>
1a000678:	bd08      	pop	{r3, pc}
1a00067a:	Address 0x1a00067a is out of bounds.


1a00067c <case_insensitive_strcmp>:
}

/* Case insensitive string comparison, doesn't consider two NULL pointers equal though */
static int case_insensitive_strcmp(const unsigned char *string1, const unsigned char *string2)
{
    if ((string1 == NULL) || (string2 == NULL))
1a00067c:	b310      	cbz	r0, 1a0006c4 <case_insensitive_strcmp+0x48>
{
1a00067e:	b430      	push	{r4, r5}
1a000680:	4604      	mov	r4, r0
    if ((string1 == NULL) || (string2 == NULL))
1a000682:	b309      	cbz	r1, 1a0006c8 <case_insensitive_strcmp+0x4c>
    {
        return 1;
    }

    if (string1 == string2)
1a000684:	4288      	cmp	r0, r1
1a000686:	d109      	bne.n	1a00069c <case_insensitive_strcmp+0x20>
    {
        return 0;
1a000688:	2000      	movs	r0, #0
1a00068a:	e019      	b.n	1a0006c0 <case_insensitive_strcmp+0x44>
    }

    for(; tolower(*string1) == tolower(*string2); (void)string1++, string2++)
1a00068c:	f102 0520 	add.w	r5, r2, #32
1a000690:	e00c      	b.n	1a0006ac <case_insensitive_strcmp+0x30>
1a000692:	4285      	cmp	r5, r0
1a000694:	d113      	bne.n	1a0006be <case_insensitive_strcmp+0x42>
    {
        if (*string1 == '\0')
1a000696:	b1ca      	cbz	r2, 1a0006cc <case_insensitive_strcmp+0x50>
    for(; tolower(*string1) == tolower(*string2); (void)string1++, string2++)
1a000698:	3401      	adds	r4, #1
1a00069a:	3101      	adds	r1, #1
1a00069c:	7822      	ldrb	r2, [r4, #0]
1a00069e:	4b0c      	ldr	r3, [pc, #48]	; (1a0006d0 <case_insensitive_strcmp+0x54>)
1a0006a0:	5cd3      	ldrb	r3, [r2, r3]
1a0006a2:	f003 0303 	and.w	r3, r3, #3
1a0006a6:	2b01      	cmp	r3, #1
1a0006a8:	d0f0      	beq.n	1a00068c <case_insensitive_strcmp+0x10>
1a0006aa:	4615      	mov	r5, r2
1a0006ac:	7808      	ldrb	r0, [r1, #0]
1a0006ae:	4b08      	ldr	r3, [pc, #32]	; (1a0006d0 <case_insensitive_strcmp+0x54>)
1a0006b0:	5cc3      	ldrb	r3, [r0, r3]
1a0006b2:	f003 0303 	and.w	r3, r3, #3
1a0006b6:	2b01      	cmp	r3, #1
1a0006b8:	d1eb      	bne.n	1a000692 <case_insensitive_strcmp+0x16>
1a0006ba:	3020      	adds	r0, #32
1a0006bc:	e7e9      	b.n	1a000692 <case_insensitive_strcmp+0x16>
        {
            return 0;
        }
    }

    return tolower(*string1) - tolower(*string2);
1a0006be:	1a28      	subs	r0, r5, r0
}
1a0006c0:	bc30      	pop	{r4, r5}
1a0006c2:	4770      	bx	lr
        return 1;
1a0006c4:	2001      	movs	r0, #1
}
1a0006c6:	4770      	bx	lr
        return 1;
1a0006c8:	2001      	movs	r0, #1
1a0006ca:	e7f9      	b.n	1a0006c0 <case_insensitive_strcmp+0x44>
            return 0;
1a0006cc:	2000      	movs	r0, #0
1a0006ce:	e7f7      	b.n	1a0006c0 <case_insensitive_strcmp+0x44>
1a0006d0:	1a007ca5 	.word	0x1a007ca5

1a0006d4 <get_decimal_point>:
    struct lconv *lconv = localeconv();
    return (unsigned char) lconv->decimal_point[0];
#else
    return '.';
#endif
}
1a0006d4:	202e      	movs	r0, #46	; 0x2e
1a0006d6:	4770      	bx	lr

1a0006d8 <compare_double>:
    buffer->offset += strlen((const char*)buffer_pointer);
}

/* securely comparison of floating-point variables */
static cJSON_bool compare_double(double a, double b)
{
1a0006d8:	e92d 4ff8 	stmdb	sp!, {r3, r4, r5, r6, r7, r8, r9, sl, fp, lr}
1a0006dc:	4606      	mov	r6, r0
1a0006de:	460f      	mov	r7, r1
1a0006e0:	4690      	mov	r8, r2
1a0006e2:	4699      	mov	r9, r3
    double maxVal = fabs(a) > fabs(b) ? fabs(a) : fabs(b);
1a0006e4:	f021 4500 	bic.w	r5, r1, #2147483648	; 0x80000000
1a0006e8:	4692      	mov	sl, r2
1a0006ea:	f023 4b00 	bic.w	fp, r3, #2147483648	; 0x80000000
1a0006ee:	465b      	mov	r3, fp
1a0006f0:	4629      	mov	r1, r5
1a0006f2:	f003 fbbb 	bl	1a003e6c <__aeabi_dcmpgt>
1a0006f6:	b108      	cbz	r0, 1a0006fc <compare_double+0x24>
1a0006f8:	46b2      	mov	sl, r6
1a0006fa:	46ab      	mov	fp, r5
    return (fabs(a - b) <= maxVal * DBL_EPSILON);
1a0006fc:	4642      	mov	r2, r8
1a0006fe:	464b      	mov	r3, r9
1a000700:	4630      	mov	r0, r6
1a000702:	4639      	mov	r1, r7
1a000704:	f002 ff6a 	bl	1a0035dc <__aeabi_dsub>
1a000708:	4604      	mov	r4, r0
1a00070a:	f021 4500 	bic.w	r5, r1, #2147483648	; 0x80000000
1a00070e:	2200      	movs	r2, #0
1a000710:	4b08      	ldr	r3, [pc, #32]	; (1a000734 <compare_double+0x5c>)
1a000712:	4650      	mov	r0, sl
1a000714:	4659      	mov	r1, fp
1a000716:	f003 f919 	bl	1a00394c <__aeabi_dmul>
1a00071a:	2601      	movs	r6, #1
1a00071c:	4602      	mov	r2, r0
1a00071e:	460b      	mov	r3, r1
1a000720:	4620      	mov	r0, r4
1a000722:	4629      	mov	r1, r5
1a000724:	f003 fb8e 	bl	1a003e44 <__aeabi_dcmple>
1a000728:	b900      	cbnz	r0, 1a00072c <compare_double+0x54>
1a00072a:	2600      	movs	r6, #0
}
1a00072c:	4630      	mov	r0, r6
1a00072e:	e8bd 8ff8 	ldmia.w	sp!, {r3, r4, r5, r6, r7, r8, r9, sl, fp, pc}
1a000732:	bf00      	nop
1a000734:	3cb00000 	.word	0x3cb00000

1a000738 <parse_hex4>:
static unsigned parse_hex4(const unsigned char * const input)
{
    unsigned int h = 0;
    size_t i = 0;

    for (i = 0; i < 4; i++)
1a000738:	2200      	movs	r2, #0
    unsigned int h = 0;
1a00073a:	4613      	mov	r3, r2
    for (i = 0; i < 4; i++)
1a00073c:	2a03      	cmp	r2, #3
1a00073e:	d824      	bhi.n	1a00078a <parse_hex4+0x52>
{
1a000740:	b410      	push	{r4}
1a000742:	e00c      	b.n	1a00075e <parse_hex4+0x26>
        /* parse digit */
        if ((input[i] >= '0') && (input[i] <= '9'))
        {
            h += (unsigned int) input[i] - '0';
        }
        else if ((input[i] >= 'A') && (input[i] <= 'F'))
1a000744:	f1a4 0141 	sub.w	r1, r4, #65	; 0x41
1a000748:	b2c9      	uxtb	r1, r1
1a00074a:	2905      	cmp	r1, #5
1a00074c:	d810      	bhi.n	1a000770 <parse_hex4+0x38>
        {
            h += (unsigned int) 10 + input[i] - 'A';
1a00074e:	4423      	add	r3, r4
1a000750:	3b37      	subs	r3, #55	; 0x37
        else /* invalid */
        {
            return 0;
        }

        if (i < 3)
1a000752:	2a02      	cmp	r2, #2
1a000754:	d800      	bhi.n	1a000758 <parse_hex4+0x20>
        {
            /* shift left to make place for the next nibble */
            h = h << 4;
1a000756:	011b      	lsls	r3, r3, #4
    for (i = 0; i < 4; i++)
1a000758:	3201      	adds	r2, #1
1a00075a:	2a03      	cmp	r2, #3
1a00075c:	d811      	bhi.n	1a000782 <parse_hex4+0x4a>
        if ((input[i] >= '0') && (input[i] <= '9'))
1a00075e:	5c84      	ldrb	r4, [r0, r2]
1a000760:	f1a4 0130 	sub.w	r1, r4, #48	; 0x30
1a000764:	b2c9      	uxtb	r1, r1
1a000766:	2909      	cmp	r1, #9
1a000768:	d8ec      	bhi.n	1a000744 <parse_hex4+0xc>
            h += (unsigned int) input[i] - '0';
1a00076a:	4423      	add	r3, r4
1a00076c:	3b30      	subs	r3, #48	; 0x30
1a00076e:	e7f0      	b.n	1a000752 <parse_hex4+0x1a>
        else if ((input[i] >= 'a') && (input[i] <= 'f'))
1a000770:	f1a4 0161 	sub.w	r1, r4, #97	; 0x61
1a000774:	b2c9      	uxtb	r1, r1
1a000776:	2905      	cmp	r1, #5
1a000778:	d802      	bhi.n	1a000780 <parse_hex4+0x48>
            h += (unsigned int) 10 + input[i] - 'a';
1a00077a:	4423      	add	r3, r4
1a00077c:	3b57      	subs	r3, #87	; 0x57
1a00077e:	e7e8      	b.n	1a000752 <parse_hex4+0x1a>
            return 0;
1a000780:	2300      	movs	r3, #0
        }
    }

    return h;
}
1a000782:	4618      	mov	r0, r3
1a000784:	f85d 4b04 	ldr.w	r4, [sp], #4
1a000788:	4770      	bx	lr
1a00078a:	4610      	mov	r0, r2
1a00078c:	4770      	bx	lr
1a00078e:	Address 0x1a00078e is out of bounds.


1a000790 <utf16_literal_to_utf8>:

/* converts a UTF-16 literal to UTF-8
 * A literal can be one or two sequences of the form \uXXXX */
static unsigned char utf16_literal_to_utf8(const unsigned char * const input_pointer, const unsigned char * const input_end, unsigned char **output_pointer)
{
1a000790:	b5f8      	push	{r3, r4, r5, r6, r7, lr}
    unsigned char utf8_length = 0;
    unsigned char utf8_position = 0;
    unsigned char sequence_length = 0;
    unsigned char first_byte_mark = 0;

    if ((input_end - first_sequence) < 6)
1a000792:	1a0b      	subs	r3, r1, r0
1a000794:	2b05      	cmp	r3, #5
1a000796:	dd5f      	ble.n	1a000858 <utf16_literal_to_utf8+0xc8>
1a000798:	4615      	mov	r5, r2
1a00079a:	460e      	mov	r6, r1
1a00079c:	4607      	mov	r7, r0
        /* input ends unexpectedly */
        goto fail;
    }

    /* get the first utf16 sequence */
    first_code = parse_hex4(first_sequence + 2);
1a00079e:	3002      	adds	r0, #2
1a0007a0:	f7ff ffca 	bl	1a000738 <parse_hex4>
1a0007a4:	4604      	mov	r4, r0

    /* check that the code is valid */
    if (((first_code >= 0xDC00) && (first_code <= 0xDFFF)))
1a0007a6:	f5a0 435c 	sub.w	r3, r0, #56320	; 0xdc00
1a0007aa:	f5b3 6f80 	cmp.w	r3, #1024	; 0x400
1a0007ae:	d355      	bcc.n	1a00085c <utf16_literal_to_utf8+0xcc>
    {
        goto fail;
    }

    /* UTF16 surrogate pair */
    if ((first_code >= 0xD800) && (first_code <= 0xDBFF))
1a0007b0:	f5a0 4358 	sub.w	r3, r0, #55296	; 0xd800
1a0007b4:	f5b3 6f80 	cmp.w	r3, #1024	; 0x400
1a0007b8:	d21c      	bcs.n	1a0007f4 <utf16_literal_to_utf8+0x64>
    {
        const unsigned char *second_sequence = first_sequence + 6;
1a0007ba:	1db9      	adds	r1, r7, #6
        unsigned int second_code = 0;
        sequence_length = 12; /* \uXXXX\uXXXX */

        if ((input_end - second_sequence) < 6)
1a0007bc:	1a71      	subs	r1, r6, r1
1a0007be:	2905      	cmp	r1, #5
1a0007c0:	dd4e      	ble.n	1a000860 <utf16_literal_to_utf8+0xd0>
        {
            /* input ends unexpectedly */
            goto fail;
        }

        if ((second_sequence[0] != '\\') || (second_sequence[1] != 'u'))
1a0007c2:	79bb      	ldrb	r3, [r7, #6]
1a0007c4:	2b5c      	cmp	r3, #92	; 0x5c
1a0007c6:	d14d      	bne.n	1a000864 <utf16_literal_to_utf8+0xd4>
1a0007c8:	79fb      	ldrb	r3, [r7, #7]
1a0007ca:	2b75      	cmp	r3, #117	; 0x75
1a0007cc:	d14c      	bne.n	1a000868 <utf16_literal_to_utf8+0xd8>
            /* missing second half of the surrogate pair */
            goto fail;
        }

        /* get the second utf16 sequence */
        second_code = parse_hex4(second_sequence + 2);
1a0007ce:	f107 0008 	add.w	r0, r7, #8
1a0007d2:	f7ff ffb1 	bl	1a000738 <parse_hex4>
        /* check that the code is valid */
        if ((second_code < 0xDC00) || (second_code > 0xDFFF))
1a0007d6:	f5a0 435c 	sub.w	r3, r0, #56320	; 0xdc00
1a0007da:	f5b3 6f80 	cmp.w	r3, #1024	; 0x400
1a0007de:	d245      	bcs.n	1a00086c <utf16_literal_to_utf8+0xdc>
            goto fail;
        }


        /* calculate the unicode codepoint from the surrogate pair */
        codepoint = 0x10000 + (((first_code & 0x3FF) << 10) | (second_code & 0x3FF));
1a0007e0:	4b24      	ldr	r3, [pc, #144]	; (1a000874 <utf16_literal_to_utf8+0xe4>)
1a0007e2:	ea03 2484 	and.w	r4, r3, r4, lsl #10
1a0007e6:	f3c0 0009 	ubfx	r0, r0, #0, #10
1a0007ea:	4304      	orrs	r4, r0
1a0007ec:	f504 3480 	add.w	r4, r4, #65536	; 0x10000
        sequence_length = 12; /* \uXXXX\uXXXX */
1a0007f0:	200c      	movs	r0, #12
1a0007f2:	e000      	b.n	1a0007f6 <utf16_literal_to_utf8+0x66>
    }
    else
    {
        sequence_length = 6; /* \uXXXX */
1a0007f4:	2006      	movs	r0, #6
    }

    /* encode as UTF-8
     * takes at maximum 4 bytes to encode:
     * 11110xxx 10xxxxxx 10xxxxxx 10xxxxxx */
    if (codepoint < 0x80)
1a0007f6:	2c7f      	cmp	r4, #127	; 0x7f
1a0007f8:	d90b      	bls.n	1a000812 <utf16_literal_to_utf8+0x82>
    {
        /* normal ascii, encoding 0xxxxxxx */
        utf8_length = 1;
    }
    else if (codepoint < 0x800)
1a0007fa:	f5b4 6f00 	cmp.w	r4, #2048	; 0x800
1a0007fe:	d317      	bcc.n	1a000830 <utf16_literal_to_utf8+0xa0>
    {
        /* two bytes, encoding 110xxxxx 10xxxxxx */
        utf8_length = 2;
        first_byte_mark = 0xC0; /* 11000000 */
    }
    else if (codepoint < 0x10000)
1a000800:	f5b4 3f80 	cmp.w	r4, #65536	; 0x10000
1a000804:	d317      	bcc.n	1a000836 <utf16_literal_to_utf8+0xa6>
    {
        /* three bytes, encoding 1110xxxx 10xxxxxx 10xxxxxx */
        utf8_length = 3;
        first_byte_mark = 0xE0; /* 11100000 */
    }
    else if (codepoint <= 0x10FFFF)
1a000806:	f5b4 1f88 	cmp.w	r4, #1114112	; 0x110000
1a00080a:	d231      	bcs.n	1a000870 <utf16_literal_to_utf8+0xe0>
    {
        /* four bytes, encoding 1110xxxx 10xxxxxx 10xxxxxx 10xxxxxx */
        utf8_length = 4;
        first_byte_mark = 0xF0; /* 11110000 */
1a00080c:	27f0      	movs	r7, #240	; 0xf0
        utf8_length = 4;
1a00080e:	2604      	movs	r6, #4
1a000810:	e001      	b.n	1a000816 <utf16_literal_to_utf8+0x86>
    unsigned char first_byte_mark = 0;
1a000812:	2700      	movs	r7, #0
        utf8_length = 1;
1a000814:	2601      	movs	r6, #1
        /* invalid unicode codepoint */
        goto fail;
    }

    /* encode as utf8 */
    for (utf8_position = (unsigned char)(utf8_length - 1); utf8_position > 0; utf8_position--)
1a000816:	1e73      	subs	r3, r6, #1
1a000818:	b2db      	uxtb	r3, r3
1a00081a:	b17b      	cbz	r3, 1a00083c <utf16_literal_to_utf8+0xac>
    {
        /* 10xxxxxx */
        (*output_pointer)[utf8_position] = (unsigned char)((codepoint | 0x80) & 0xBF);
1a00081c:	f004 013f 	and.w	r1, r4, #63	; 0x3f
1a000820:	682a      	ldr	r2, [r5, #0]
1a000822:	f041 0180 	orr.w	r1, r1, #128	; 0x80
1a000826:	54d1      	strb	r1, [r2, r3]
        codepoint >>= 6;
1a000828:	09a4      	lsrs	r4, r4, #6
    for (utf8_position = (unsigned char)(utf8_length - 1); utf8_position > 0; utf8_position--)
1a00082a:	3b01      	subs	r3, #1
1a00082c:	b2db      	uxtb	r3, r3
1a00082e:	e7f4      	b.n	1a00081a <utf16_literal_to_utf8+0x8a>
        first_byte_mark = 0xC0; /* 11000000 */
1a000830:	27c0      	movs	r7, #192	; 0xc0
        utf8_length = 2;
1a000832:	2602      	movs	r6, #2
1a000834:	e7ef      	b.n	1a000816 <utf16_literal_to_utf8+0x86>
        first_byte_mark = 0xE0; /* 11100000 */
1a000836:	27e0      	movs	r7, #224	; 0xe0
        utf8_length = 3;
1a000838:	2603      	movs	r6, #3
1a00083a:	e7ec      	b.n	1a000816 <utf16_literal_to_utf8+0x86>
    }
    /* encode first byte */
    if (utf8_length > 1)
1a00083c:	2e01      	cmp	r6, #1
1a00083e:	d906      	bls.n	1a00084e <utf16_literal_to_utf8+0xbe>
    {
        (*output_pointer)[0] = (unsigned char)((codepoint | first_byte_mark) & 0xFF);
1a000840:	682b      	ldr	r3, [r5, #0]
1a000842:	433c      	orrs	r4, r7
1a000844:	701c      	strb	r4, [r3, #0]
    else
    {
        (*output_pointer)[0] = (unsigned char)(codepoint & 0x7F);
    }

    *output_pointer += utf8_length;
1a000846:	682b      	ldr	r3, [r5, #0]
1a000848:	4433      	add	r3, r6
1a00084a:	602b      	str	r3, [r5, #0]

    return sequence_length;
1a00084c:	e005      	b.n	1a00085a <utf16_literal_to_utf8+0xca>
        (*output_pointer)[0] = (unsigned char)(codepoint & 0x7F);
1a00084e:	682b      	ldr	r3, [r5, #0]
1a000850:	f004 047f 	and.w	r4, r4, #127	; 0x7f
1a000854:	701c      	strb	r4, [r3, #0]
1a000856:	e7f6      	b.n	1a000846 <utf16_literal_to_utf8+0xb6>

fail:
    return 0;
1a000858:	2000      	movs	r0, #0
}
1a00085a:	bdf8      	pop	{r3, r4, r5, r6, r7, pc}
    return 0;
1a00085c:	2000      	movs	r0, #0
1a00085e:	e7fc      	b.n	1a00085a <utf16_literal_to_utf8+0xca>
1a000860:	2000      	movs	r0, #0
1a000862:	e7fa      	b.n	1a00085a <utf16_literal_to_utf8+0xca>
1a000864:	2000      	movs	r0, #0
1a000866:	e7f8      	b.n	1a00085a <utf16_literal_to_utf8+0xca>
1a000868:	2000      	movs	r0, #0
1a00086a:	e7f6      	b.n	1a00085a <utf16_literal_to_utf8+0xca>
1a00086c:	2000      	movs	r0, #0
1a00086e:	e7f4      	b.n	1a00085a <utf16_literal_to_utf8+0xca>
1a000870:	2000      	movs	r0, #0
1a000872:	e7f2      	b.n	1a00085a <utf16_literal_to_utf8+0xca>
1a000874:	000ffc00 	.word	0x000ffc00

1a000878 <parse_string>:

/* Parse the input text into an unescaped cinput, and populate item. */
static cJSON_bool parse_string(cJSON * const item, parse_buffer * const input_buffer)
{
1a000878:	e92d 41f0 	stmdb	sp!, {r4, r5, r6, r7, r8, lr}
1a00087c:	b082      	sub	sp, #8
1a00087e:	4607      	mov	r7, r0
1a000880:	460e      	mov	r6, r1
    const unsigned char *input_pointer = buffer_at_offset(input_buffer) + 1;
1a000882:	680b      	ldr	r3, [r1, #0]
1a000884:	688a      	ldr	r2, [r1, #8]
1a000886:	1c55      	adds	r5, r2, #1
1a000888:	441d      	add	r5, r3
    const unsigned char *input_end = buffer_at_offset(input_buffer) + 1;
    unsigned char *output_pointer = NULL;
1a00088a:	2100      	movs	r1, #0
1a00088c:	9101      	str	r1, [sp, #4]
    unsigned char *output = NULL;

    /* not a string */
    if (buffer_at_offset(input_buffer)[0] != '\"')
1a00088e:	4618      	mov	r0, r3
1a000890:	eb03 0e02 	add.w	lr, r3, r2
1a000894:	5c9b      	ldrb	r3, [r3, r2]
1a000896:	2b22      	cmp	r3, #34	; 0x22
1a000898:	f040 809f 	bne.w	1a0009da <parse_string+0x162>
    const unsigned char *input_end = buffer_at_offset(input_buffer) + 1;
1a00089c:	462c      	mov	r4, r5
    }

    {
        /* calculate approximate size of the output (overestimate) */
        size_t allocation_length = 0;
        size_t skipped_bytes = 0;
1a00089e:	468c      	mov	ip, r1
1a0008a0:	e000      	b.n	1a0008a4 <parse_string+0x2c>
                    goto fail;
                }
                skipped_bytes++;
                input_end++;
            }
            input_end++;
1a0008a2:	3401      	adds	r4, #1
        while (((size_t)(input_end - input_buffer->content) < input_buffer->length) && (*input_end != '\"'))
1a0008a4:	1a21      	subs	r1, r4, r0
1a0008a6:	6872      	ldr	r2, [r6, #4]
1a0008a8:	4291      	cmp	r1, r2
1a0008aa:	d20c      	bcs.n	1a0008c6 <parse_string+0x4e>
1a0008ac:	7823      	ldrb	r3, [r4, #0]
1a0008ae:	2b22      	cmp	r3, #34	; 0x22
1a0008b0:	d009      	beq.n	1a0008c6 <parse_string+0x4e>
            if (input_end[0] == '\\')
1a0008b2:	2b5c      	cmp	r3, #92	; 0x5c
1a0008b4:	d1f5      	bne.n	1a0008a2 <parse_string+0x2a>
                if ((size_t)(input_end + 1 - input_buffer->content) >= input_buffer->length)
1a0008b6:	3401      	adds	r4, #1
1a0008b8:	1a23      	subs	r3, r4, r0
1a0008ba:	4293      	cmp	r3, r2
1a0008bc:	f080 808d 	bcs.w	1a0009da <parse_string+0x162>
                skipped_bytes++;
1a0008c0:	f10c 0c01 	add.w	ip, ip, #1
                input_end++;
1a0008c4:	e7ed      	b.n	1a0008a2 <parse_string+0x2a>
        }
        if (((size_t)(input_end - input_buffer->content) >= input_buffer->length) || (*input_end != '\"'))
1a0008c6:	4291      	cmp	r1, r2
1a0008c8:	f080 8087 	bcs.w	1a0009da <parse_string+0x162>
1a0008cc:	7823      	ldrb	r3, [r4, #0]
1a0008ce:	2b22      	cmp	r3, #34	; 0x22
1a0008d0:	f040 8083 	bne.w	1a0009da <parse_string+0x162>
        {
            goto fail; /* string ended unexpectedly */
        }

        /* This is at most how much we need for the output */
        allocation_length = (size_t) (input_end - buffer_at_offset(input_buffer)) - skipped_bytes;
1a0008d4:	eba4 000e 	sub.w	r0, r4, lr
1a0008d8:	eba0 000c 	sub.w	r0, r0, ip
        output = (unsigned char*)input_buffer->hooks.allocate(allocation_length + sizeof(""));
1a0008dc:	6933      	ldr	r3, [r6, #16]
1a0008de:	3001      	adds	r0, #1
1a0008e0:	4798      	blx	r3
        if (output == NULL)
1a0008e2:	4680      	mov	r8, r0
1a0008e4:	2800      	cmp	r0, #0
1a0008e6:	d072      	beq.n	1a0009ce <parse_string+0x156>
        {
            goto fail; /* allocation failure */
        }
    }

    output_pointer = output;
1a0008e8:	9001      	str	r0, [sp, #4]
    /* loop through the string literal */
    while (input_pointer < input_end)
1a0008ea:	e005      	b.n	1a0008f8 <parse_string+0x80>
    {
        if (*input_pointer != '\\')
        {
            *output_pointer++ = *input_pointer++;
1a0008ec:	9b01      	ldr	r3, [sp, #4]
1a0008ee:	1c5a      	adds	r2, r3, #1
1a0008f0:	9201      	str	r2, [sp, #4]
1a0008f2:	f815 2b01 	ldrb.w	r2, [r5], #1
1a0008f6:	701a      	strb	r2, [r3, #0]
    while (input_pointer < input_end)
1a0008f8:	42a5      	cmp	r5, r4
1a0008fa:	d276      	bcs.n	1a0009ea <parse_string+0x172>
        if (*input_pointer != '\\')
1a0008fc:	782b      	ldrb	r3, [r5, #0]
1a0008fe:	2b5c      	cmp	r3, #92	; 0x5c
1a000900:	d1f4      	bne.n	1a0008ec <parse_string+0x74>
        }
        /* escape sequence */
        else
        {
            unsigned char sequence_length = 2;
            if ((input_end - input_pointer) < 1)
1a000902:	1b63      	subs	r3, r4, r5
1a000904:	2b00      	cmp	r3, #0
1a000906:	dd62      	ble.n	1a0009ce <parse_string+0x156>
            {
                goto fail;
            }

            switch (input_pointer[1])
1a000908:	786b      	ldrb	r3, [r5, #1]
1a00090a:	3b22      	subs	r3, #34	; 0x22
1a00090c:	2b53      	cmp	r3, #83	; 0x53
1a00090e:	d85e      	bhi.n	1a0009ce <parse_string+0x156>
1a000910:	e8df f003 	tbb	[pc, r3]
1a000914:	5d5d5d4e 	.word	0x5d5d5d4e
1a000918:	5d5d5d5d 	.word	0x5d5d5d5d
1a00091c:	5d5d5d5d 	.word	0x5d5d5d5d
1a000920:	5d5d4e5d 	.word	0x5d5d4e5d
1a000924:	5d5d5d5d 	.word	0x5d5d5d5d
1a000928:	5d5d5d5d 	.word	0x5d5d5d5d
1a00092c:	5d5d5d5d 	.word	0x5d5d5d5d
1a000930:	5d5d5d5d 	.word	0x5d5d5d5d
1a000934:	5d5d5d5d 	.word	0x5d5d5d5d
1a000938:	5d5d5d5d 	.word	0x5d5d5d5d
1a00093c:	5d5d5d5d 	.word	0x5d5d5d5d
1a000940:	5d5d5d5d 	.word	0x5d5d5d5d
1a000944:	5d5d5d5d 	.word	0x5d5d5d5d
1a000948:	5d5d5d5d 	.word	0x5d5d5d5d
1a00094c:	5d4e5d5d 	.word	0x5d4e5d5d
1a000950:	5d5d5d5d 	.word	0x5d5d5d5d
1a000954:	5d5d5d2a 	.word	0x5d5d5d2a
1a000958:	5d5d5d32 	.word	0x5d5d5d32
1a00095c:	5d5d5d5d 	.word	0x5d5d5d5d
1a000960:	5d5d5d39 	.word	0x5d5d5d39
1a000964:	55475d40 	.word	0x55475d40
            {
                case 'b':
                    *output_pointer++ = '\b';
1a000968:	9b01      	ldr	r3, [sp, #4]
1a00096a:	1c5a      	adds	r2, r3, #1
1a00096c:	9201      	str	r2, [sp, #4]
1a00096e:	2208      	movs	r2, #8
1a000970:	701a      	strb	r2, [r3, #0]
            unsigned char sequence_length = 2;
1a000972:	2302      	movs	r3, #2
                    break;

                default:
                    goto fail;
            }
            input_pointer += sequence_length;
1a000974:	441d      	add	r5, r3
1a000976:	e7bf      	b.n	1a0008f8 <parse_string+0x80>
                    *output_pointer++ = '\f';
1a000978:	9b01      	ldr	r3, [sp, #4]
1a00097a:	1c5a      	adds	r2, r3, #1
1a00097c:	9201      	str	r2, [sp, #4]
1a00097e:	220c      	movs	r2, #12
1a000980:	701a      	strb	r2, [r3, #0]
            unsigned char sequence_length = 2;
1a000982:	2302      	movs	r3, #2
                    break;
1a000984:	e7f6      	b.n	1a000974 <parse_string+0xfc>
                    *output_pointer++ = '\n';
1a000986:	9b01      	ldr	r3, [sp, #4]
1a000988:	1c5a      	adds	r2, r3, #1
1a00098a:	9201      	str	r2, [sp, #4]
1a00098c:	220a      	movs	r2, #10
1a00098e:	701a      	strb	r2, [r3, #0]
            unsigned char sequence_length = 2;
1a000990:	2302      	movs	r3, #2
                    break;
1a000992:	e7ef      	b.n	1a000974 <parse_string+0xfc>
                    *output_pointer++ = '\r';
1a000994:	9b01      	ldr	r3, [sp, #4]
1a000996:	1c5a      	adds	r2, r3, #1
1a000998:	9201      	str	r2, [sp, #4]
1a00099a:	220d      	movs	r2, #13
1a00099c:	701a      	strb	r2, [r3, #0]
            unsigned char sequence_length = 2;
1a00099e:	2302      	movs	r3, #2
                    break;
1a0009a0:	e7e8      	b.n	1a000974 <parse_string+0xfc>
                    *output_pointer++ = '\t';
1a0009a2:	9b01      	ldr	r3, [sp, #4]
1a0009a4:	1c5a      	adds	r2, r3, #1
1a0009a6:	9201      	str	r2, [sp, #4]
1a0009a8:	2209      	movs	r2, #9
1a0009aa:	701a      	strb	r2, [r3, #0]
            unsigned char sequence_length = 2;
1a0009ac:	2302      	movs	r3, #2
                    break;
1a0009ae:	e7e1      	b.n	1a000974 <parse_string+0xfc>
                    *output_pointer++ = input_pointer[1];
1a0009b0:	9b01      	ldr	r3, [sp, #4]
1a0009b2:	1c5a      	adds	r2, r3, #1
1a0009b4:	9201      	str	r2, [sp, #4]
1a0009b6:	786a      	ldrb	r2, [r5, #1]
1a0009b8:	701a      	strb	r2, [r3, #0]
            unsigned char sequence_length = 2;
1a0009ba:	2302      	movs	r3, #2
                    break;
1a0009bc:	e7da      	b.n	1a000974 <parse_string+0xfc>
                    sequence_length = utf16_literal_to_utf8(input_pointer, input_end, &output_pointer);
1a0009be:	aa01      	add	r2, sp, #4
1a0009c0:	4621      	mov	r1, r4
1a0009c2:	4628      	mov	r0, r5
1a0009c4:	f7ff fee4 	bl	1a000790 <utf16_literal_to_utf8>
                    if (sequence_length == 0)
1a0009c8:	4603      	mov	r3, r0
1a0009ca:	2800      	cmp	r0, #0
1a0009cc:	d1d2      	bne.n	1a000974 <parse_string+0xfc>
    input_buffer->offset++;

    return true;

fail:
    if (output != NULL)
1a0009ce:	f1b8 0f00 	cmp.w	r8, #0
1a0009d2:	d002      	beq.n	1a0009da <parse_string+0x162>
    {
        input_buffer->hooks.deallocate(output);
1a0009d4:	6973      	ldr	r3, [r6, #20]
1a0009d6:	4640      	mov	r0, r8
1a0009d8:	4798      	blx	r3
    }

    if (input_pointer != NULL)
1a0009da:	b19d      	cbz	r5, 1a000a04 <parse_string+0x18c>
    {
        input_buffer->offset = (size_t)(input_pointer - input_buffer->content);
1a0009dc:	6833      	ldr	r3, [r6, #0]
1a0009de:	1aed      	subs	r5, r5, r3
1a0009e0:	60b5      	str	r5, [r6, #8]
    }

    return false;
1a0009e2:	2000      	movs	r0, #0
}
1a0009e4:	b002      	add	sp, #8
1a0009e6:	e8bd 81f0 	ldmia.w	sp!, {r4, r5, r6, r7, r8, pc}
    *output_pointer = '\0';
1a0009ea:	9b01      	ldr	r3, [sp, #4]
1a0009ec:	2200      	movs	r2, #0
1a0009ee:	701a      	strb	r2, [r3, #0]
    item->type = cJSON_String;
1a0009f0:	2310      	movs	r3, #16
1a0009f2:	60fb      	str	r3, [r7, #12]
    item->valuestring = (char*)output;
1a0009f4:	f8c7 8010 	str.w	r8, [r7, #16]
    input_buffer->offset = (size_t) (input_end - input_buffer->content);
1a0009f8:	6833      	ldr	r3, [r6, #0]
1a0009fa:	1ae3      	subs	r3, r4, r3
    input_buffer->offset++;
1a0009fc:	3301      	adds	r3, #1
1a0009fe:	60b3      	str	r3, [r6, #8]
    return true;
1a000a00:	2001      	movs	r0, #1
1a000a02:	e7ef      	b.n	1a0009e4 <parse_string+0x16c>
    return false;
1a000a04:	2000      	movs	r0, #0
1a000a06:	e7ed      	b.n	1a0009e4 <parse_string+0x16c>

1a000a08 <buffer_skip_whitespace>:
static cJSON_bool print_object(const cJSON * const item, printbuffer * const output_buffer);

/* Utility to jump whitespace and cr/lf */
static parse_buffer *buffer_skip_whitespace(parse_buffer * const buffer)
{
    if ((buffer == NULL) || (buffer->content == NULL))
1a000a08:	b1d0      	cbz	r0, 1a000a40 <buffer_skip_whitespace+0x38>
{
1a000a0a:	b410      	push	{r4}
1a000a0c:	4602      	mov	r2, r0
    if ((buffer == NULL) || (buffer->content == NULL))
1a000a0e:	6804      	ldr	r4, [r0, #0]
1a000a10:	b1cc      	cbz	r4, 1a000a46 <buffer_skip_whitespace+0x3e>
    {
        return NULL;
    }

    if (cannot_access_at_index(buffer, 0))
1a000a12:	6883      	ldr	r3, [r0, #8]
1a000a14:	6840      	ldr	r0, [r0, #4]
1a000a16:	4283      	cmp	r3, r0
1a000a18:	d20b      	bcs.n	1a000a32 <buffer_skip_whitespace+0x2a>
    {
        return buffer;
    }

    while (can_access_at_index(buffer, 0) && (buffer_at_offset(buffer)[0] <= 32))
1a000a1a:	6893      	ldr	r3, [r2, #8]
1a000a1c:	4298      	cmp	r0, r3
1a000a1e:	d905      	bls.n	1a000a2c <buffer_skip_whitespace+0x24>
1a000a20:	5ce1      	ldrb	r1, [r4, r3]
1a000a22:	2920      	cmp	r1, #32
1a000a24:	d802      	bhi.n	1a000a2c <buffer_skip_whitespace+0x24>
    {
       buffer->offset++;
1a000a26:	3301      	adds	r3, #1
1a000a28:	6093      	str	r3, [r2, #8]
1a000a2a:	e7f6      	b.n	1a000a1a <buffer_skip_whitespace+0x12>
    }

    if (buffer->offset == buffer->length)
1a000a2c:	6893      	ldr	r3, [r2, #8]
1a000a2e:	4298      	cmp	r0, r3
1a000a30:	d003      	beq.n	1a000a3a <buffer_skip_whitespace+0x32>
    {
        buffer->offset--;
    }

    return buffer;
}
1a000a32:	4610      	mov	r0, r2
1a000a34:	f85d 4b04 	ldr.w	r4, [sp], #4
1a000a38:	4770      	bx	lr
        buffer->offset--;
1a000a3a:	3b01      	subs	r3, #1
1a000a3c:	6093      	str	r3, [r2, #8]
1a000a3e:	e7f8      	b.n	1a000a32 <buffer_skip_whitespace+0x2a>
        return NULL;
1a000a40:	2200      	movs	r2, #0
}
1a000a42:	4610      	mov	r0, r2
1a000a44:	4770      	bx	lr
        return NULL;
1a000a46:	2200      	movs	r2, #0
1a000a48:	e7f3      	b.n	1a000a32 <buffer_skip_whitespace+0x2a>

1a000a4a <update_offset>:
    if ((buffer == NULL) || (buffer->buffer == NULL))
1a000a4a:	b150      	cbz	r0, 1a000a62 <update_offset+0x18>
{
1a000a4c:	b538      	push	{r3, r4, r5, lr}
1a000a4e:	4604      	mov	r4, r0
    if ((buffer == NULL) || (buffer->buffer == NULL))
1a000a50:	6800      	ldr	r0, [r0, #0]
1a000a52:	b128      	cbz	r0, 1a000a60 <update_offset+0x16>
    buffer_pointer = buffer->buffer + buffer->offset;
1a000a54:	68a5      	ldr	r5, [r4, #8]
    buffer->offset += strlen((const char*)buffer_pointer);
1a000a56:	4428      	add	r0, r5
1a000a58:	f003 fd9d 	bl	1a004596 <strlen>
1a000a5c:	4428      	add	r0, r5
1a000a5e:	60a0      	str	r0, [r4, #8]
}
1a000a60:	bd38      	pop	{r3, r4, r5, pc}
1a000a62:	4770      	bx	lr

1a000a64 <ensure>:
{
1a000a64:	b570      	push	{r4, r5, r6, lr}
    if ((p == NULL) || (p->buffer == NULL))
1a000a66:	2800      	cmp	r0, #0
1a000a68:	d047      	beq.n	1a000afa <ensure+0x96>
1a000a6a:	4605      	mov	r5, r0
1a000a6c:	6806      	ldr	r6, [r0, #0]
1a000a6e:	b336      	cbz	r6, 1a000abe <ensure+0x5a>
    if ((p->length > 0) && (p->offset >= p->length))
1a000a70:	6842      	ldr	r2, [r0, #4]
1a000a72:	b112      	cbz	r2, 1a000a7a <ensure+0x16>
1a000a74:	6880      	ldr	r0, [r0, #8]
1a000a76:	4282      	cmp	r2, r0
1a000a78:	d941      	bls.n	1a000afe <ensure+0x9a>
    if (needed > INT_MAX)
1a000a7a:	2900      	cmp	r1, #0
1a000a7c:	db41      	blt.n	1a000b02 <ensure+0x9e>
    needed += p->offset + 1;
1a000a7e:	68a8      	ldr	r0, [r5, #8]
1a000a80:	4401      	add	r1, r0
1a000a82:	3101      	adds	r1, #1
    if (needed <= p->length)
1a000a84:	428a      	cmp	r2, r1
1a000a86:	d20a      	bcs.n	1a000a9e <ensure+0x3a>
    if (p->noalloc) {
1a000a88:	692a      	ldr	r2, [r5, #16]
1a000a8a:	2a00      	cmp	r2, #0
1a000a8c:	d13b      	bne.n	1a000b06 <ensure+0xa2>
    if (needed > (INT_MAX / 2))
1a000a8e:	f1b1 4f80 	cmp.w	r1, #1073741824	; 0x40000000
1a000a92:	d308      	bcc.n	1a000aa6 <ensure+0x42>
        if (needed <= INT_MAX)
1a000a94:	2900      	cmp	r1, #0
1a000a96:	db04      	blt.n	1a000aa2 <ensure+0x3e>
            newsize = INT_MAX;
1a000a98:	f06f 4400 	mvn.w	r4, #2147483648	; 0x80000000
1a000a9c:	e004      	b.n	1a000aa8 <ensure+0x44>
        return p->buffer + p->offset;
1a000a9e:	4406      	add	r6, r0
1a000aa0:	e00d      	b.n	1a000abe <ensure+0x5a>
            return NULL;
1a000aa2:	2600      	movs	r6, #0
1a000aa4:	e00b      	b.n	1a000abe <ensure+0x5a>
        newsize = needed * 2;
1a000aa6:	004c      	lsls	r4, r1, #1
    if (p->hooks.reallocate != NULL)
1a000aa8:	6a2b      	ldr	r3, [r5, #32]
1a000aaa:	b18b      	cbz	r3, 1a000ad0 <ensure+0x6c>
        newbuffer = (unsigned char*)p->hooks.reallocate(p->buffer, newsize);
1a000aac:	4621      	mov	r1, r4
1a000aae:	4630      	mov	r0, r6
1a000ab0:	4798      	blx	r3
        if (newbuffer == NULL)
1a000ab2:	4606      	mov	r6, r0
1a000ab4:	b128      	cbz	r0, 1a000ac2 <ensure+0x5e>
    p->length = newsize;
1a000ab6:	606c      	str	r4, [r5, #4]
    p->buffer = newbuffer;
1a000ab8:	602e      	str	r6, [r5, #0]
    return newbuffer + p->offset;
1a000aba:	68ab      	ldr	r3, [r5, #8]
1a000abc:	441e      	add	r6, r3
}
1a000abe:	4630      	mov	r0, r6
1a000ac0:	bd70      	pop	{r4, r5, r6, pc}
            p->hooks.deallocate(p->buffer);
1a000ac2:	69eb      	ldr	r3, [r5, #28]
1a000ac4:	6828      	ldr	r0, [r5, #0]
1a000ac6:	4798      	blx	r3
            p->length = 0;
1a000ac8:	2300      	movs	r3, #0
1a000aca:	606b      	str	r3, [r5, #4]
            p->buffer = NULL;
1a000acc:	602b      	str	r3, [r5, #0]
            return NULL;
1a000ace:	e7f6      	b.n	1a000abe <ensure+0x5a>
        newbuffer = (unsigned char*)p->hooks.allocate(newsize);
1a000ad0:	69ab      	ldr	r3, [r5, #24]
1a000ad2:	4620      	mov	r0, r4
1a000ad4:	4798      	blx	r3
        if (!newbuffer)
1a000ad6:	4606      	mov	r6, r0
1a000ad8:	b140      	cbz	r0, 1a000aec <ensure+0x88>
        memcpy(newbuffer, p->buffer, p->offset + 1);
1a000ada:	68aa      	ldr	r2, [r5, #8]
1a000adc:	3201      	adds	r2, #1
1a000ade:	6829      	ldr	r1, [r5, #0]
1a000ae0:	f003 fbe2 	bl	1a0042a8 <memcpy>
        p->hooks.deallocate(p->buffer);
1a000ae4:	69eb      	ldr	r3, [r5, #28]
1a000ae6:	6828      	ldr	r0, [r5, #0]
1a000ae8:	4798      	blx	r3
1a000aea:	e7e4      	b.n	1a000ab6 <ensure+0x52>
            p->hooks.deallocate(p->buffer);
1a000aec:	69eb      	ldr	r3, [r5, #28]
1a000aee:	6828      	ldr	r0, [r5, #0]
1a000af0:	4798      	blx	r3
            p->length = 0;
1a000af2:	2300      	movs	r3, #0
1a000af4:	606b      	str	r3, [r5, #4]
            p->buffer = NULL;
1a000af6:	602b      	str	r3, [r5, #0]
            return NULL;
1a000af8:	e7e1      	b.n	1a000abe <ensure+0x5a>
        return NULL;
1a000afa:	2600      	movs	r6, #0
1a000afc:	e7df      	b.n	1a000abe <ensure+0x5a>
        return NULL;
1a000afe:	2600      	movs	r6, #0
1a000b00:	e7dd      	b.n	1a000abe <ensure+0x5a>
        return NULL;
1a000b02:	2600      	movs	r6, #0
1a000b04:	e7db      	b.n	1a000abe <ensure+0x5a>
        return NULL;
1a000b06:	2600      	movs	r6, #0
1a000b08:	e7d9      	b.n	1a000abe <ensure+0x5a>

1a000b0a <cJSON_New_Item>:
{
1a000b0a:	b510      	push	{r4, lr}
    cJSON* node = (cJSON*)hooks->allocate(sizeof(cJSON));
1a000b0c:	6803      	ldr	r3, [r0, #0]
1a000b0e:	2028      	movs	r0, #40	; 0x28
1a000b10:	4798      	blx	r3
    if (node)
1a000b12:	4604      	mov	r4, r0
1a000b14:	b118      	cbz	r0, 1a000b1e <cJSON_New_Item+0x14>
        memset(node, '\0', sizeof(cJSON));
1a000b16:	2228      	movs	r2, #40	; 0x28
1a000b18:	2100      	movs	r1, #0
1a000b1a:	f003 fbd3 	bl	1a0042c4 <memset>
}
1a000b1e:	4620      	mov	r0, r4
1a000b20:	bd10      	pop	{r4, pc}
1a000b22:	Address 0x1a000b22 is out of bounds.


1a000b24 <skip_utf8_bom>:

/* skip the UTF-8 BOM (byte order mark) if it is at the beginning of a buffer */
static parse_buffer *skip_utf8_bom(parse_buffer * const buffer)
{
1a000b24:	b538      	push	{r3, r4, r5, lr}
    if ((buffer == NULL) || (buffer->content == NULL) || (buffer->offset != 0))
1a000b26:	b190      	cbz	r0, 1a000b4e <skip_utf8_bom+0x2a>
1a000b28:	4604      	mov	r4, r0
1a000b2a:	6800      	ldr	r0, [r0, #0]
1a000b2c:	b188      	cbz	r0, 1a000b52 <skip_utf8_bom+0x2e>
1a000b2e:	68a5      	ldr	r5, [r4, #8]
1a000b30:	b98d      	cbnz	r5, 1a000b56 <skip_utf8_bom+0x32>
    {
        return NULL;
    }

    if (can_access_at_index(buffer, 4) && (strncmp((const char*)buffer_at_offset(buffer), "\xEF\xBB\xBF", 3) == 0))
1a000b32:	1d2b      	adds	r3, r5, #4
1a000b34:	6862      	ldr	r2, [r4, #4]
1a000b36:	4293      	cmp	r3, r2
1a000b38:	d207      	bcs.n	1a000b4a <skip_utf8_bom+0x26>
1a000b3a:	2203      	movs	r2, #3
1a000b3c:	4907      	ldr	r1, [pc, #28]	; (1a000b5c <skip_utf8_bom+0x38>)
1a000b3e:	4428      	add	r0, r5
1a000b40:	f003 fd31 	bl	1a0045a6 <strncmp>
1a000b44:	b908      	cbnz	r0, 1a000b4a <skip_utf8_bom+0x26>
    {
        buffer->offset += 3;
1a000b46:	3503      	adds	r5, #3
1a000b48:	60a5      	str	r5, [r4, #8]
    }

    return buffer;
}
1a000b4a:	4620      	mov	r0, r4
1a000b4c:	bd38      	pop	{r3, r4, r5, pc}
        return NULL;
1a000b4e:	2400      	movs	r4, #0
1a000b50:	e7fb      	b.n	1a000b4a <skip_utf8_bom+0x26>
1a000b52:	2400      	movs	r4, #0
1a000b54:	e7f9      	b.n	1a000b4a <skip_utf8_bom+0x26>
1a000b56:	2400      	movs	r4, #0
1a000b58:	e7f7      	b.n	1a000b4a <skip_utf8_bom+0x26>
1a000b5a:	bf00      	nop
1a000b5c:	1a00796c 	.word	0x1a00796c

1a000b60 <parse_number>:
{
1a000b60:	e92d 43f0 	stmdb	sp!, {r4, r5, r6, r7, r8, r9, lr}
1a000b64:	b093      	sub	sp, #76	; 0x4c
1a000b66:	4605      	mov	r5, r0
1a000b68:	460c      	mov	r4, r1
    unsigned char *after_end = NULL;
1a000b6a:	2300      	movs	r3, #0
1a000b6c:	9311      	str	r3, [sp, #68]	; 0x44
    unsigned char decimal_point = get_decimal_point();
1a000b6e:	f7ff fdb1 	bl	1a0006d4 <get_decimal_point>
    if ((input_buffer == NULL) || (input_buffer->content == NULL))
1a000b72:	2c00      	cmp	r4, #0
1a000b74:	f000 80d2 	beq.w	1a000d1c <parse_number+0x1bc>
1a000b78:	6823      	ldr	r3, [r4, #0]
1a000b7a:	2b00      	cmp	r3, #0
1a000b7c:	f000 80d0 	beq.w	1a000d20 <parse_number+0x1c0>
    for (i = 0; (i < (sizeof(number_c_string) - 1)) && can_access_at_index(input_buffer, i); i++)
1a000b80:	2300      	movs	r3, #0
1a000b82:	e004      	b.n	1a000b8e <parse_number+0x2e>
                number_c_string[i] = buffer_at_offset(input_buffer)[i];
1a000b84:	aa12      	add	r2, sp, #72	; 0x48
1a000b86:	441a      	add	r2, r3
1a000b88:	f802 1c44 	strb.w	r1, [r2, #-68]
    for (i = 0; (i < (sizeof(number_c_string) - 1)) && can_access_at_index(input_buffer, i); i++)
1a000b8c:	3301      	adds	r3, #1
1a000b8e:	2b3e      	cmp	r3, #62	; 0x3e
1a000b90:	f200 808b 	bhi.w	1a000caa <parse_number+0x14a>
1a000b94:	68a2      	ldr	r2, [r4, #8]
1a000b96:	441a      	add	r2, r3
1a000b98:	6861      	ldr	r1, [r4, #4]
1a000b9a:	428a      	cmp	r2, r1
1a000b9c:	f080 8085 	bcs.w	1a000caa <parse_number+0x14a>
        switch (buffer_at_offset(input_buffer)[i])
1a000ba0:	6821      	ldr	r1, [r4, #0]
1a000ba2:	5c89      	ldrb	r1, [r1, r2]
1a000ba4:	f1a1 022b 	sub.w	r2, r1, #43	; 0x2b
1a000ba8:	2a3a      	cmp	r2, #58	; 0x3a
1a000baa:	d87e      	bhi.n	1a000caa <parse_number+0x14a>
1a000bac:	a601      	add	r6, pc, #4	; (adr r6, 1a000bb4 <parse_number+0x54>)
1a000bae:	f856 f022 	ldr.w	pc, [r6, r2, lsl #2]
1a000bb2:	bf00      	nop
1a000bb4:	1a000b85 	.word	0x1a000b85
1a000bb8:	1a000cab 	.word	0x1a000cab
1a000bbc:	1a000b85 	.word	0x1a000b85
1a000bc0:	1a000ca1 	.word	0x1a000ca1
1a000bc4:	1a000cab 	.word	0x1a000cab
1a000bc8:	1a000b85 	.word	0x1a000b85
1a000bcc:	1a000b85 	.word	0x1a000b85
1a000bd0:	1a000b85 	.word	0x1a000b85
1a000bd4:	1a000b85 	.word	0x1a000b85
1a000bd8:	1a000b85 	.word	0x1a000b85
1a000bdc:	1a000b85 	.word	0x1a000b85
1a000be0:	1a000b85 	.word	0x1a000b85
1a000be4:	1a000b85 	.word	0x1a000b85
1a000be8:	1a000b85 	.word	0x1a000b85
1a000bec:	1a000b85 	.word	0x1a000b85
1a000bf0:	1a000cab 	.word	0x1a000cab
1a000bf4:	1a000cab 	.word	0x1a000cab
1a000bf8:	1a000cab 	.word	0x1a000cab
1a000bfc:	1a000cab 	.word	0x1a000cab
1a000c00:	1a000cab 	.word	0x1a000cab
1a000c04:	1a000cab 	.word	0x1a000cab
1a000c08:	1a000cab 	.word	0x1a000cab
1a000c0c:	1a000cab 	.word	0x1a000cab
1a000c10:	1a000cab 	.word	0x1a000cab
1a000c14:	1a000cab 	.word	0x1a000cab
1a000c18:	1a000cab 	.word	0x1a000cab
1a000c1c:	1a000b85 	.word	0x1a000b85
1a000c20:	1a000cab 	.word	0x1a000cab
1a000c24:	1a000cab 	.word	0x1a000cab
1a000c28:	1a000cab 	.word	0x1a000cab
1a000c2c:	1a000cab 	.word	0x1a000cab
1a000c30:	1a000cab 	.word	0x1a000cab
1a000c34:	1a000cab 	.word	0x1a000cab
1a000c38:	1a000cab 	.word	0x1a000cab
1a000c3c:	1a000cab 	.word	0x1a000cab
1a000c40:	1a000cab 	.word	0x1a000cab
1a000c44:	1a000cab 	.word	0x1a000cab
1a000c48:	1a000cab 	.word	0x1a000cab
1a000c4c:	1a000cab 	.word	0x1a000cab
1a000c50:	1a000cab 	.word	0x1a000cab
1a000c54:	1a000cab 	.word	0x1a000cab
1a000c58:	1a000cab 	.word	0x1a000cab
1a000c5c:	1a000cab 	.word	0x1a000cab
1a000c60:	1a000cab 	.word	0x1a000cab
1a000c64:	1a000cab 	.word	0x1a000cab
1a000c68:	1a000cab 	.word	0x1a000cab
1a000c6c:	1a000cab 	.word	0x1a000cab
1a000c70:	1a000cab 	.word	0x1a000cab
1a000c74:	1a000cab 	.word	0x1a000cab
1a000c78:	1a000cab 	.word	0x1a000cab
1a000c7c:	1a000cab 	.word	0x1a000cab
1a000c80:	1a000cab 	.word	0x1a000cab
1a000c84:	1a000cab 	.word	0x1a000cab
1a000c88:	1a000cab 	.word	0x1a000cab
1a000c8c:	1a000cab 	.word	0x1a000cab
1a000c90:	1a000cab 	.word	0x1a000cab
1a000c94:	1a000cab 	.word	0x1a000cab
1a000c98:	1a000cab 	.word	0x1a000cab
1a000c9c:	1a000b85 	.word	0x1a000b85
                number_c_string[i] = decimal_point;
1a000ca0:	aa12      	add	r2, sp, #72	; 0x48
1a000ca2:	441a      	add	r2, r3
1a000ca4:	f802 0c44 	strb.w	r0, [r2, #-68]
                break;
1a000ca8:	e770      	b.n	1a000b8c <parse_number+0x2c>
    number_c_string[i] = '\0';
1a000caa:	aa12      	add	r2, sp, #72	; 0x48
1a000cac:	4413      	add	r3, r2
1a000cae:	2200      	movs	r2, #0
1a000cb0:	f803 2c44 	strb.w	r2, [r3, #-68]
    number = strtod((const char*)number_c_string, (char**)&after_end);
1a000cb4:	af01      	add	r7, sp, #4
1a000cb6:	a911      	add	r1, sp, #68	; 0x44
1a000cb8:	4638      	mov	r0, r7
1a000cba:	f004 fa71 	bl	1a0051a0 <strtod>
1a000cbe:	ec59 8b10 	vmov	r8, r9, d0
    if (number_c_string == after_end)
1a000cc2:	9e11      	ldr	r6, [sp, #68]	; 0x44
1a000cc4:	42be      	cmp	r6, r7
1a000cc6:	d02d      	beq.n	1a000d24 <parse_number+0x1c4>
    item->valuedouble = number;
1a000cc8:	ed85 0b06 	vstr	d0, [r5, #24]
    if (number >= INT_MAX)
1a000ccc:	a317      	add	r3, pc, #92	; (adr r3, 1a000d2c <parse_number+0x1cc>)
1a000cce:	e9d3 2300 	ldrd	r2, r3, [r3]
1a000cd2:	ee10 0a10 	vmov	r0, s0
1a000cd6:	4649      	mov	r1, r9
1a000cd8:	f003 f8be 	bl	1a003e58 <__aeabi_dcmpge>
1a000cdc:	b168      	cbz	r0, 1a000cfa <parse_number+0x19a>
        item->valueint = INT_MAX;
1a000cde:	f06f 4300 	mvn.w	r3, #2147483648	; 0x80000000
1a000ce2:	616b      	str	r3, [r5, #20]
    item->type = cJSON_Number;
1a000ce4:	2308      	movs	r3, #8
1a000ce6:	60eb      	str	r3, [r5, #12]
    input_buffer->offset += (size_t)(after_end - number_c_string);
1a000ce8:	ab01      	add	r3, sp, #4
1a000cea:	1af6      	subs	r6, r6, r3
1a000cec:	68a3      	ldr	r3, [r4, #8]
1a000cee:	441e      	add	r6, r3
1a000cf0:	60a6      	str	r6, [r4, #8]
    return true;
1a000cf2:	2001      	movs	r0, #1
}
1a000cf4:	b013      	add	sp, #76	; 0x4c
1a000cf6:	e8bd 83f0 	ldmia.w	sp!, {r4, r5, r6, r7, r8, r9, pc}
    else if (number <= (double)INT_MIN)
1a000cfa:	2200      	movs	r2, #0
1a000cfc:	4b0a      	ldr	r3, [pc, #40]	; (1a000d28 <parse_number+0x1c8>)
1a000cfe:	4640      	mov	r0, r8
1a000d00:	4649      	mov	r1, r9
1a000d02:	f003 f89f 	bl	1a003e44 <__aeabi_dcmple>
1a000d06:	b118      	cbz	r0, 1a000d10 <parse_number+0x1b0>
        item->valueint = INT_MIN;
1a000d08:	f04f 4300 	mov.w	r3, #2147483648	; 0x80000000
1a000d0c:	616b      	str	r3, [r5, #20]
1a000d0e:	e7e9      	b.n	1a000ce4 <parse_number+0x184>
        item->valueint = (int)number;
1a000d10:	4640      	mov	r0, r8
1a000d12:	4649      	mov	r1, r9
1a000d14:	f003 f8ca 	bl	1a003eac <__aeabi_d2iz>
1a000d18:	6168      	str	r0, [r5, #20]
1a000d1a:	e7e3      	b.n	1a000ce4 <parse_number+0x184>
        return false;
1a000d1c:	2000      	movs	r0, #0
1a000d1e:	e7e9      	b.n	1a000cf4 <parse_number+0x194>
1a000d20:	2000      	movs	r0, #0
1a000d22:	e7e7      	b.n	1a000cf4 <parse_number+0x194>
        return false; /* parse_error */
1a000d24:	2000      	movs	r0, #0
1a000d26:	e7e5      	b.n	1a000cf4 <parse_number+0x194>
1a000d28:	c1e00000 	.word	0xc1e00000
1a000d2c:	ffc00000 	.word	0xffc00000
1a000d30:	41dfffff 	.word	0x41dfffff

1a000d34 <print_string_ptr>:
    if (output_buffer == NULL)
1a000d34:	2900      	cmp	r1, #0
1a000d36:	f000 8087 	beq.w	1a000e48 <print_string_ptr+0x114>
{
1a000d3a:	b5f8      	push	{r3, r4, r5, r6, r7, lr}
1a000d3c:	4605      	mov	r5, r0
1a000d3e:	4608      	mov	r0, r1
    if (input == NULL)
1a000d40:	b115      	cbz	r5, 1a000d48 <print_string_ptr+0x14>
    for (input_pointer = input; *input_pointer; input_pointer++)
1a000d42:	4629      	mov	r1, r5
    size_t escape_characters = 0;
1a000d44:	2600      	movs	r6, #0
1a000d46:	e012      	b.n	1a000d6e <print_string_ptr+0x3a>
        output = ensure(output_buffer, sizeof("\"\""));
1a000d48:	2103      	movs	r1, #3
1a000d4a:	f7ff fe8b 	bl	1a000a64 <ensure>
        if (output == NULL)
1a000d4e:	4603      	mov	r3, r0
1a000d50:	2800      	cmp	r0, #0
1a000d52:	d07b      	beq.n	1a000e4c <print_string_ptr+0x118>
        strcpy((char*)output, "\"\"");
1a000d54:	4a3f      	ldr	r2, [pc, #252]	; (1a000e54 <print_string_ptr+0x120>)
1a000d56:	8811      	ldrh	r1, [r2, #0]
1a000d58:	7892      	ldrb	r2, [r2, #2]
1a000d5a:	8019      	strh	r1, [r3, #0]
1a000d5c:	709a      	strb	r2, [r3, #2]
        return true;
1a000d5e:	2001      	movs	r0, #1
1a000d60:	e071      	b.n	1a000e46 <print_string_ptr+0x112>
        switch (*input_pointer)
1a000d62:	2b22      	cmp	r3, #34	; 0x22
1a000d64:	d001      	beq.n	1a000d6a <print_string_ptr+0x36>
1a000d66:	2b5c      	cmp	r3, #92	; 0x5c
1a000d68:	d10c      	bne.n	1a000d84 <print_string_ptr+0x50>
                escape_characters++;
1a000d6a:	3601      	adds	r6, #1
    for (input_pointer = input; *input_pointer; input_pointer++)
1a000d6c:	3101      	adds	r1, #1
1a000d6e:	780b      	ldrb	r3, [r1, #0]
1a000d70:	b163      	cbz	r3, 1a000d8c <print_string_ptr+0x58>
        switch (*input_pointer)
1a000d72:	2b0d      	cmp	r3, #13
1a000d74:	d8f5      	bhi.n	1a000d62 <print_string_ptr+0x2e>
1a000d76:	2b0c      	cmp	r3, #12
1a000d78:	d2f7      	bcs.n	1a000d6a <print_string_ptr+0x36>
1a000d7a:	f1a3 0208 	sub.w	r2, r3, #8
1a000d7e:	b2d2      	uxtb	r2, r2
1a000d80:	2a02      	cmp	r2, #2
1a000d82:	d9f2      	bls.n	1a000d6a <print_string_ptr+0x36>
                if (*input_pointer < 32)
1a000d84:	2b1f      	cmp	r3, #31
1a000d86:	d8f1      	bhi.n	1a000d6c <print_string_ptr+0x38>
                    escape_characters += 5;
1a000d88:	3605      	adds	r6, #5
1a000d8a:	e7ef      	b.n	1a000d6c <print_string_ptr+0x38>
    output_length = (size_t)(input_pointer - input) + escape_characters;
1a000d8c:	1b49      	subs	r1, r1, r5
1a000d8e:	198c      	adds	r4, r1, r6
    output = ensure(output_buffer, output_length + sizeof("\"\""));
1a000d90:	1ce1      	adds	r1, r4, #3
1a000d92:	f7ff fe67 	bl	1a000a64 <ensure>
    if (output == NULL)
1a000d96:	4607      	mov	r7, r0
1a000d98:	2800      	cmp	r0, #0
1a000d9a:	d059      	beq.n	1a000e50 <print_string_ptr+0x11c>
    if (escape_characters == 0)
1a000d9c:	b126      	cbz	r6, 1a000da8 <print_string_ptr+0x74>
    output[0] = '\"';
1a000d9e:	4606      	mov	r6, r0
1a000da0:	2322      	movs	r3, #34	; 0x22
1a000da2:	f806 3b01 	strb.w	r3, [r6], #1
    for (input_pointer = input; *input_pointer != '\0'; (void)input_pointer++, output_pointer++)
1a000da6:	e011      	b.n	1a000dcc <print_string_ptr+0x98>
        output[0] = '\"';
1a000da8:	2622      	movs	r6, #34	; 0x22
1a000daa:	f800 6b01 	strb.w	r6, [r0], #1
        memcpy(output + 1, input, output_length);
1a000dae:	4622      	mov	r2, r4
1a000db0:	4629      	mov	r1, r5
1a000db2:	f003 fa79 	bl	1a0042a8 <memcpy>
        output[output_length + 1] = '\"';
1a000db6:	1c63      	adds	r3, r4, #1
1a000db8:	54fe      	strb	r6, [r7, r3]
        output[output_length + 2] = '\0';
1a000dba:	3402      	adds	r4, #2
1a000dbc:	2300      	movs	r3, #0
1a000dbe:	553b      	strb	r3, [r7, r4]
        return true;
1a000dc0:	2001      	movs	r0, #1
1a000dc2:	e040      	b.n	1a000e46 <print_string_ptr+0x112>
            *output_pointer = *input_pointer;
1a000dc4:	7033      	strb	r3, [r6, #0]
1a000dc6:	4630      	mov	r0, r6
    for (input_pointer = input; *input_pointer != '\0'; (void)input_pointer++, output_pointer++)
1a000dc8:	3501      	adds	r5, #1
1a000dca:	1c46      	adds	r6, r0, #1
1a000dcc:	782b      	ldrb	r3, [r5, #0]
1a000dce:	b39b      	cbz	r3, 1a000e38 <print_string_ptr+0x104>
        if ((*input_pointer > 31) && (*input_pointer != '\"') && (*input_pointer != '\\'))
1a000dd0:	2b1f      	cmp	r3, #31
1a000dd2:	d903      	bls.n	1a000ddc <print_string_ptr+0xa8>
1a000dd4:	2b22      	cmp	r3, #34	; 0x22
1a000dd6:	d001      	beq.n	1a000ddc <print_string_ptr+0xa8>
1a000dd8:	2b5c      	cmp	r3, #92	; 0x5c
1a000dda:	d1f3      	bne.n	1a000dc4 <print_string_ptr+0x90>
            *output_pointer++ = '\\';
1a000ddc:	4630      	mov	r0, r6
1a000dde:	235c      	movs	r3, #92	; 0x5c
1a000de0:	f800 3b01 	strb.w	r3, [r0], #1
            switch (*input_pointer)
1a000de4:	782a      	ldrb	r2, [r5, #0]
1a000de6:	2a0c      	cmp	r2, #12
1a000de8:	d01d      	beq.n	1a000e26 <print_string_ptr+0xf2>
1a000dea:	d80a      	bhi.n	1a000e02 <print_string_ptr+0xce>
1a000dec:	2a09      	cmp	r2, #9
1a000dee:	d020      	beq.n	1a000e32 <print_string_ptr+0xfe>
1a000df0:	2a0a      	cmp	r2, #10
1a000df2:	d01b      	beq.n	1a000e2c <print_string_ptr+0xf8>
1a000df4:	2a08      	cmp	r2, #8
1a000df6:	d013      	beq.n	1a000e20 <print_string_ptr+0xec>
                    sprintf((char*)output_pointer, "u%04x", *input_pointer);
1a000df8:	4917      	ldr	r1, [pc, #92]	; (1a000e58 <print_string_ptr+0x124>)
1a000dfa:	f003 fb33 	bl	1a004464 <siprintf>
                    output_pointer += 4;
1a000dfe:	1d70      	adds	r0, r6, #5
                    break;
1a000e00:	e7e2      	b.n	1a000dc8 <print_string_ptr+0x94>
            switch (*input_pointer)
1a000e02:	2a22      	cmp	r2, #34	; 0x22
1a000e04:	d009      	beq.n	1a000e1a <print_string_ptr+0xe6>
1a000e06:	2a5c      	cmp	r2, #92	; 0x5c
1a000e08:	d004      	beq.n	1a000e14 <print_string_ptr+0xe0>
1a000e0a:	2a0d      	cmp	r2, #13
1a000e0c:	d1f4      	bne.n	1a000df8 <print_string_ptr+0xc4>
                    *output_pointer = 'r';
1a000e0e:	2372      	movs	r3, #114	; 0x72
1a000e10:	7073      	strb	r3, [r6, #1]
                    break;
1a000e12:	e7d9      	b.n	1a000dc8 <print_string_ptr+0x94>
                    *output_pointer = '\\';
1a000e14:	235c      	movs	r3, #92	; 0x5c
1a000e16:	7073      	strb	r3, [r6, #1]
                    break;
1a000e18:	e7d6      	b.n	1a000dc8 <print_string_ptr+0x94>
                    *output_pointer = '\"';
1a000e1a:	2322      	movs	r3, #34	; 0x22
1a000e1c:	7073      	strb	r3, [r6, #1]
                    break;
1a000e1e:	e7d3      	b.n	1a000dc8 <print_string_ptr+0x94>
                    *output_pointer = 'b';
1a000e20:	2362      	movs	r3, #98	; 0x62
1a000e22:	7073      	strb	r3, [r6, #1]
                    break;
1a000e24:	e7d0      	b.n	1a000dc8 <print_string_ptr+0x94>
                    *output_pointer = 'f';
1a000e26:	2366      	movs	r3, #102	; 0x66
1a000e28:	7073      	strb	r3, [r6, #1]
                    break;
1a000e2a:	e7cd      	b.n	1a000dc8 <print_string_ptr+0x94>
                    *output_pointer = 'n';
1a000e2c:	236e      	movs	r3, #110	; 0x6e
1a000e2e:	7073      	strb	r3, [r6, #1]
                    break;
1a000e30:	e7ca      	b.n	1a000dc8 <print_string_ptr+0x94>
                    *output_pointer = 't';
1a000e32:	2374      	movs	r3, #116	; 0x74
1a000e34:	7073      	strb	r3, [r6, #1]
                    break;
1a000e36:	e7c7      	b.n	1a000dc8 <print_string_ptr+0x94>
    output[output_length + 1] = '\"';
1a000e38:	1c63      	adds	r3, r4, #1
1a000e3a:	2222      	movs	r2, #34	; 0x22
1a000e3c:	54fa      	strb	r2, [r7, r3]
    output[output_length + 2] = '\0';
1a000e3e:	3402      	adds	r4, #2
1a000e40:	2300      	movs	r3, #0
1a000e42:	553b      	strb	r3, [r7, r4]
    return true;
1a000e44:	2001      	movs	r0, #1
}
1a000e46:	bdf8      	pop	{r3, r4, r5, r6, r7, pc}
        return false;
1a000e48:	2000      	movs	r0, #0
}
1a000e4a:	4770      	bx	lr
            return false;
1a000e4c:	2000      	movs	r0, #0
1a000e4e:	e7fa      	b.n	1a000e46 <print_string_ptr+0x112>
        return false;
1a000e50:	2000      	movs	r0, #0
1a000e52:	e7f8      	b.n	1a000e46 <print_string_ptr+0x112>
1a000e54:	1a007950 	.word	0x1a007950
1a000e58:	1a007954 	.word	0x1a007954

1a000e5c <print_string>:
{
1a000e5c:	b508      	push	{r3, lr}
    return print_string_ptr((unsigned char*)item->valuestring, p);
1a000e5e:	6900      	ldr	r0, [r0, #16]
1a000e60:	f7ff ff68 	bl	1a000d34 <print_string_ptr>
}
1a000e64:	bd08      	pop	{r3, pc}
1a000e66:	Address 0x1a000e66 is out of bounds.


1a000e68 <print_number>:
{
1a000e68:	e92d 47f0 	stmdb	sp!, {r4, r5, r6, r7, r8, r9, sl, lr}
1a000e6c:	b08a      	sub	sp, #40	; 0x28
1a000e6e:	4682      	mov	sl, r0
1a000e70:	4688      	mov	r8, r1
    double d = item->valuedouble;
1a000e72:	e9d0 4506 	ldrd	r4, r5, [r0, #24]
    unsigned char number_buffer[26] = {0}; /* temporary buffer to print the number into */
1a000e76:	2300      	movs	r3, #0
1a000e78:	9303      	str	r3, [sp, #12]
1a000e7a:	9304      	str	r3, [sp, #16]
1a000e7c:	9305      	str	r3, [sp, #20]
1a000e7e:	9306      	str	r3, [sp, #24]
1a000e80:	9307      	str	r3, [sp, #28]
1a000e82:	9308      	str	r3, [sp, #32]
1a000e84:	f8ad 3024 	strh.w	r3, [sp, #36]	; 0x24
    unsigned char decimal_point = get_decimal_point();
1a000e88:	f7ff fc24 	bl	1a0006d4 <get_decimal_point>
    double test = 0.0;
1a000e8c:	2200      	movs	r2, #0
1a000e8e:	2300      	movs	r3, #0
1a000e90:	e9cd 2300 	strd	r2, r3, [sp]
    if (output_buffer == NULL)
1a000e94:	f1b8 0f00 	cmp.w	r8, #0
1a000e98:	d074      	beq.n	1a000f84 <print_number+0x11c>
1a000e9a:	4681      	mov	r9, r0
    if (isnan(d) || isinf(d))
1a000e9c:	4622      	mov	r2, r4
1a000e9e:	462b      	mov	r3, r5
1a000ea0:	4620      	mov	r0, r4
1a000ea2:	4629      	mov	r1, r5
1a000ea4:	f002 ffec 	bl	1a003e80 <__aeabi_dcmpun>
1a000ea8:	b988      	cbnz	r0, 1a000ece <print_number+0x66>
1a000eaa:	f025 4700 	bic.w	r7, r5, #2147483648	; 0x80000000
1a000eae:	f04f 32ff 	mov.w	r2, #4294967295
1a000eb2:	4b36      	ldr	r3, [pc, #216]	; (1a000f8c <print_number+0x124>)
1a000eb4:	4620      	mov	r0, r4
1a000eb6:	4639      	mov	r1, r7
1a000eb8:	f002 ffe2 	bl	1a003e80 <__aeabi_dcmpun>
1a000ebc:	b9a8      	cbnz	r0, 1a000eea <print_number+0x82>
1a000ebe:	f04f 32ff 	mov.w	r2, #4294967295
1a000ec2:	4b32      	ldr	r3, [pc, #200]	; (1a000f8c <print_number+0x124>)
1a000ec4:	4620      	mov	r0, r4
1a000ec6:	4639      	mov	r1, r7
1a000ec8:	f002 ffbc 	bl	1a003e44 <__aeabi_dcmple>
1a000ecc:	b968      	cbnz	r0, 1a000eea <print_number+0x82>
        length = sprintf((char*)number_buffer, "null");
1a000ece:	4b30      	ldr	r3, [pc, #192]	; (1a000f90 <print_number+0x128>)
1a000ed0:	e893 0003 	ldmia.w	r3, {r0, r1}
1a000ed4:	9003      	str	r0, [sp, #12]
1a000ed6:	f88d 1010 	strb.w	r1, [sp, #16]
1a000eda:	2604      	movs	r6, #4
    if ((length < 0) || (length > (int)(sizeof(number_buffer) - 1)))
1a000edc:	4634      	mov	r4, r6
1a000ede:	2e19      	cmp	r6, #25
1a000ee0:	d932      	bls.n	1a000f48 <print_number+0xe0>
        return false;
1a000ee2:	2000      	movs	r0, #0
}
1a000ee4:	b00a      	add	sp, #40	; 0x28
1a000ee6:	e8bd 87f0 	ldmia.w	sp!, {r4, r5, r6, r7, r8, r9, sl, pc}
	else if(d == (double)item->valueint)
1a000eea:	f8da 6014 	ldr.w	r6, [sl, #20]
1a000eee:	4630      	mov	r0, r6
1a000ef0:	f002 fcc2 	bl	1a003878 <__aeabi_i2d>
1a000ef4:	4622      	mov	r2, r4
1a000ef6:	462b      	mov	r3, r5
1a000ef8:	f002 ff90 	bl	1a003e1c <__aeabi_dcmpeq>
1a000efc:	b130      	cbz	r0, 1a000f0c <print_number+0xa4>
		length = sprintf((char*)number_buffer, "%d", item->valueint);
1a000efe:	4632      	mov	r2, r6
1a000f00:	4924      	ldr	r1, [pc, #144]	; (1a000f94 <print_number+0x12c>)
1a000f02:	a803      	add	r0, sp, #12
1a000f04:	f003 faae 	bl	1a004464 <siprintf>
1a000f08:	4606      	mov	r6, r0
1a000f0a:	e7e7      	b.n	1a000edc <print_number+0x74>
        length = sprintf((char*)number_buffer, "%1.15g", d);
1a000f0c:	4622      	mov	r2, r4
1a000f0e:	462b      	mov	r3, r5
1a000f10:	4921      	ldr	r1, [pc, #132]	; (1a000f98 <print_number+0x130>)
1a000f12:	a803      	add	r0, sp, #12
1a000f14:	f003 faa6 	bl	1a004464 <siprintf>
1a000f18:	4606      	mov	r6, r0
        if ((sscanf((char*)number_buffer, "%lg", &test) != 1) || !compare_double((double)test, d))
1a000f1a:	466a      	mov	r2, sp
1a000f1c:	491f      	ldr	r1, [pc, #124]	; (1a000f9c <print_number+0x134>)
1a000f1e:	a803      	add	r0, sp, #12
1a000f20:	f003 fac0 	bl	1a0044a4 <siscanf>
1a000f24:	2801      	cmp	r0, #1
1a000f26:	d107      	bne.n	1a000f38 <print_number+0xd0>
1a000f28:	4622      	mov	r2, r4
1a000f2a:	462b      	mov	r3, r5
1a000f2c:	e9dd 0100 	ldrd	r0, r1, [sp]
1a000f30:	f7ff fbd2 	bl	1a0006d8 <compare_double>
1a000f34:	2800      	cmp	r0, #0
1a000f36:	d1d1      	bne.n	1a000edc <print_number+0x74>
            length = sprintf((char*)number_buffer, "%1.17g", d);
1a000f38:	4622      	mov	r2, r4
1a000f3a:	462b      	mov	r3, r5
1a000f3c:	4918      	ldr	r1, [pc, #96]	; (1a000fa0 <print_number+0x138>)
1a000f3e:	a803      	add	r0, sp, #12
1a000f40:	f003 fa90 	bl	1a004464 <siprintf>
1a000f44:	4606      	mov	r6, r0
1a000f46:	e7c9      	b.n	1a000edc <print_number+0x74>
    output_pointer = ensure(output_buffer, (size_t)length + sizeof(""));
1a000f48:	1c71      	adds	r1, r6, #1
1a000f4a:	4640      	mov	r0, r8
1a000f4c:	f7ff fd8a 	bl	1a000a64 <ensure>
    if (output_pointer == NULL)
1a000f50:	4601      	mov	r1, r0
1a000f52:	b1c8      	cbz	r0, 1a000f88 <print_number+0x120>
    for (i = 0; i < ((size_t)length); i++)
1a000f54:	2300      	movs	r3, #0
1a000f56:	e002      	b.n	1a000f5e <print_number+0xf6>
            output_pointer[i] = '.';
1a000f58:	222e      	movs	r2, #46	; 0x2e
1a000f5a:	54ca      	strb	r2, [r1, r3]
    for (i = 0; i < ((size_t)length); i++)
1a000f5c:	3301      	adds	r3, #1
1a000f5e:	429c      	cmp	r4, r3
1a000f60:	d907      	bls.n	1a000f72 <print_number+0x10a>
        if (number_buffer[i] == decimal_point)
1a000f62:	aa0a      	add	r2, sp, #40	; 0x28
1a000f64:	441a      	add	r2, r3
1a000f66:	f812 2c1c 	ldrb.w	r2, [r2, #-28]
1a000f6a:	454a      	cmp	r2, r9
1a000f6c:	d0f4      	beq.n	1a000f58 <print_number+0xf0>
        output_pointer[i] = number_buffer[i];
1a000f6e:	54ca      	strb	r2, [r1, r3]
1a000f70:	e7f4      	b.n	1a000f5c <print_number+0xf4>
    output_pointer[i] = '\0';
1a000f72:	2200      	movs	r2, #0
1a000f74:	54ca      	strb	r2, [r1, r3]
    output_buffer->offset += (size_t)length;
1a000f76:	f8d8 3008 	ldr.w	r3, [r8, #8]
1a000f7a:	441c      	add	r4, r3
1a000f7c:	f8c8 4008 	str.w	r4, [r8, #8]
    return true;
1a000f80:	2001      	movs	r0, #1
1a000f82:	e7af      	b.n	1a000ee4 <print_number+0x7c>
        return false;
1a000f84:	2000      	movs	r0, #0
1a000f86:	e7ad      	b.n	1a000ee4 <print_number+0x7c>
        return false;
1a000f88:	2000      	movs	r0, #0
1a000f8a:	e7ab      	b.n	1a000ee4 <print_number+0x7c>
1a000f8c:	7fefffff 	.word	0x7fefffff
1a000f90:	1a007930 	.word	0x1a007930
1a000f94:	1a007938 	.word	0x1a007938
1a000f98:	1a00793c 	.word	0x1a00793c
1a000f9c:	1a007944 	.word	0x1a007944
1a000fa0:	1a007948 	.word	0x1a007948

1a000fa4 <print_value>:
/* Render a value to text. */
static cJSON_bool print_value(const cJSON * const item, printbuffer * const output_buffer)
{
    unsigned char *output = NULL;

    if ((item == NULL) || (output_buffer == NULL))
1a000fa4:	2800      	cmp	r0, #0
1a000fa6:	d062      	beq.n	1a00106e <print_value+0xca>
{
1a000fa8:	b570      	push	{r4, r5, r6, lr}
1a000faa:	4605      	mov	r5, r0
    if ((item == NULL) || (output_buffer == NULL))
1a000fac:	2900      	cmp	r1, #0
1a000fae:	d060      	beq.n	1a001072 <print_value+0xce>
1a000fb0:	460c      	mov	r4, r1
    {
        return false;
    }

    switch ((item->type) & 0xFF)
1a000fb2:	7b03      	ldrb	r3, [r0, #12]
1a000fb4:	2b08      	cmp	r3, #8
1a000fb6:	d051      	beq.n	1a00105c <print_value+0xb8>
1a000fb8:	dd18      	ble.n	1a000fec <print_value+0x48>
1a000fba:	2b20      	cmp	r3, #32
1a000fbc:	d051      	beq.n	1a001062 <print_value+0xbe>
1a000fbe:	dd1d      	ble.n	1a000ffc <print_value+0x58>
1a000fc0:	2b40      	cmp	r3, #64	; 0x40
1a000fc2:	d051      	beq.n	1a001068 <print_value+0xc4>
1a000fc4:	2b80      	cmp	r3, #128	; 0x80
1a000fc6:	d120      	bne.n	1a00100a <print_value+0x66>
            return print_number(item, output_buffer);

        case cJSON_Raw:
        {
            size_t raw_length = 0;
            if (item->valuestring == NULL)
1a000fc8:	6900      	ldr	r0, [r0, #16]
1a000fca:	2800      	cmp	r0, #0
1a000fcc:	d059      	beq.n	1a001082 <print_value+0xde>
            {
                return false;
            }

            raw_length = strlen(item->valuestring) + sizeof("");
1a000fce:	f003 fae2 	bl	1a004596 <strlen>
1a000fd2:	1c46      	adds	r6, r0, #1
            output = ensure(output_buffer, raw_length);
1a000fd4:	4631      	mov	r1, r6
1a000fd6:	4620      	mov	r0, r4
1a000fd8:	f7ff fd44 	bl	1a000a64 <ensure>
            if (output == NULL)
1a000fdc:	2800      	cmp	r0, #0
1a000fde:	d052      	beq.n	1a001086 <print_value+0xe2>
            {
                return false;
            }
            memcpy(output, item->valuestring, raw_length);
1a000fe0:	4632      	mov	r2, r6
1a000fe2:	6929      	ldr	r1, [r5, #16]
1a000fe4:	f003 f960 	bl	1a0042a8 <memcpy>
            return true;
1a000fe8:	2001      	movs	r0, #1
1a000fea:	e006      	b.n	1a000ffa <print_value+0x56>
    switch ((item->type) & 0xFF)
1a000fec:	2b02      	cmp	r3, #2
1a000fee:	d028      	beq.n	1a001042 <print_value+0x9e>
1a000ff0:	2b04      	cmp	r3, #4
1a000ff2:	d00c      	beq.n	1a00100e <print_value+0x6a>
1a000ff4:	2b01      	cmp	r3, #1
1a000ff6:	d017      	beq.n	1a001028 <print_value+0x84>

        case cJSON_Object:
            return print_object(item, output_buffer);

        default:
            return false;
1a000ff8:	2000      	movs	r0, #0
    }
}
1a000ffa:	bd70      	pop	{r4, r5, r6, pc}
    switch ((item->type) & 0xFF)
1a000ffc:	2b10      	cmp	r3, #16
1a000ffe:	d102      	bne.n	1a001006 <print_value+0x62>
            return print_string(item, output_buffer);
1a001000:	f7ff ff2c 	bl	1a000e5c <print_string>
1a001004:	e7f9      	b.n	1a000ffa <print_value+0x56>
            return false;
1a001006:	2000      	movs	r0, #0
1a001008:	e7f7      	b.n	1a000ffa <print_value+0x56>
1a00100a:	2000      	movs	r0, #0
1a00100c:	e7f5      	b.n	1a000ffa <print_value+0x56>
            output = ensure(output_buffer, 5);
1a00100e:	2105      	movs	r1, #5
1a001010:	4620      	mov	r0, r4
1a001012:	f7ff fd27 	bl	1a000a64 <ensure>
            if (output == NULL)
1a001016:	4603      	mov	r3, r0
1a001018:	b368      	cbz	r0, 1a001076 <print_value+0xd2>
            strcpy((char*)output, "null");
1a00101a:	4a1c      	ldr	r2, [pc, #112]	; (1a00108c <print_value+0xe8>)
1a00101c:	6810      	ldr	r0, [r2, #0]
1a00101e:	6018      	str	r0, [r3, #0]
1a001020:	7912      	ldrb	r2, [r2, #4]
1a001022:	711a      	strb	r2, [r3, #4]
            return true;
1a001024:	2001      	movs	r0, #1
1a001026:	e7e8      	b.n	1a000ffa <print_value+0x56>
            output = ensure(output_buffer, 6);
1a001028:	2106      	movs	r1, #6
1a00102a:	4620      	mov	r0, r4
1a00102c:	f7ff fd1a 	bl	1a000a64 <ensure>
            if (output == NULL)
1a001030:	4603      	mov	r3, r0
1a001032:	b310      	cbz	r0, 1a00107a <print_value+0xd6>
            strcpy((char*)output, "false");
1a001034:	4a16      	ldr	r2, [pc, #88]	; (1a001090 <print_value+0xec>)
1a001036:	6810      	ldr	r0, [r2, #0]
1a001038:	6018      	str	r0, [r3, #0]
1a00103a:	8892      	ldrh	r2, [r2, #4]
1a00103c:	809a      	strh	r2, [r3, #4]
            return true;
1a00103e:	2001      	movs	r0, #1
1a001040:	e7db      	b.n	1a000ffa <print_value+0x56>
            output = ensure(output_buffer, 5);
1a001042:	2105      	movs	r1, #5
1a001044:	4620      	mov	r0, r4
1a001046:	f7ff fd0d 	bl	1a000a64 <ensure>
            if (output == NULL)
1a00104a:	4603      	mov	r3, r0
1a00104c:	b1b8      	cbz	r0, 1a00107e <print_value+0xda>
            strcpy((char*)output, "true");
1a00104e:	4a11      	ldr	r2, [pc, #68]	; (1a001094 <print_value+0xf0>)
1a001050:	6810      	ldr	r0, [r2, #0]
1a001052:	6018      	str	r0, [r3, #0]
1a001054:	7912      	ldrb	r2, [r2, #4]
1a001056:	711a      	strb	r2, [r3, #4]
            return true;
1a001058:	2001      	movs	r0, #1
1a00105a:	e7ce      	b.n	1a000ffa <print_value+0x56>
            return print_number(item, output_buffer);
1a00105c:	f7ff ff04 	bl	1a000e68 <print_number>
1a001060:	e7cb      	b.n	1a000ffa <print_value+0x56>
            return print_array(item, output_buffer);
1a001062:	f000 f869 	bl	1a001138 <print_array>
1a001066:	e7c8      	b.n	1a000ffa <print_value+0x56>
            return print_object(item, output_buffer);
1a001068:	f000 f8ba 	bl	1a0011e0 <print_object>
1a00106c:	e7c5      	b.n	1a000ffa <print_value+0x56>
        return false;
1a00106e:	2000      	movs	r0, #0
}
1a001070:	4770      	bx	lr
        return false;
1a001072:	2000      	movs	r0, #0
1a001074:	e7c1      	b.n	1a000ffa <print_value+0x56>
                return false;
1a001076:	2000      	movs	r0, #0
1a001078:	e7bf      	b.n	1a000ffa <print_value+0x56>
                return false;
1a00107a:	2000      	movs	r0, #0
1a00107c:	e7bd      	b.n	1a000ffa <print_value+0x56>
                return false;
1a00107e:	2000      	movs	r0, #0
1a001080:	e7bb      	b.n	1a000ffa <print_value+0x56>
                return false;
1a001082:	2000      	movs	r0, #0
1a001084:	e7b9      	b.n	1a000ffa <print_value+0x56>
                return false;
1a001086:	2000      	movs	r0, #0
1a001088:	e7b7      	b.n	1a000ffa <print_value+0x56>
1a00108a:	bf00      	nop
1a00108c:	1a007930 	.word	0x1a007930
1a001090:	1a00795c 	.word	0x1a00795c
1a001094:	1a007964 	.word	0x1a007964

1a001098 <print>:
{
1a001098:	b5f0      	push	{r4, r5, r6, r7, lr}
1a00109a:	b08b      	sub	sp, #44	; 0x2c
1a00109c:	4607      	mov	r7, r0
1a00109e:	460e      	mov	r6, r1
1a0010a0:	4615      	mov	r5, r2
    memset(buffer, 0, sizeof(buffer));
1a0010a2:	2224      	movs	r2, #36	; 0x24
1a0010a4:	2100      	movs	r1, #0
1a0010a6:	a801      	add	r0, sp, #4
1a0010a8:	f003 f90c 	bl	1a0042c4 <memset>
    buffer->buffer = (unsigned char*) hooks->allocate(default_buffer_size);
1a0010ac:	682b      	ldr	r3, [r5, #0]
1a0010ae:	f44f 7080 	mov.w	r0, #256	; 0x100
1a0010b2:	4798      	blx	r3
1a0010b4:	4604      	mov	r4, r0
1a0010b6:	9001      	str	r0, [sp, #4]
    buffer->length = default_buffer_size;
1a0010b8:	f44f 7380 	mov.w	r3, #256	; 0x100
1a0010bc:	9302      	str	r3, [sp, #8]
    buffer->format = format;
1a0010be:	9606      	str	r6, [sp, #24]
    buffer->hooks = *hooks;
1a0010c0:	e895 0007 	ldmia.w	r5, {r0, r1, r2}
1a0010c4:	ab0a      	add	r3, sp, #40	; 0x28
1a0010c6:	e903 0007 	stmdb	r3, {r0, r1, r2}
    if (buffer->buffer == NULL)
1a0010ca:	b12c      	cbz	r4, 1a0010d8 <print+0x40>
    if (!print_value(item, buffer))
1a0010cc:	a901      	add	r1, sp, #4
1a0010ce:	4638      	mov	r0, r7
1a0010d0:	f7ff ff68 	bl	1a000fa4 <print_value>
1a0010d4:	b960      	cbnz	r0, 1a0010f0 <print+0x58>
    unsigned char *printed = NULL;
1a0010d6:	2400      	movs	r4, #0
    if (buffer->buffer != NULL)
1a0010d8:	9801      	ldr	r0, [sp, #4]
1a0010da:	b108      	cbz	r0, 1a0010e0 <print+0x48>
        hooks->deallocate(buffer->buffer);
1a0010dc:	686b      	ldr	r3, [r5, #4]
1a0010de:	4798      	blx	r3
    if (printed != NULL)
1a0010e0:	b11c      	cbz	r4, 1a0010ea <print+0x52>
        hooks->deallocate(printed);
1a0010e2:	686b      	ldr	r3, [r5, #4]
1a0010e4:	4620      	mov	r0, r4
1a0010e6:	4798      	blx	r3
    return NULL;
1a0010e8:	2400      	movs	r4, #0
}
1a0010ea:	4620      	mov	r0, r4
1a0010ec:	b00b      	add	sp, #44	; 0x2c
1a0010ee:	bdf0      	pop	{r4, r5, r6, r7, pc}
    update_offset(buffer);
1a0010f0:	a801      	add	r0, sp, #4
1a0010f2:	f7ff fcaa 	bl	1a000a4a <update_offset>
    if (hooks->reallocate != NULL)
1a0010f6:	68ab      	ldr	r3, [r5, #8]
1a0010f8:	b13b      	cbz	r3, 1a00110a <print+0x72>
        printed = (unsigned char*) hooks->reallocate(buffer->buffer, buffer->offset + 1);
1a0010fa:	9903      	ldr	r1, [sp, #12]
1a0010fc:	3101      	adds	r1, #1
1a0010fe:	9801      	ldr	r0, [sp, #4]
1a001100:	4798      	blx	r3
        if (printed == NULL) {
1a001102:	4604      	mov	r4, r0
1a001104:	2800      	cmp	r0, #0
1a001106:	d1f0      	bne.n	1a0010ea <print+0x52>
1a001108:	e7e6      	b.n	1a0010d8 <print+0x40>
        printed = (unsigned char*) hooks->allocate(buffer->offset + 1);
1a00110a:	682b      	ldr	r3, [r5, #0]
1a00110c:	9803      	ldr	r0, [sp, #12]
1a00110e:	3001      	adds	r0, #1
1a001110:	4798      	blx	r3
        if (printed == NULL)
1a001112:	4604      	mov	r4, r0
1a001114:	2800      	cmp	r0, #0
1a001116:	d0df      	beq.n	1a0010d8 <print+0x40>
        memcpy(printed, buffer->buffer, cjson_min(buffer->length, buffer->offset + 1));
1a001118:	9a03      	ldr	r2, [sp, #12]
1a00111a:	3201      	adds	r2, #1
1a00111c:	9b02      	ldr	r3, [sp, #8]
1a00111e:	429a      	cmp	r2, r3
1a001120:	bf28      	it	cs
1a001122:	461a      	movcs	r2, r3
1a001124:	9901      	ldr	r1, [sp, #4]
1a001126:	f003 f8bf 	bl	1a0042a8 <memcpy>
        printed[buffer->offset] = '\0'; /* just to be sure */
1a00112a:	9b03      	ldr	r3, [sp, #12]
1a00112c:	2200      	movs	r2, #0
1a00112e:	54e2      	strb	r2, [r4, r3]
        hooks->deallocate(buffer->buffer);
1a001130:	686b      	ldr	r3, [r5, #4]
1a001132:	9801      	ldr	r0, [sp, #4]
1a001134:	4798      	blx	r3
1a001136:	e7d8      	b.n	1a0010ea <print+0x52>

1a001138 <print_array>:
    return false;
}

/* Render an array to text */
static cJSON_bool print_array(const cJSON * const item, printbuffer * const output_buffer)
{
1a001138:	b570      	push	{r4, r5, r6, lr}
    unsigned char *output_pointer = NULL;
    size_t length = 0;
    cJSON *current_element = item->child;
1a00113a:	6885      	ldr	r5, [r0, #8]

    if (output_buffer == NULL)
1a00113c:	2900      	cmp	r1, #0
1a00113e:	d046      	beq.n	1a0011ce <print_array+0x96>
1a001140:	460c      	mov	r4, r1
        return false;
    }

    /* Compose the output array. */
    /* opening square bracket */
    output_pointer = ensure(output_buffer, 1);
1a001142:	2101      	movs	r1, #1
1a001144:	4620      	mov	r0, r4
1a001146:	f7ff fc8d 	bl	1a000a64 <ensure>
    if (output_pointer == NULL)
1a00114a:	2800      	cmp	r0, #0
1a00114c:	d042      	beq.n	1a0011d4 <print_array+0x9c>
    {
        return false;
    }

    *output_pointer = '[';
1a00114e:	225b      	movs	r2, #91	; 0x5b
1a001150:	7002      	strb	r2, [r0, #0]
    output_buffer->offset++;
1a001152:	68a3      	ldr	r3, [r4, #8]
1a001154:	3301      	adds	r3, #1
1a001156:	60a3      	str	r3, [r4, #8]
    output_buffer->depth++;
1a001158:	68e3      	ldr	r3, [r4, #12]
1a00115a:	3301      	adds	r3, #1
1a00115c:	60e3      	str	r3, [r4, #12]

    while (current_element != NULL)
1a00115e:	e007      	b.n	1a001170 <print_array+0x38>
            return false;
        }
        update_offset(output_buffer);
        if (current_element->next)
        {
            length = (size_t) (output_buffer->format ? 2 : 1);
1a001160:	2601      	movs	r6, #1
1a001162:	e016      	b.n	1a001192 <print_array+0x5a>
            *output_pointer++ = ',';
            if(output_buffer->format)
            {
                *output_pointer++ = ' ';
            }
            *output_pointer = '\0';
1a001164:	2200      	movs	r2, #0
1a001166:	701a      	strb	r2, [r3, #0]
            output_buffer->offset += length;
1a001168:	68a3      	ldr	r3, [r4, #8]
1a00116a:	4433      	add	r3, r6
1a00116c:	60a3      	str	r3, [r4, #8]
        }
        current_element = current_element->next;
1a00116e:	682d      	ldr	r5, [r5, #0]
    while (current_element != NULL)
1a001170:	b1fd      	cbz	r5, 1a0011b2 <print_array+0x7a>
        if (!print_value(current_element, output_buffer))
1a001172:	4621      	mov	r1, r4
1a001174:	4628      	mov	r0, r5
1a001176:	f7ff ff15 	bl	1a000fa4 <print_value>
1a00117a:	4603      	mov	r3, r0
1a00117c:	b340      	cbz	r0, 1a0011d0 <print_array+0x98>
        update_offset(output_buffer);
1a00117e:	4620      	mov	r0, r4
1a001180:	f7ff fc63 	bl	1a000a4a <update_offset>
        if (current_element->next)
1a001184:	682b      	ldr	r3, [r5, #0]
1a001186:	2b00      	cmp	r3, #0
1a001188:	d0f1      	beq.n	1a00116e <print_array+0x36>
            length = (size_t) (output_buffer->format ? 2 : 1);
1a00118a:	6963      	ldr	r3, [r4, #20]
1a00118c:	2b00      	cmp	r3, #0
1a00118e:	d0e7      	beq.n	1a001160 <print_array+0x28>
1a001190:	2602      	movs	r6, #2
            output_pointer = ensure(output_buffer, length + 1);
1a001192:	1c71      	adds	r1, r6, #1
1a001194:	4620      	mov	r0, r4
1a001196:	f7ff fc65 	bl	1a000a64 <ensure>
            if (output_pointer == NULL)
1a00119a:	b1e8      	cbz	r0, 1a0011d8 <print_array+0xa0>
            *output_pointer++ = ',';
1a00119c:	4603      	mov	r3, r0
1a00119e:	212c      	movs	r1, #44	; 0x2c
1a0011a0:	f803 1b01 	strb.w	r1, [r3], #1
            if(output_buffer->format)
1a0011a4:	6961      	ldr	r1, [r4, #20]
1a0011a6:	2900      	cmp	r1, #0
1a0011a8:	d0dc      	beq.n	1a001164 <print_array+0x2c>
                *output_pointer++ = ' ';
1a0011aa:	1c83      	adds	r3, r0, #2
1a0011ac:	2120      	movs	r1, #32
1a0011ae:	7041      	strb	r1, [r0, #1]
1a0011b0:	e7d8      	b.n	1a001164 <print_array+0x2c>
    }

    output_pointer = ensure(output_buffer, 2);
1a0011b2:	2102      	movs	r1, #2
1a0011b4:	4620      	mov	r0, r4
1a0011b6:	f7ff fc55 	bl	1a000a64 <ensure>
    if (output_pointer == NULL)
1a0011ba:	b178      	cbz	r0, 1a0011dc <print_array+0xa4>
    {
        return false;
    }
    *output_pointer++ = ']';
1a0011bc:	225d      	movs	r2, #93	; 0x5d
1a0011be:	7002      	strb	r2, [r0, #0]
    *output_pointer = '\0';
1a0011c0:	2200      	movs	r2, #0
1a0011c2:	7042      	strb	r2, [r0, #1]
    output_buffer->depth--;
1a0011c4:	68e3      	ldr	r3, [r4, #12]
1a0011c6:	3b01      	subs	r3, #1
1a0011c8:	60e3      	str	r3, [r4, #12]

    return true;
1a0011ca:	2301      	movs	r3, #1
1a0011cc:	e000      	b.n	1a0011d0 <print_array+0x98>
        return false;
1a0011ce:	2300      	movs	r3, #0
}
1a0011d0:	4618      	mov	r0, r3
1a0011d2:	bd70      	pop	{r4, r5, r6, pc}
        return false;
1a0011d4:	2300      	movs	r3, #0
1a0011d6:	e7fb      	b.n	1a0011d0 <print_array+0x98>
                return false;
1a0011d8:	2300      	movs	r3, #0
1a0011da:	e7f9      	b.n	1a0011d0 <print_array+0x98>
        return false;
1a0011dc:	2300      	movs	r3, #0
1a0011de:	e7f7      	b.n	1a0011d0 <print_array+0x98>

1a0011e0 <print_object>:
    return false;
}

/* Render an object to text. */
static cJSON_bool print_object(const cJSON * const item, printbuffer * const output_buffer)
{
1a0011e0:	b570      	push	{r4, r5, r6, lr}
    unsigned char *output_pointer = NULL;
    size_t length = 0;
    cJSON *current_item = item->child;
1a0011e2:	6885      	ldr	r5, [r0, #8]

    if (output_buffer == NULL)
1a0011e4:	2900      	cmp	r1, #0
1a0011e6:	f000 80a7 	beq.w	1a001338 <print_object+0x158>
1a0011ea:	460c      	mov	r4, r1
    {
        return false;
    }

    /* Compose the output: */
    length = (size_t) (output_buffer->format ? 2 : 1); /* fmt: {\n */
1a0011ec:	694b      	ldr	r3, [r1, #20]
1a0011ee:	b1a3      	cbz	r3, 1a00121a <print_object+0x3a>
1a0011f0:	2602      	movs	r6, #2
    output_pointer = ensure(output_buffer, length + 1);
1a0011f2:	1c71      	adds	r1, r6, #1
1a0011f4:	4620      	mov	r0, r4
1a0011f6:	f7ff fc35 	bl	1a000a64 <ensure>
    if (output_pointer == NULL)
1a0011fa:	2800      	cmp	r0, #0
1a0011fc:	f000 809f 	beq.w	1a00133e <print_object+0x15e>
    {
        return false;
    }

    *output_pointer++ = '{';
1a001200:	237b      	movs	r3, #123	; 0x7b
1a001202:	7003      	strb	r3, [r0, #0]
    output_buffer->depth++;
1a001204:	68e3      	ldr	r3, [r4, #12]
1a001206:	3301      	adds	r3, #1
1a001208:	60e3      	str	r3, [r4, #12]
    if (output_buffer->format)
1a00120a:	6963      	ldr	r3, [r4, #20]
1a00120c:	b10b      	cbz	r3, 1a001212 <print_object+0x32>
    {
        *output_pointer++ = '\n';
1a00120e:	230a      	movs	r3, #10
1a001210:	7043      	strb	r3, [r0, #1]
    }
    output_buffer->offset += length;
1a001212:	68a3      	ldr	r3, [r4, #8]
1a001214:	4433      	add	r3, r6
1a001216:	60a3      	str	r3, [r4, #8]

    while (current_item)
1a001218:	e024      	b.n	1a001264 <print_object+0x84>
    length = (size_t) (output_buffer->format ? 2 : 1); /* fmt: {\n */
1a00121a:	2601      	movs	r6, #1
1a00121c:	e7e9      	b.n	1a0011f2 <print_object+0x12>
    {
        if (output_buffer->format)
        {
            size_t i;
            output_pointer = ensure(output_buffer, output_buffer->depth);
1a00121e:	68e1      	ldr	r1, [r4, #12]
1a001220:	4620      	mov	r0, r4
1a001222:	f7ff fc1f 	bl	1a000a64 <ensure>
            if (output_pointer == NULL)
1a001226:	4603      	mov	r3, r0
1a001228:	2800      	cmp	r0, #0
1a00122a:	f000 808a 	beq.w	1a001342 <print_object+0x162>
            {
                return false;
            }
            for (i = 0; i < output_buffer->depth; i++)
1a00122e:	2200      	movs	r2, #0
1a001230:	68e1      	ldr	r1, [r4, #12]
1a001232:	4291      	cmp	r1, r2
1a001234:	d906      	bls.n	1a001244 <print_object+0x64>
            {
                *output_pointer++ = '\t';
1a001236:	4618      	mov	r0, r3
1a001238:	2309      	movs	r3, #9
1a00123a:	f800 3b01 	strb.w	r3, [r0], #1
            for (i = 0; i < output_buffer->depth; i++)
1a00123e:	3201      	adds	r2, #1
                *output_pointer++ = '\t';
1a001240:	4603      	mov	r3, r0
1a001242:	e7f5      	b.n	1a001230 <print_object+0x50>
            }
            output_buffer->offset += output_buffer->depth;
1a001244:	68a3      	ldr	r3, [r4, #8]
1a001246:	4419      	add	r1, r3
1a001248:	60a1      	str	r1, [r4, #8]
1a00124a:	e010      	b.n	1a00126e <print_object+0x8e>
        {
            return false;
        }
        update_offset(output_buffer);

        length = (size_t) (output_buffer->format ? 2 : 1);
1a00124c:	2601      	movs	r6, #1
1a00124e:	e01c      	b.n	1a00128a <print_object+0xaa>
            return false;
        }
        update_offset(output_buffer);

        /* print comma if not last */
        length = ((size_t)(output_buffer->format ? 1 : 0) + (size_t)(current_item->next ? 1 : 0));
1a001250:	2600      	movs	r6, #0
1a001252:	e037      	b.n	1a0012c4 <print_object+0xe4>
1a001254:	2300      	movs	r3, #0
1a001256:	e039      	b.n	1a0012cc <print_object+0xec>

        if (output_buffer->format)
        {
            *output_pointer++ = '\n';
        }
        *output_pointer = '\0';
1a001258:	2300      	movs	r3, #0
1a00125a:	7003      	strb	r3, [r0, #0]
        output_buffer->offset += length;
1a00125c:	68a3      	ldr	r3, [r4, #8]
1a00125e:	441e      	add	r6, r3
1a001260:	60a6      	str	r6, [r4, #8]

        current_item = current_item->next;
1a001262:	682d      	ldr	r5, [r5, #0]
    while (current_item)
1a001264:	2d00      	cmp	r5, #0
1a001266:	d044      	beq.n	1a0012f2 <print_object+0x112>
        if (output_buffer->format)
1a001268:	6963      	ldr	r3, [r4, #20]
1a00126a:	2b00      	cmp	r3, #0
1a00126c:	d1d7      	bne.n	1a00121e <print_object+0x3e>
        if (!print_string_ptr((unsigned char*)current_item->string, output_buffer))
1a00126e:	4621      	mov	r1, r4
1a001270:	6a28      	ldr	r0, [r5, #32]
1a001272:	f7ff fd5f 	bl	1a000d34 <print_string_ptr>
1a001276:	4603      	mov	r3, r0
1a001278:	2800      	cmp	r0, #0
1a00127a:	d05e      	beq.n	1a00133a <print_object+0x15a>
        update_offset(output_buffer);
1a00127c:	4620      	mov	r0, r4
1a00127e:	f7ff fbe4 	bl	1a000a4a <update_offset>
        length = (size_t) (output_buffer->format ? 2 : 1);
1a001282:	6963      	ldr	r3, [r4, #20]
1a001284:	2b00      	cmp	r3, #0
1a001286:	d0e1      	beq.n	1a00124c <print_object+0x6c>
1a001288:	2602      	movs	r6, #2
        output_pointer = ensure(output_buffer, length);
1a00128a:	4631      	mov	r1, r6
1a00128c:	4620      	mov	r0, r4
1a00128e:	f7ff fbe9 	bl	1a000a64 <ensure>
        if (output_pointer == NULL)
1a001292:	2800      	cmp	r0, #0
1a001294:	d057      	beq.n	1a001346 <print_object+0x166>
        *output_pointer++ = ':';
1a001296:	223a      	movs	r2, #58	; 0x3a
1a001298:	7002      	strb	r2, [r0, #0]
        if (output_buffer->format)
1a00129a:	6962      	ldr	r2, [r4, #20]
1a00129c:	b10a      	cbz	r2, 1a0012a2 <print_object+0xc2>
            *output_pointer++ = '\t';
1a00129e:	2209      	movs	r2, #9
1a0012a0:	7042      	strb	r2, [r0, #1]
        output_buffer->offset += length;
1a0012a2:	68a1      	ldr	r1, [r4, #8]
1a0012a4:	4431      	add	r1, r6
1a0012a6:	60a1      	str	r1, [r4, #8]
        if (!print_value(current_item, output_buffer))
1a0012a8:	4621      	mov	r1, r4
1a0012aa:	4628      	mov	r0, r5
1a0012ac:	f7ff fe7a 	bl	1a000fa4 <print_value>
1a0012b0:	4603      	mov	r3, r0
1a0012b2:	2800      	cmp	r0, #0
1a0012b4:	d041      	beq.n	1a00133a <print_object+0x15a>
        update_offset(output_buffer);
1a0012b6:	4620      	mov	r0, r4
1a0012b8:	f7ff fbc7 	bl	1a000a4a <update_offset>
        length = ((size_t)(output_buffer->format ? 1 : 0) + (size_t)(current_item->next ? 1 : 0));
1a0012bc:	6963      	ldr	r3, [r4, #20]
1a0012be:	2b00      	cmp	r3, #0
1a0012c0:	d0c6      	beq.n	1a001250 <print_object+0x70>
1a0012c2:	2601      	movs	r6, #1
1a0012c4:	682b      	ldr	r3, [r5, #0]
1a0012c6:	2b00      	cmp	r3, #0
1a0012c8:	d0c4      	beq.n	1a001254 <print_object+0x74>
1a0012ca:	2301      	movs	r3, #1
1a0012cc:	441e      	add	r6, r3
        output_pointer = ensure(output_buffer, length + 1);
1a0012ce:	1c71      	adds	r1, r6, #1
1a0012d0:	4620      	mov	r0, r4
1a0012d2:	f7ff fbc7 	bl	1a000a64 <ensure>
        if (output_pointer == NULL)
1a0012d6:	2800      	cmp	r0, #0
1a0012d8:	d037      	beq.n	1a00134a <print_object+0x16a>
        if (current_item->next)
1a0012da:	682a      	ldr	r2, [r5, #0]
1a0012dc:	b112      	cbz	r2, 1a0012e4 <print_object+0x104>
            *output_pointer++ = ',';
1a0012de:	232c      	movs	r3, #44	; 0x2c
1a0012e0:	f800 3b01 	strb.w	r3, [r0], #1
        if (output_buffer->format)
1a0012e4:	6963      	ldr	r3, [r4, #20]
1a0012e6:	2b00      	cmp	r3, #0
1a0012e8:	d0b6      	beq.n	1a001258 <print_object+0x78>
            *output_pointer++ = '\n';
1a0012ea:	230a      	movs	r3, #10
1a0012ec:	f800 3b01 	strb.w	r3, [r0], #1
1a0012f0:	e7b2      	b.n	1a001258 <print_object+0x78>
    }

    output_pointer = ensure(output_buffer, output_buffer->format ? (output_buffer->depth + 1) : 2);
1a0012f2:	6963      	ldr	r3, [r4, #20]
1a0012f4:	b18b      	cbz	r3, 1a00131a <print_object+0x13a>
1a0012f6:	68e1      	ldr	r1, [r4, #12]
1a0012f8:	3101      	adds	r1, #1
1a0012fa:	4620      	mov	r0, r4
1a0012fc:	f7ff fbb2 	bl	1a000a64 <ensure>
    if (output_pointer == NULL)
1a001300:	4603      	mov	r3, r0
1a001302:	b320      	cbz	r0, 1a00134e <print_object+0x16e>
    {
        return false;
    }
    if (output_buffer->format)
1a001304:	6962      	ldr	r2, [r4, #20]
1a001306:	b9aa      	cbnz	r2, 1a001334 <print_object+0x154>
        for (i = 0; i < (output_buffer->depth - 1); i++)
        {
            *output_pointer++ = '\t';
        }
    }
    *output_pointer++ = '}';
1a001308:	227d      	movs	r2, #125	; 0x7d
1a00130a:	701a      	strb	r2, [r3, #0]
    *output_pointer = '\0';
1a00130c:	2200      	movs	r2, #0
1a00130e:	705a      	strb	r2, [r3, #1]
    output_buffer->depth--;
1a001310:	68e3      	ldr	r3, [r4, #12]
1a001312:	3b01      	subs	r3, #1
1a001314:	60e3      	str	r3, [r4, #12]

    return true;
1a001316:	2301      	movs	r3, #1
1a001318:	e00f      	b.n	1a00133a <print_object+0x15a>
    output_pointer = ensure(output_buffer, output_buffer->format ? (output_buffer->depth + 1) : 2);
1a00131a:	2102      	movs	r1, #2
1a00131c:	e7ed      	b.n	1a0012fa <print_object+0x11a>
            *output_pointer++ = '\t';
1a00131e:	4618      	mov	r0, r3
1a001320:	2309      	movs	r3, #9
1a001322:	f800 3b01 	strb.w	r3, [r0], #1
        for (i = 0; i < (output_buffer->depth - 1); i++)
1a001326:	3101      	adds	r1, #1
            *output_pointer++ = '\t';
1a001328:	4603      	mov	r3, r0
        for (i = 0; i < (output_buffer->depth - 1); i++)
1a00132a:	68e2      	ldr	r2, [r4, #12]
1a00132c:	3a01      	subs	r2, #1
1a00132e:	428a      	cmp	r2, r1
1a001330:	d8f5      	bhi.n	1a00131e <print_object+0x13e>
1a001332:	e7e9      	b.n	1a001308 <print_object+0x128>
1a001334:	2100      	movs	r1, #0
1a001336:	e7f8      	b.n	1a00132a <print_object+0x14a>
        return false;
1a001338:	2300      	movs	r3, #0
}
1a00133a:	4618      	mov	r0, r3
1a00133c:	bd70      	pop	{r4, r5, r6, pc}
        return false;
1a00133e:	2300      	movs	r3, #0
1a001340:	e7fb      	b.n	1a00133a <print_object+0x15a>
                return false;
1a001342:	2300      	movs	r3, #0
1a001344:	e7f9      	b.n	1a00133a <print_object+0x15a>
            return false;
1a001346:	2300      	movs	r3, #0
1a001348:	e7f7      	b.n	1a00133a <print_object+0x15a>
            return false;
1a00134a:	2300      	movs	r3, #0
1a00134c:	e7f5      	b.n	1a00133a <print_object+0x15a>
        return false;
1a00134e:	2300      	movs	r3, #0
1a001350:	e7f3      	b.n	1a00133a <print_object+0x15a>

1a001352 <get_object_item>:

    return get_array_item(array, (size_t)index);
}

static cJSON *get_object_item(const cJSON * const object, const char * const name, const cJSON_bool case_sensitive)
{
1a001352:	b538      	push	{r3, r4, r5, lr}
    cJSON *current_element = NULL;

    if ((object == NULL) || (name == NULL))
1a001354:	b1c8      	cbz	r0, 1a00138a <get_object_item+0x38>
1a001356:	b1d1      	cbz	r1, 1a00138e <get_object_item+0x3c>
1a001358:	460d      	mov	r5, r1
    {
        return NULL;
    }

    current_element = object->child;
1a00135a:	6884      	ldr	r4, [r0, #8]
    if (case_sensitive)
1a00135c:	b942      	cbnz	r2, 1a001370 <get_object_item+0x1e>
            current_element = current_element->next;
        }
    }
    else
    {
        while ((current_element != NULL) && (case_insensitive_strcmp((const unsigned char*)name, (const unsigned char*)(current_element->string)) != 0))
1a00135e:	b17c      	cbz	r4, 1a001380 <get_object_item+0x2e>
1a001360:	6a21      	ldr	r1, [r4, #32]
1a001362:	4628      	mov	r0, r5
1a001364:	f7ff f98a 	bl	1a00067c <case_insensitive_strcmp>
1a001368:	b150      	cbz	r0, 1a001380 <get_object_item+0x2e>
        {
            current_element = current_element->next;
1a00136a:	6824      	ldr	r4, [r4, #0]
1a00136c:	e7f7      	b.n	1a00135e <get_object_item+0xc>
            current_element = current_element->next;
1a00136e:	6824      	ldr	r4, [r4, #0]
        while ((current_element != NULL) && (current_element->string != NULL) && (strcmp(name, current_element->string) != 0))
1a001370:	b134      	cbz	r4, 1a001380 <get_object_item+0x2e>
1a001372:	6a21      	ldr	r1, [r4, #32]
1a001374:	b121      	cbz	r1, 1a001380 <get_object_item+0x2e>
1a001376:	4628      	mov	r0, r5
1a001378:	f003 f903 	bl	1a004582 <strcmp>
1a00137c:	2800      	cmp	r0, #0
1a00137e:	d1f6      	bne.n	1a00136e <get_object_item+0x1c>
        }
    }

    if ((current_element == NULL) || (current_element->string == NULL)) {
1a001380:	b13c      	cbz	r4, 1a001392 <get_object_item+0x40>
1a001382:	6a23      	ldr	r3, [r4, #32]
1a001384:	b13b      	cbz	r3, 1a001396 <get_object_item+0x44>
        return NULL;
    }

    return current_element;
}
1a001386:	4620      	mov	r0, r4
1a001388:	bd38      	pop	{r3, r4, r5, pc}
        return NULL;
1a00138a:	2400      	movs	r4, #0
1a00138c:	e7fb      	b.n	1a001386 <get_object_item+0x34>
1a00138e:	2400      	movs	r4, #0
1a001390:	e7f9      	b.n	1a001386 <get_object_item+0x34>
        return NULL;
1a001392:	2400      	movs	r4, #0
1a001394:	e7f7      	b.n	1a001386 <get_object_item+0x34>
1a001396:	2400      	movs	r4, #0
1a001398:	e7f5      	b.n	1a001386 <get_object_item+0x34>
1a00139a:	Address 0x1a00139a is out of bounds.


1a00139c <cJSON_GetErrorPtr>:
    return (const char*) (global_error.json + global_error.position);
1a00139c:	4b02      	ldr	r3, [pc, #8]	; (1a0013a8 <cJSON_GetErrorPtr+0xc>)
1a00139e:	6818      	ldr	r0, [r3, #0]
1a0013a0:	685b      	ldr	r3, [r3, #4]
}
1a0013a2:	4418      	add	r0, r3
1a0013a4:	4770      	bx	lr
1a0013a6:	bf00      	nop
1a0013a8:	100002d0 	.word	0x100002d0

1a0013ac <cJSON_Delete>:
{
1a0013ac:	b538      	push	{r3, r4, r5, lr}
1a0013ae:	4604      	mov	r4, r0
    while (item != NULL)
1a0013b0:	e016      	b.n	1a0013e0 <cJSON_Delete+0x34>
        if (!(item->type & cJSON_IsReference) && (item->valuestring != NULL))
1a0013b2:	68e3      	ldr	r3, [r4, #12]
1a0013b4:	f413 7f80 	tst.w	r3, #256	; 0x100
1a0013b8:	d104      	bne.n	1a0013c4 <cJSON_Delete+0x18>
1a0013ba:	6920      	ldr	r0, [r4, #16]
1a0013bc:	b110      	cbz	r0, 1a0013c4 <cJSON_Delete+0x18>
            global_hooks.deallocate(item->valuestring);
1a0013be:	4b0f      	ldr	r3, [pc, #60]	; (1a0013fc <cJSON_Delete+0x50>)
1a0013c0:	685b      	ldr	r3, [r3, #4]
1a0013c2:	4798      	blx	r3
        if (!(item->type & cJSON_StringIsConst) && (item->string != NULL))
1a0013c4:	68e3      	ldr	r3, [r4, #12]
1a0013c6:	f413 7f00 	tst.w	r3, #512	; 0x200
1a0013ca:	d104      	bne.n	1a0013d6 <cJSON_Delete+0x2a>
1a0013cc:	6a20      	ldr	r0, [r4, #32]
1a0013ce:	b110      	cbz	r0, 1a0013d6 <cJSON_Delete+0x2a>
            global_hooks.deallocate(item->string);
1a0013d0:	4b0a      	ldr	r3, [pc, #40]	; (1a0013fc <cJSON_Delete+0x50>)
1a0013d2:	685b      	ldr	r3, [r3, #4]
1a0013d4:	4798      	blx	r3
        global_hooks.deallocate(item);
1a0013d6:	4b09      	ldr	r3, [pc, #36]	; (1a0013fc <cJSON_Delete+0x50>)
1a0013d8:	685b      	ldr	r3, [r3, #4]
1a0013da:	4620      	mov	r0, r4
1a0013dc:	4798      	blx	r3
        item = next;
1a0013de:	462c      	mov	r4, r5
    while (item != NULL)
1a0013e0:	b154      	cbz	r4, 1a0013f8 <cJSON_Delete+0x4c>
        next = item->next;
1a0013e2:	6825      	ldr	r5, [r4, #0]
        if (!(item->type & cJSON_IsReference) && (item->child != NULL))
1a0013e4:	68e3      	ldr	r3, [r4, #12]
1a0013e6:	f413 7f80 	tst.w	r3, #256	; 0x100
1a0013ea:	d1e2      	bne.n	1a0013b2 <cJSON_Delete+0x6>
1a0013ec:	68a0      	ldr	r0, [r4, #8]
1a0013ee:	2800      	cmp	r0, #0
1a0013f0:	d0df      	beq.n	1a0013b2 <cJSON_Delete+0x6>
            cJSON_Delete(item->child);
1a0013f2:	f7ff ffdb 	bl	1a0013ac <cJSON_Delete>
1a0013f6:	e7dc      	b.n	1a0013b2 <cJSON_Delete+0x6>
}
1a0013f8:	bd38      	pop	{r3, r4, r5, pc}
1a0013fa:	bf00      	nop
1a0013fc:	10000008 	.word	0x10000008

1a001400 <parse_object>:
    if (input_buffer->depth >= CJSON_NESTING_LIMIT)
1a001400:	68cb      	ldr	r3, [r1, #12]
1a001402:	f5b3 7f7a 	cmp.w	r3, #1000	; 0x3e8
1a001406:	f080 808b 	bcs.w	1a001520 <parse_object+0x120>
    input_buffer->depth++;
1a00140a:	3301      	adds	r3, #1
1a00140c:	60cb      	str	r3, [r1, #12]
    if (cannot_access_at_index(input_buffer, 0) || (buffer_at_offset(input_buffer)[0] != '{'))
1a00140e:	2900      	cmp	r1, #0
1a001410:	f000 8088 	beq.w	1a001524 <parse_object+0x124>
1a001414:	688b      	ldr	r3, [r1, #8]
1a001416:	684a      	ldr	r2, [r1, #4]
1a001418:	4293      	cmp	r3, r2
1a00141a:	f080 8085 	bcs.w	1a001528 <parse_object+0x128>
1a00141e:	680a      	ldr	r2, [r1, #0]
1a001420:	5cd2      	ldrb	r2, [r2, r3]
1a001422:	2a7b      	cmp	r2, #123	; 0x7b
1a001424:	d001      	beq.n	1a00142a <parse_object+0x2a>
    return false;
1a001426:	2000      	movs	r0, #0
}
1a001428:	4770      	bx	lr
{
1a00142a:	e92d 41f0 	stmdb	sp!, {r4, r5, r6, r7, r8, lr}
1a00142e:	460c      	mov	r4, r1
1a001430:	4680      	mov	r8, r0
    input_buffer->offset++;
1a001432:	3301      	adds	r3, #1
1a001434:	608b      	str	r3, [r1, #8]
    buffer_skip_whitespace(input_buffer);
1a001436:	4608      	mov	r0, r1
1a001438:	f7ff fae6 	bl	1a000a08 <buffer_skip_whitespace>
    if (can_access_at_index(input_buffer, 0) && (buffer_at_offset(input_buffer)[0] == '}'))
1a00143c:	68a3      	ldr	r3, [r4, #8]
1a00143e:	6862      	ldr	r2, [r4, #4]
1a001440:	4293      	cmp	r3, r2
1a001442:	d203      	bcs.n	1a00144c <parse_object+0x4c>
1a001444:	6822      	ldr	r2, [r4, #0]
1a001446:	5cd3      	ldrb	r3, [r2, r3]
1a001448:	2b7d      	cmp	r3, #125	; 0x7d
1a00144a:	d058      	beq.n	1a0014fe <parse_object+0xfe>
    if (cannot_access_at_index(input_buffer, 0))
1a00144c:	68a3      	ldr	r3, [r4, #8]
1a00144e:	6862      	ldr	r2, [r4, #4]
1a001450:	4293      	cmp	r3, r2
1a001452:	d204      	bcs.n	1a00145e <parse_object+0x5e>
    input_buffer->offset--;
1a001454:	3b01      	subs	r3, #1
1a001456:	60a3      	str	r3, [r4, #8]
    cJSON *current_item = NULL;
1a001458:	2600      	movs	r6, #0
    cJSON *head = NULL; /* linked list head */
1a00145a:	4637      	mov	r7, r6
1a00145c:	e036      	b.n	1a0014cc <parse_object+0xcc>
        input_buffer->offset--;
1a00145e:	3b01      	subs	r3, #1
1a001460:	60a3      	str	r3, [r4, #8]
    return false;
1a001462:	2000      	movs	r0, #0
}
1a001464:	e8bd 81f0 	ldmia.w	sp!, {r4, r5, r6, r7, r8, pc}
            current_item = head = new_item;
1a001468:	4607      	mov	r7, r0
        input_buffer->offset++;
1a00146a:	68a3      	ldr	r3, [r4, #8]
1a00146c:	3301      	adds	r3, #1
1a00146e:	60a3      	str	r3, [r4, #8]
        buffer_skip_whitespace(input_buffer);
1a001470:	4620      	mov	r0, r4
1a001472:	f7ff fac9 	bl	1a000a08 <buffer_skip_whitespace>
        if (!parse_string(current_item, input_buffer))
1a001476:	4621      	mov	r1, r4
1a001478:	4628      	mov	r0, r5
1a00147a:	f7ff f9fd 	bl	1a000878 <parse_string>
1a00147e:	2800      	cmp	r0, #0
1a001480:	d037      	beq.n	1a0014f2 <parse_object+0xf2>
        buffer_skip_whitespace(input_buffer);
1a001482:	4620      	mov	r0, r4
1a001484:	f7ff fac0 	bl	1a000a08 <buffer_skip_whitespace>
        current_item->string = current_item->valuestring;
1a001488:	692b      	ldr	r3, [r5, #16]
1a00148a:	622b      	str	r3, [r5, #32]
        current_item->valuestring = NULL;
1a00148c:	2300      	movs	r3, #0
1a00148e:	612b      	str	r3, [r5, #16]
        if (cannot_access_at_index(input_buffer, 0) || (buffer_at_offset(input_buffer)[0] != ':'))
1a001490:	68a3      	ldr	r3, [r4, #8]
1a001492:	6862      	ldr	r2, [r4, #4]
1a001494:	4293      	cmp	r3, r2
1a001496:	d22c      	bcs.n	1a0014f2 <parse_object+0xf2>
1a001498:	6822      	ldr	r2, [r4, #0]
1a00149a:	5cd2      	ldrb	r2, [r2, r3]
1a00149c:	2a3a      	cmp	r2, #58	; 0x3a
1a00149e:	d128      	bne.n	1a0014f2 <parse_object+0xf2>
        input_buffer->offset++;
1a0014a0:	3301      	adds	r3, #1
1a0014a2:	60a3      	str	r3, [r4, #8]
        buffer_skip_whitespace(input_buffer);
1a0014a4:	4620      	mov	r0, r4
1a0014a6:	f7ff faaf 	bl	1a000a08 <buffer_skip_whitespace>
        if (!parse_value(current_item, input_buffer))
1a0014aa:	4621      	mov	r1, r4
1a0014ac:	4628      	mov	r0, r5
1a0014ae:	f000 f83f 	bl	1a001530 <parse_value>
1a0014b2:	b1f0      	cbz	r0, 1a0014f2 <parse_object+0xf2>
        buffer_skip_whitespace(input_buffer);
1a0014b4:	4620      	mov	r0, r4
1a0014b6:	f7ff faa7 	bl	1a000a08 <buffer_skip_whitespace>
    while (can_access_at_index(input_buffer, 0) && (buffer_at_offset(input_buffer)[0] == ','));
1a0014ba:	68a3      	ldr	r3, [r4, #8]
1a0014bc:	6862      	ldr	r2, [r4, #4]
1a0014be:	4293      	cmp	r3, r2
1a0014c0:	d20f      	bcs.n	1a0014e2 <parse_object+0xe2>
1a0014c2:	6822      	ldr	r2, [r4, #0]
1a0014c4:	5cd3      	ldrb	r3, [r2, r3]
1a0014c6:	462e      	mov	r6, r5
1a0014c8:	2b2c      	cmp	r3, #44	; 0x2c
1a0014ca:	d10a      	bne.n	1a0014e2 <parse_object+0xe2>
        cJSON *new_item = cJSON_New_Item(&(input_buffer->hooks));
1a0014cc:	f104 0010 	add.w	r0, r4, #16
1a0014d0:	f7ff fb1b 	bl	1a000b0a <cJSON_New_Item>
        if (new_item == NULL)
1a0014d4:	4605      	mov	r5, r0
1a0014d6:	b160      	cbz	r0, 1a0014f2 <parse_object+0xf2>
        if (head == NULL)
1a0014d8:	2f00      	cmp	r7, #0
1a0014da:	d0c5      	beq.n	1a001468 <parse_object+0x68>
            current_item->next = new_item;
1a0014dc:	6030      	str	r0, [r6, #0]
            new_item->prev = current_item;
1a0014de:	6046      	str	r6, [r0, #4]
            current_item = new_item;
1a0014e0:	e7c3      	b.n	1a00146a <parse_object+0x6a>
    if (cannot_access_at_index(input_buffer, 0) || (buffer_at_offset(input_buffer)[0] != '}'))
1a0014e2:	68a3      	ldr	r3, [r4, #8]
1a0014e4:	6862      	ldr	r2, [r4, #4]
1a0014e6:	4293      	cmp	r3, r2
1a0014e8:	d203      	bcs.n	1a0014f2 <parse_object+0xf2>
1a0014ea:	6822      	ldr	r2, [r4, #0]
1a0014ec:	5cd3      	ldrb	r3, [r2, r3]
1a0014ee:	2b7d      	cmp	r3, #125	; 0x7d
1a0014f0:	d007      	beq.n	1a001502 <parse_object+0x102>
    if (head != NULL)
1a0014f2:	b1df      	cbz	r7, 1a00152c <parse_object+0x12c>
        cJSON_Delete(head);
1a0014f4:	4638      	mov	r0, r7
1a0014f6:	f7ff ff59 	bl	1a0013ac <cJSON_Delete>
    return false;
1a0014fa:	2000      	movs	r0, #0
1a0014fc:	e7b2      	b.n	1a001464 <parse_object+0x64>
    cJSON *current_item = NULL;
1a0014fe:	2500      	movs	r5, #0
    cJSON *head = NULL; /* linked list head */
1a001500:	462f      	mov	r7, r5
    input_buffer->depth--;
1a001502:	68e3      	ldr	r3, [r4, #12]
1a001504:	3b01      	subs	r3, #1
1a001506:	60e3      	str	r3, [r4, #12]
    if (head != NULL) {
1a001508:	b107      	cbz	r7, 1a00150c <parse_object+0x10c>
        head->prev = current_item;
1a00150a:	607d      	str	r5, [r7, #4]
    item->type = cJSON_Object;
1a00150c:	2340      	movs	r3, #64	; 0x40
1a00150e:	f8c8 300c 	str.w	r3, [r8, #12]
    item->child = head;
1a001512:	f8c8 7008 	str.w	r7, [r8, #8]
    input_buffer->offset++;
1a001516:	68a3      	ldr	r3, [r4, #8]
1a001518:	3301      	adds	r3, #1
1a00151a:	60a3      	str	r3, [r4, #8]
    return true;
1a00151c:	2001      	movs	r0, #1
1a00151e:	e7a1      	b.n	1a001464 <parse_object+0x64>
        return false; /* to deeply nested */
1a001520:	2000      	movs	r0, #0
1a001522:	4770      	bx	lr
    return false;
1a001524:	2000      	movs	r0, #0
1a001526:	4770      	bx	lr
1a001528:	2000      	movs	r0, #0
1a00152a:	4770      	bx	lr
1a00152c:	2000      	movs	r0, #0
1a00152e:	e799      	b.n	1a001464 <parse_object+0x64>

1a001530 <parse_value>:
    if ((input_buffer == NULL) || (input_buffer->content == NULL))
1a001530:	2900      	cmp	r1, #0
1a001532:	d074      	beq.n	1a00161e <parse_value+0xee>
{
1a001534:	b570      	push	{r4, r5, r6, lr}
1a001536:	460c      	mov	r4, r1
    if ((input_buffer == NULL) || (input_buffer->content == NULL))
1a001538:	680d      	ldr	r5, [r1, #0]
1a00153a:	2d00      	cmp	r5, #0
1a00153c:	d071      	beq.n	1a001622 <parse_value+0xf2>
1a00153e:	4606      	mov	r6, r0
    if (can_read(input_buffer, 4) && (strncmp((const char*)buffer_at_offset(input_buffer), "null", 4) == 0))
1a001540:	6888      	ldr	r0, [r1, #8]
1a001542:	1d01      	adds	r1, r0, #4
1a001544:	6862      	ldr	r2, [r4, #4]
1a001546:	4291      	cmp	r1, r2
1a001548:	d806      	bhi.n	1a001558 <parse_value+0x28>
1a00154a:	2204      	movs	r2, #4
1a00154c:	4937      	ldr	r1, [pc, #220]	; (1a00162c <parse_value+0xfc>)
1a00154e:	4428      	add	r0, r5
1a001550:	f003 f829 	bl	1a0045a6 <strncmp>
1a001554:	2800      	cmp	r0, #0
1a001556:	d039      	beq.n	1a0015cc <parse_value+0x9c>
    if (can_read(input_buffer, 5) && (strncmp((const char*)buffer_at_offset(input_buffer), "false", 5) == 0))
1a001558:	68a0      	ldr	r0, [r4, #8]
1a00155a:	1d42      	adds	r2, r0, #5
1a00155c:	6863      	ldr	r3, [r4, #4]
1a00155e:	429a      	cmp	r2, r3
1a001560:	d806      	bhi.n	1a001570 <parse_value+0x40>
1a001562:	2205      	movs	r2, #5
1a001564:	4932      	ldr	r1, [pc, #200]	; (1a001630 <parse_value+0x100>)
1a001566:	4428      	add	r0, r5
1a001568:	f003 f81d 	bl	1a0045a6 <strncmp>
1a00156c:	2800      	cmp	r0, #0
1a00156e:	d034      	beq.n	1a0015da <parse_value+0xaa>
    if (can_read(input_buffer, 4) && (strncmp((const char*)buffer_at_offset(input_buffer), "true", 4) == 0))
1a001570:	68a0      	ldr	r0, [r4, #8]
1a001572:	1d02      	adds	r2, r0, #4
1a001574:	6863      	ldr	r3, [r4, #4]
1a001576:	429a      	cmp	r2, r3
1a001578:	d806      	bhi.n	1a001588 <parse_value+0x58>
1a00157a:	2204      	movs	r2, #4
1a00157c:	492d      	ldr	r1, [pc, #180]	; (1a001634 <parse_value+0x104>)
1a00157e:	4428      	add	r0, r5
1a001580:	f003 f811 	bl	1a0045a6 <strncmp>
1a001584:	2800      	cmp	r0, #0
1a001586:	d02e      	beq.n	1a0015e6 <parse_value+0xb6>
    if (can_access_at_index(input_buffer, 0) && (buffer_at_offset(input_buffer)[0] == '\"'))
1a001588:	68a3      	ldr	r3, [r4, #8]
1a00158a:	6862      	ldr	r2, [r4, #4]
1a00158c:	4293      	cmp	r3, r2
1a00158e:	d202      	bcs.n	1a001596 <parse_value+0x66>
1a001590:	5ceb      	ldrb	r3, [r5, r3]
1a001592:	2b22      	cmp	r3, #34	; 0x22
1a001594:	d02f      	beq.n	1a0015f6 <parse_value+0xc6>
    if (can_access_at_index(input_buffer, 0) && ((buffer_at_offset(input_buffer)[0] == '-') || ((buffer_at_offset(input_buffer)[0] >= '0') && (buffer_at_offset(input_buffer)[0] <= '9'))))
1a001596:	68a3      	ldr	r3, [r4, #8]
1a001598:	6862      	ldr	r2, [r4, #4]
1a00159a:	4293      	cmp	r3, r2
1a00159c:	d206      	bcs.n	1a0015ac <parse_value+0x7c>
1a00159e:	5ceb      	ldrb	r3, [r5, r3]
1a0015a0:	2b2d      	cmp	r3, #45	; 0x2d
1a0015a2:	d02d      	beq.n	1a001600 <parse_value+0xd0>
1a0015a4:	3b30      	subs	r3, #48	; 0x30
1a0015a6:	b2db      	uxtb	r3, r3
1a0015a8:	2b09      	cmp	r3, #9
1a0015aa:	d929      	bls.n	1a001600 <parse_value+0xd0>
    if (can_access_at_index(input_buffer, 0) && (buffer_at_offset(input_buffer)[0] == '['))
1a0015ac:	68a3      	ldr	r3, [r4, #8]
1a0015ae:	6862      	ldr	r2, [r4, #4]
1a0015b0:	4293      	cmp	r3, r2
1a0015b2:	d202      	bcs.n	1a0015ba <parse_value+0x8a>
1a0015b4:	5ceb      	ldrb	r3, [r5, r3]
1a0015b6:	2b5b      	cmp	r3, #91	; 0x5b
1a0015b8:	d027      	beq.n	1a00160a <parse_value+0xda>
    if (can_access_at_index(input_buffer, 0) && (buffer_at_offset(input_buffer)[0] == '{'))
1a0015ba:	68a3      	ldr	r3, [r4, #8]
1a0015bc:	6862      	ldr	r2, [r4, #4]
1a0015be:	4293      	cmp	r3, r2
1a0015c0:	d231      	bcs.n	1a001626 <parse_value+0xf6>
1a0015c2:	5ceb      	ldrb	r3, [r5, r3]
1a0015c4:	2b7b      	cmp	r3, #123	; 0x7b
1a0015c6:	d025      	beq.n	1a001614 <parse_value+0xe4>
    return false;
1a0015c8:	2000      	movs	r0, #0
1a0015ca:	e02b      	b.n	1a001624 <parse_value+0xf4>
        item->type = cJSON_NULL;
1a0015cc:	2304      	movs	r3, #4
1a0015ce:	60f3      	str	r3, [r6, #12]
        input_buffer->offset += 4;
1a0015d0:	68a3      	ldr	r3, [r4, #8]
1a0015d2:	3304      	adds	r3, #4
1a0015d4:	60a3      	str	r3, [r4, #8]
        return true;
1a0015d6:	2001      	movs	r0, #1
1a0015d8:	e024      	b.n	1a001624 <parse_value+0xf4>
        item->type = cJSON_False;
1a0015da:	2001      	movs	r0, #1
1a0015dc:	60f0      	str	r0, [r6, #12]
        input_buffer->offset += 5;
1a0015de:	68a2      	ldr	r2, [r4, #8]
1a0015e0:	3205      	adds	r2, #5
1a0015e2:	60a2      	str	r2, [r4, #8]
        return true;
1a0015e4:	e01e      	b.n	1a001624 <parse_value+0xf4>
        item->type = cJSON_True;
1a0015e6:	2302      	movs	r3, #2
1a0015e8:	60f3      	str	r3, [r6, #12]
        item->valueint = 1;
1a0015ea:	2001      	movs	r0, #1
1a0015ec:	6170      	str	r0, [r6, #20]
        input_buffer->offset += 4;
1a0015ee:	68a2      	ldr	r2, [r4, #8]
1a0015f0:	3204      	adds	r2, #4
1a0015f2:	60a2      	str	r2, [r4, #8]
        return true;
1a0015f4:	e016      	b.n	1a001624 <parse_value+0xf4>
        return parse_string(item, input_buffer);
1a0015f6:	4621      	mov	r1, r4
1a0015f8:	4630      	mov	r0, r6
1a0015fa:	f7ff f93d 	bl	1a000878 <parse_string>
1a0015fe:	e011      	b.n	1a001624 <parse_value+0xf4>
        return parse_number(item, input_buffer);
1a001600:	4621      	mov	r1, r4
1a001602:	4630      	mov	r0, r6
1a001604:	f7ff faac 	bl	1a000b60 <parse_number>
1a001608:	e00c      	b.n	1a001624 <parse_value+0xf4>
        return parse_array(item, input_buffer);
1a00160a:	4621      	mov	r1, r4
1a00160c:	4630      	mov	r0, r6
1a00160e:	f000 f813 	bl	1a001638 <parse_array>
1a001612:	e007      	b.n	1a001624 <parse_value+0xf4>
        return parse_object(item, input_buffer);
1a001614:	4621      	mov	r1, r4
1a001616:	4630      	mov	r0, r6
1a001618:	f7ff fef2 	bl	1a001400 <parse_object>
1a00161c:	e002      	b.n	1a001624 <parse_value+0xf4>
        return false; /* no input */
1a00161e:	2000      	movs	r0, #0
}
1a001620:	4770      	bx	lr
        return false; /* no input */
1a001622:	2000      	movs	r0, #0
}
1a001624:	bd70      	pop	{r4, r5, r6, pc}
    return false;
1a001626:	2000      	movs	r0, #0
1a001628:	e7fc      	b.n	1a001624 <parse_value+0xf4>
1a00162a:	bf00      	nop
1a00162c:	1a007930 	.word	0x1a007930
1a001630:	1a00795c 	.word	0x1a00795c
1a001634:	1a007964 	.word	0x1a007964

1a001638 <parse_array>:
    if (input_buffer->depth >= CJSON_NESTING_LIMIT)
1a001638:	68cb      	ldr	r3, [r1, #12]
1a00163a:	f5b3 7f7a 	cmp.w	r3, #1000	; 0x3e8
1a00163e:	d26e      	bcs.n	1a00171e <parse_array+0xe6>
    input_buffer->depth++;
1a001640:	3301      	adds	r3, #1
1a001642:	60cb      	str	r3, [r1, #12]
    if (buffer_at_offset(input_buffer)[0] != '[')
1a001644:	680a      	ldr	r2, [r1, #0]
1a001646:	688b      	ldr	r3, [r1, #8]
1a001648:	5cd2      	ldrb	r2, [r2, r3]
1a00164a:	2a5b      	cmp	r2, #91	; 0x5b
1a00164c:	d001      	beq.n	1a001652 <parse_array+0x1a>
    return false;
1a00164e:	2000      	movs	r0, #0
}
1a001650:	4770      	bx	lr
{
1a001652:	e92d 41f0 	stmdb	sp!, {r4, r5, r6, r7, r8, lr}
1a001656:	460c      	mov	r4, r1
1a001658:	4680      	mov	r8, r0
    input_buffer->offset++;
1a00165a:	3301      	adds	r3, #1
1a00165c:	608b      	str	r3, [r1, #8]
    buffer_skip_whitespace(input_buffer);
1a00165e:	4608      	mov	r0, r1
1a001660:	f7ff f9d2 	bl	1a000a08 <buffer_skip_whitespace>
    if (can_access_at_index(input_buffer, 0) && (buffer_at_offset(input_buffer)[0] == ']'))
1a001664:	b13c      	cbz	r4, 1a001676 <parse_array+0x3e>
1a001666:	68a3      	ldr	r3, [r4, #8]
1a001668:	6862      	ldr	r2, [r4, #4]
1a00166a:	4293      	cmp	r3, r2
1a00166c:	d203      	bcs.n	1a001676 <parse_array+0x3e>
1a00166e:	6822      	ldr	r2, [r4, #0]
1a001670:	5cd3      	ldrb	r3, [r2, r3]
1a001672:	2b5d      	cmp	r3, #93	; 0x5d
1a001674:	d04a      	beq.n	1a00170c <parse_array+0xd4>
    if (cannot_access_at_index(input_buffer, 0))
1a001676:	b144      	cbz	r4, 1a00168a <parse_array+0x52>
1a001678:	68a3      	ldr	r3, [r4, #8]
1a00167a:	6862      	ldr	r2, [r4, #4]
1a00167c:	4293      	cmp	r3, r2
1a00167e:	d204      	bcs.n	1a00168a <parse_array+0x52>
    input_buffer->offset--;
1a001680:	3b01      	subs	r3, #1
1a001682:	60a3      	str	r3, [r4, #8]
    cJSON *current_item = NULL;
1a001684:	2600      	movs	r6, #0
    cJSON *head = NULL; /* head of the linked list */
1a001686:	4637      	mov	r7, r6
1a001688:	e01e      	b.n	1a0016c8 <parse_array+0x90>
        input_buffer->offset--;
1a00168a:	68a3      	ldr	r3, [r4, #8]
1a00168c:	3b01      	subs	r3, #1
1a00168e:	60a3      	str	r3, [r4, #8]
    return false;
1a001690:	2000      	movs	r0, #0
}
1a001692:	e8bd 81f0 	ldmia.w	sp!, {r4, r5, r6, r7, r8, pc}
            current_item = head = new_item;
1a001696:	4607      	mov	r7, r0
        input_buffer->offset++;
1a001698:	68a3      	ldr	r3, [r4, #8]
1a00169a:	3301      	adds	r3, #1
1a00169c:	60a3      	str	r3, [r4, #8]
        buffer_skip_whitespace(input_buffer);
1a00169e:	4620      	mov	r0, r4
1a0016a0:	f7ff f9b2 	bl	1a000a08 <buffer_skip_whitespace>
        if (!parse_value(current_item, input_buffer))
1a0016a4:	4621      	mov	r1, r4
1a0016a6:	4628      	mov	r0, r5
1a0016a8:	f7ff ff42 	bl	1a001530 <parse_value>
1a0016ac:	2800      	cmp	r0, #0
1a0016ae:	d030      	beq.n	1a001712 <parse_array+0xda>
        buffer_skip_whitespace(input_buffer);
1a0016b0:	4620      	mov	r0, r4
1a0016b2:	f7ff f9a9 	bl	1a000a08 <buffer_skip_whitespace>
    while (can_access_at_index(input_buffer, 0) && (buffer_at_offset(input_buffer)[0] == ','));
1a0016b6:	68a3      	ldr	r3, [r4, #8]
1a0016b8:	6862      	ldr	r2, [r4, #4]
1a0016ba:	4293      	cmp	r3, r2
1a0016bc:	d20f      	bcs.n	1a0016de <parse_array+0xa6>
1a0016be:	6822      	ldr	r2, [r4, #0]
1a0016c0:	5cd3      	ldrb	r3, [r2, r3]
1a0016c2:	462e      	mov	r6, r5
1a0016c4:	2b2c      	cmp	r3, #44	; 0x2c
1a0016c6:	d10a      	bne.n	1a0016de <parse_array+0xa6>
        cJSON *new_item = cJSON_New_Item(&(input_buffer->hooks));
1a0016c8:	f104 0010 	add.w	r0, r4, #16
1a0016cc:	f7ff fa1d 	bl	1a000b0a <cJSON_New_Item>
        if (new_item == NULL)
1a0016d0:	4605      	mov	r5, r0
1a0016d2:	b1f0      	cbz	r0, 1a001712 <parse_array+0xda>
        if (head == NULL)
1a0016d4:	2f00      	cmp	r7, #0
1a0016d6:	d0de      	beq.n	1a001696 <parse_array+0x5e>
            current_item->next = new_item;
1a0016d8:	6030      	str	r0, [r6, #0]
            new_item->prev = current_item;
1a0016da:	6046      	str	r6, [r0, #4]
            current_item = new_item;
1a0016dc:	e7dc      	b.n	1a001698 <parse_array+0x60>
    if (cannot_access_at_index(input_buffer, 0) || buffer_at_offset(input_buffer)[0] != ']')
1a0016de:	68a3      	ldr	r3, [r4, #8]
1a0016e0:	6862      	ldr	r2, [r4, #4]
1a0016e2:	4293      	cmp	r3, r2
1a0016e4:	d215      	bcs.n	1a001712 <parse_array+0xda>
1a0016e6:	6822      	ldr	r2, [r4, #0]
1a0016e8:	5cd3      	ldrb	r3, [r2, r3]
1a0016ea:	2b5d      	cmp	r3, #93	; 0x5d
1a0016ec:	d111      	bne.n	1a001712 <parse_array+0xda>
    input_buffer->depth--;
1a0016ee:	68e3      	ldr	r3, [r4, #12]
1a0016f0:	3b01      	subs	r3, #1
1a0016f2:	60e3      	str	r3, [r4, #12]
    if (head != NULL) {
1a0016f4:	b107      	cbz	r7, 1a0016f8 <parse_array+0xc0>
        head->prev = current_item;
1a0016f6:	607d      	str	r5, [r7, #4]
    item->type = cJSON_Array;
1a0016f8:	2320      	movs	r3, #32
1a0016fa:	f8c8 300c 	str.w	r3, [r8, #12]
    item->child = head;
1a0016fe:	f8c8 7008 	str.w	r7, [r8, #8]
    input_buffer->offset++;
1a001702:	68a3      	ldr	r3, [r4, #8]
1a001704:	3301      	adds	r3, #1
1a001706:	60a3      	str	r3, [r4, #8]
    return true;
1a001708:	2001      	movs	r0, #1
1a00170a:	e7c2      	b.n	1a001692 <parse_array+0x5a>
    cJSON *current_item = NULL;
1a00170c:	2500      	movs	r5, #0
    cJSON *head = NULL; /* head of the linked list */
1a00170e:	462f      	mov	r7, r5
1a001710:	e7ed      	b.n	1a0016ee <parse_array+0xb6>
    if (head != NULL)
1a001712:	b137      	cbz	r7, 1a001722 <parse_array+0xea>
        cJSON_Delete(head);
1a001714:	4638      	mov	r0, r7
1a001716:	f7ff fe49 	bl	1a0013ac <cJSON_Delete>
    return false;
1a00171a:	2000      	movs	r0, #0
1a00171c:	e7b9      	b.n	1a001692 <parse_array+0x5a>
        return false; /* to deeply nested */
1a00171e:	2000      	movs	r0, #0
1a001720:	4770      	bx	lr
    return false;
1a001722:	2000      	movs	r0, #0
1a001724:	e7b5      	b.n	1a001692 <parse_array+0x5a>
1a001726:	Address 0x1a001726 is out of bounds.


1a001728 <cJSON_ParseWithLengthOpts>:
{
1a001728:	b5f0      	push	{r4, r5, r6, r7, lr}
1a00172a:	b08b      	sub	sp, #44	; 0x2c
1a00172c:	4616      	mov	r6, r2
1a00172e:	461f      	mov	r7, r3
    parse_buffer buffer = { 0, 0, 0, 0, { 0, 0, 0 } };
1a001730:	2300      	movs	r3, #0
1a001732:	9304      	str	r3, [sp, #16]
1a001734:	9305      	str	r3, [sp, #20]
1a001736:	9306      	str	r3, [sp, #24]
    global_error.json = NULL;
1a001738:	4a2a      	ldr	r2, [pc, #168]	; (1a0017e4 <cJSON_ParseWithLengthOpts+0xbc>)
1a00173a:	6013      	str	r3, [r2, #0]
    global_error.position = 0;
1a00173c:	6053      	str	r3, [r2, #4]
    if (value == NULL || 0 == buffer_length)
1a00173e:	4604      	mov	r4, r0
1a001740:	b100      	cbz	r0, 1a001744 <cJSON_ParseWithLengthOpts+0x1c>
1a001742:	b9b9      	cbnz	r1, 1a001774 <cJSON_ParseWithLengthOpts+0x4c>
    if (value != NULL)
1a001744:	2c00      	cmp	r4, #0
1a001746:	d04a      	beq.n	1a0017de <cJSON_ParseWithLengthOpts+0xb6>
        local_error.json = (const unsigned char*)value;
1a001748:	9401      	str	r4, [sp, #4]
        local_error.position = 0;
1a00174a:	2300      	movs	r3, #0
1a00174c:	9302      	str	r3, [sp, #8]
        if (buffer.offset < buffer.length)
1a00174e:	9a05      	ldr	r2, [sp, #20]
1a001750:	9b04      	ldr	r3, [sp, #16]
1a001752:	429a      	cmp	r2, r3
1a001754:	d23e      	bcs.n	1a0017d4 <cJSON_ParseWithLengthOpts+0xac>
            local_error.position = buffer.offset;
1a001756:	9202      	str	r2, [sp, #8]
        if (return_parse_end != NULL)
1a001758:	b116      	cbz	r6, 1a001760 <cJSON_ParseWithLengthOpts+0x38>
            *return_parse_end = (const char*)local_error.json + local_error.position;
1a00175a:	9b02      	ldr	r3, [sp, #8]
1a00175c:	441c      	add	r4, r3
1a00175e:	6034      	str	r4, [r6, #0]
        global_error = local_error;
1a001760:	4b20      	ldr	r3, [pc, #128]	; (1a0017e4 <cJSON_ParseWithLengthOpts+0xbc>)
1a001762:	aa01      	add	r2, sp, #4
1a001764:	e892 0003 	ldmia.w	r2, {r0, r1}
1a001768:	e883 0003 	stmia.w	r3, {r0, r1}
    return NULL;
1a00176c:	2500      	movs	r5, #0
}
1a00176e:	4628      	mov	r0, r5
1a001770:	b00b      	add	sp, #44	; 0x2c
1a001772:	bdf0      	pop	{r4, r5, r6, r7, pc}
    buffer.content = (const unsigned char*)value;
1a001774:	9003      	str	r0, [sp, #12]
    buffer.length = buffer_length;
1a001776:	9104      	str	r1, [sp, #16]
    buffer.hooks = global_hooks;
1a001778:	4b1b      	ldr	r3, [pc, #108]	; (1a0017e8 <cJSON_ParseWithLengthOpts+0xc0>)
1a00177a:	e893 0007 	ldmia.w	r3, {r0, r1, r2}
1a00177e:	ad0a      	add	r5, sp, #40	; 0x28
1a001780:	e905 0007 	stmdb	r5, {r0, r1, r2}
    item = cJSON_New_Item(&global_hooks);
1a001784:	4618      	mov	r0, r3
1a001786:	f7ff f9c0 	bl	1a000b0a <cJSON_New_Item>
    if (item == NULL) /* memory fail */
1a00178a:	4605      	mov	r5, r0
1a00178c:	b1e0      	cbz	r0, 1a0017c8 <cJSON_ParseWithLengthOpts+0xa0>
    if (!parse_value(item, buffer_skip_whitespace(skip_utf8_bom(&buffer))))
1a00178e:	a803      	add	r0, sp, #12
1a001790:	f7ff f9c8 	bl	1a000b24 <skip_utf8_bom>
1a001794:	f7ff f938 	bl	1a000a08 <buffer_skip_whitespace>
1a001798:	4601      	mov	r1, r0
1a00179a:	4628      	mov	r0, r5
1a00179c:	f7ff fec8 	bl	1a001530 <parse_value>
1a0017a0:	b190      	cbz	r0, 1a0017c8 <cJSON_ParseWithLengthOpts+0xa0>
    if (require_null_terminated)
1a0017a2:	b937      	cbnz	r7, 1a0017b2 <cJSON_ParseWithLengthOpts+0x8a>
    if (return_parse_end)
1a0017a4:	2e00      	cmp	r6, #0
1a0017a6:	d0e2      	beq.n	1a00176e <cJSON_ParseWithLengthOpts+0x46>
        *return_parse_end = (const char*)buffer_at_offset(&buffer);
1a0017a8:	9b03      	ldr	r3, [sp, #12]
1a0017aa:	9a05      	ldr	r2, [sp, #20]
1a0017ac:	4413      	add	r3, r2
1a0017ae:	6033      	str	r3, [r6, #0]
1a0017b0:	e7dd      	b.n	1a00176e <cJSON_ParseWithLengthOpts+0x46>
        buffer_skip_whitespace(&buffer);
1a0017b2:	a803      	add	r0, sp, #12
1a0017b4:	f7ff f928 	bl	1a000a08 <buffer_skip_whitespace>
        if ((buffer.offset >= buffer.length) || buffer_at_offset(&buffer)[0] != '\0')
1a0017b8:	9b05      	ldr	r3, [sp, #20]
1a0017ba:	9a04      	ldr	r2, [sp, #16]
1a0017bc:	4293      	cmp	r3, r2
1a0017be:	d203      	bcs.n	1a0017c8 <cJSON_ParseWithLengthOpts+0xa0>
1a0017c0:	9a03      	ldr	r2, [sp, #12]
1a0017c2:	5cd3      	ldrb	r3, [r2, r3]
1a0017c4:	2b00      	cmp	r3, #0
1a0017c6:	d0ed      	beq.n	1a0017a4 <cJSON_ParseWithLengthOpts+0x7c>
    if (item != NULL)
1a0017c8:	2d00      	cmp	r5, #0
1a0017ca:	d0bb      	beq.n	1a001744 <cJSON_ParseWithLengthOpts+0x1c>
        cJSON_Delete(item);
1a0017cc:	4628      	mov	r0, r5
1a0017ce:	f7ff fded 	bl	1a0013ac <cJSON_Delete>
1a0017d2:	e7b7      	b.n	1a001744 <cJSON_ParseWithLengthOpts+0x1c>
        else if (buffer.length > 0)
1a0017d4:	2b00      	cmp	r3, #0
1a0017d6:	d0bf      	beq.n	1a001758 <cJSON_ParseWithLengthOpts+0x30>
            local_error.position = buffer.length - 1;
1a0017d8:	3b01      	subs	r3, #1
1a0017da:	9302      	str	r3, [sp, #8]
1a0017dc:	e7bc      	b.n	1a001758 <cJSON_ParseWithLengthOpts+0x30>
    return NULL;
1a0017de:	2500      	movs	r5, #0
1a0017e0:	e7c5      	b.n	1a00176e <cJSON_ParseWithLengthOpts+0x46>
1a0017e2:	bf00      	nop
1a0017e4:	100002d0 	.word	0x100002d0
1a0017e8:	10000008 	.word	0x10000008

1a0017ec <cJSON_ParseWithOpts>:
    if (NULL == value)
1a0017ec:	b160      	cbz	r0, 1a001808 <cJSON_ParseWithOpts+0x1c>
{
1a0017ee:	b570      	push	{r4, r5, r6, lr}
1a0017f0:	4604      	mov	r4, r0
1a0017f2:	4616      	mov	r6, r2
1a0017f4:	460d      	mov	r5, r1
    buffer_length = strlen(value) + sizeof("");
1a0017f6:	f002 fece 	bl	1a004596 <strlen>
    return cJSON_ParseWithLengthOpts(value, buffer_length, return_parse_end, require_null_terminated);
1a0017fa:	4633      	mov	r3, r6
1a0017fc:	462a      	mov	r2, r5
1a0017fe:	1c41      	adds	r1, r0, #1
1a001800:	4620      	mov	r0, r4
1a001802:	f7ff ff91 	bl	1a001728 <cJSON_ParseWithLengthOpts>
}
1a001806:	bd70      	pop	{r4, r5, r6, pc}
        return NULL;
1a001808:	2000      	movs	r0, #0
}
1a00180a:	4770      	bx	lr

1a00180c <cJSON_Parse>:
{
1a00180c:	b508      	push	{r3, lr}
    return cJSON_ParseWithOpts(value, 0, 0);
1a00180e:	2200      	movs	r2, #0
1a001810:	4611      	mov	r1, r2
1a001812:	f7ff ffeb 	bl	1a0017ec <cJSON_ParseWithOpts>
}
1a001816:	bd08      	pop	{r3, pc}

1a001818 <cJSON_Print>:
{
1a001818:	b508      	push	{r3, lr}
    return (char*)print(item, true, &global_hooks);
1a00181a:	4a02      	ldr	r2, [pc, #8]	; (1a001824 <cJSON_Print+0xc>)
1a00181c:	2101      	movs	r1, #1
1a00181e:	f7ff fc3b 	bl	1a001098 <print>
}
1a001822:	bd08      	pop	{r3, pc}
1a001824:	10000008 	.word	0x10000008

1a001828 <cJSON_GetObjectItemCaseSensitive>:
{
    return get_object_item(object, string, false);
}

CJSON_PUBLIC(cJSON *) cJSON_GetObjectItemCaseSensitive(const cJSON * const object, const char * const string)
{
1a001828:	b508      	push	{r3, lr}
    return get_object_item(object, string, true);
1a00182a:	2201      	movs	r2, #1
1a00182c:	f7ff fd91 	bl	1a001352 <get_object_item>
}
1a001830:	bd08      	pop	{r3, pc}

1a001832 <cJSON_IsTrue>:
    return (item->type & 0xFF) == cJSON_False;
}

CJSON_PUBLIC(cJSON_bool) cJSON_IsTrue(const cJSON * const item)
{
    if (item == NULL)
1a001832:	b128      	cbz	r0, 1a001840 <cJSON_IsTrue+0xe>
    {
        return false;
    }

    return (item->type & 0xff) == cJSON_True;
1a001834:	7b00      	ldrb	r0, [r0, #12]
1a001836:	2802      	cmp	r0, #2
1a001838:	bf14      	ite	ne
1a00183a:	2000      	movne	r0, #0
1a00183c:	2001      	moveq	r0, #1
1a00183e:	4770      	bx	lr
        return false;
1a001840:	2000      	movs	r0, #0
}
1a001842:	4770      	bx	lr

1a001844 <cJSON_IsNumber>:
    return (item->type & 0xFF) == cJSON_NULL;
}

CJSON_PUBLIC(cJSON_bool) cJSON_IsNumber(const cJSON * const item)
{
    if (item == NULL)
1a001844:	b128      	cbz	r0, 1a001852 <cJSON_IsNumber+0xe>
    {
        return false;
    }

    return (item->type & 0xFF) == cJSON_Number;
1a001846:	7b00      	ldrb	r0, [r0, #12]
1a001848:	2808      	cmp	r0, #8
1a00184a:	bf14      	ite	ne
1a00184c:	2000      	movne	r0, #0
1a00184e:	2001      	moveq	r0, #1
1a001850:	4770      	bx	lr
        return false;
1a001852:	2000      	movs	r0, #0
}
1a001854:	4770      	bx	lr
1a001856:	Address 0x1a001856 is out of bounds.


1a001858 <cJSON_GetNumberValue>:
{
1a001858:	b510      	push	{r4, lr}
1a00185a:	4604      	mov	r4, r0
    if (!cJSON_IsNumber(item))
1a00185c:	f7ff fff2 	bl	1a001844 <cJSON_IsNumber>
1a001860:	b110      	cbz	r0, 1a001868 <cJSON_GetNumberValue+0x10>
    return item->valuedouble;
1a001862:	ed94 0b06 	vldr	d0, [r4, #24]
}
1a001866:	bd10      	pop	{r4, pc}
        return (double) NAN;
1a001868:	ed9f 0b01 	vldr	d0, [pc, #4]	; 1a001870 <cJSON_GetNumberValue+0x18>
1a00186c:	e7fb      	b.n	1a001866 <cJSON_GetNumberValue+0xe>
1a00186e:	bf00      	nop
1a001870:	00000000 	.word	0x00000000
1a001874:	7ff80000 	.word	0x7ff80000

1a001878 <luxSetStatus>:
      if (delayRead(&delay2)) relay_toggle();
   }

   return 0 ;
}
void luxSetStatus(){
1a001878:	b508      	push	{r3, lr}
   if(sensor_luminosidad()){
1a00187a:	f7fe fe13 	bl	1a0004a4 <sensor_luminosidad>
1a00187e:	b120      	cbz	r0, 1a00188a <luxSetStatus+0x12>
      gpioWrite(LUX_ST_OUT,ON);
1a001880:	2101      	movs	r1, #1
1a001882:	202c      	movs	r0, #44	; 0x2c
1a001884:	f000 fa3c 	bl	1a001d00 <gpioWrite>
   }else{
      gpioWrite(LUX_ST_OUT, OFF);
   }
}
1a001888:	bd08      	pop	{r3, pc}
      gpioWrite(LUX_ST_OUT, OFF);
1a00188a:	2100      	movs	r1, #0
1a00188c:	202c      	movs	r0, #44	; 0x2c
1a00188e:	f000 fa37 	bl	1a001d00 <gpioWrite>
}
1a001892:	e7f9      	b.n	1a001888 <luxSetStatus+0x10>

1a001894 <PIRSetStatus>:
void PIRSetStatus(){
1a001894:	b508      	push	{r3, lr}
   if(sensor_movimiento()){
1a001896:	f7fe fe17 	bl	1a0004c8 <sensor_movimiento>
1a00189a:	b110      	cbz	r0, 1a0018a2 <PIRSetStatus+0xe>
       pir_on();
1a00189c:	f000 f8f6 	bl	1a001a8c <pir_on>
   }else{
       pir_off();
   }
}
1a0018a0:	bd08      	pop	{r3, pc}
       pir_off();
1a0018a2:	f000 f8e9 	bl	1a001a78 <pir_off>
}
1a0018a6:	e7fb      	b.n	1a0018a0 <PIRSetStatus+0xc>

1a0018a8 <ledSetStatus>:
void ledSetStatus(){
1a0018a8:	b508      	push	{r3, lr}
   if(led()){
1a0018aa:	f7fe fde9 	bl	1a000480 <led>
1a0018ae:	b150      	cbz	r0, 1a0018c6 <ledSetStatus+0x1e>
      led_on();
1a0018b0:	f7fe fda4 	bl	1a0003fc <led_on>
      int a = intensidad();
1a0018b4:	f7fe fe1a 	bl	1a0004ec <intensidad>
      //printf("intensidad %d",a);
      led_bright(a);
1a0018b8:	f7fe fd5a 	bl	1a000370 <led_bright>
      gpioWrite(LED_ST_OUT,ON);
1a0018bc:	2101      	movs	r1, #1
1a0018be:	202a      	movs	r0, #42	; 0x2a
1a0018c0:	f000 fa1e 	bl	1a001d00 <gpioWrite>
   }else{
      led_off();
      gpioWrite(LED_ST_OUT, OFF);
   }
1a0018c4:	bd08      	pop	{r3, pc}
      led_off();
1a0018c6:	f7fe fd9f 	bl	1a000408 <led_off>
      gpioWrite(LED_ST_OUT, OFF);
1a0018ca:	2100      	movs	r1, #0
1a0018cc:	202a      	movs	r0, #42	; 0x2a
1a0018ce:	f000 fa17 	bl	1a001d00 <gpioWrite>
1a0018d2:	e7f7      	b.n	1a0018c4 <ledSetStatus+0x1c>

1a0018d4 <main>:
int main(void){
1a0018d4:	b500      	push	{lr}
1a0018d6:	b08d      	sub	sp, #52	; 0x34
   boardConfig();
1a0018d8:	f000 fd1e 	bl	1a002318 <boardInit>
   puertos_init();         // inicializa puertos
1a0018dc:	f7fe fe90 	bl	1a000600 <puertos_init>
   relay_off();            // apaga la luz
1a0018e0:	f7fe fd0e 	bl	1a000300 <relay_off>
   led_bright(0);          // apaga la luz LED (intensidad en 0%)
1a0018e4:	2000      	movs	r0, #0
1a0018e6:	f7fe fd43 	bl	1a000370 <led_bright>
   pir_off();              // deshabilita PIR
1a0018ea:	f000 f8c5 	bl	1a001a78 <pir_off>
   lux_off();              // deshabilita LUX
1a0018ee:	f000 f88d 	bl	1a001a0c <lux_off>
   delayConfig(&delay1,100);  // para chequeo de entradas de control
1a0018f2:	2264      	movs	r2, #100	; 0x64
1a0018f4:	2300      	movs	r3, #0
1a0018f6:	a806      	add	r0, sp, #24
1a0018f8:	f000 fda4 	bl	1a002444 <delayInit>
   delayConfig(&delay2,500);  // para chequeo y actualizacin del estado del relay
1a0018fc:	f44f 72fa 	mov.w	r2, #500	; 0x1f4
1a001900:	2300      	movs	r3, #0
1a001902:	4668      	mov	r0, sp
1a001904:	f000 fd9e 	bl	1a002444 <delayInit>
   wifiSetup();
1a001908:	f7fe fe54 	bl	1a0005b4 <wifiSetup>
   cJSON *json = NULL;
1a00190c:	e03c      	b.n	1a001988 <main+0xb4>
         mode_status = mode_toggle();
1a00190e:	f000 f85b 	bl	1a0019c8 <mode_toggle>
         if (mode_status) {
1a001912:	b1e0      	cbz	r0, 1a00194e <main+0x7a>
            if(leerJson()){
1a001914:	f7fe fdfc 	bl	1a000510 <leerJson>
1a001918:	b948      	cbnz	r0, 1a00192e <main+0x5a>
            if ((luz_1()) || (lux_read()<MAX_LUX) || (pir_read())) relay_on(); else relay_off();
1a00191a:	f7fe fd9f 	bl	1a00045c <luz_1>
1a00191e:	b918      	cbnz	r0, 1a001928 <main+0x54>
1a001920:	f000 f894 	bl	1a001a4c <lux_read>
1a001924:	28c7      	cmp	r0, #199	; 0xc7
1a001926:	dc0b      	bgt.n	1a001940 <main+0x6c>
1a001928:	f7fe fcf0 	bl	1a00030c <relay_on>
1a00192c:	e031      	b.n	1a001992 <main+0xbe>
               imprimirJson();
1a00192e:	f7fe fe2f 	bl	1a000590 <imprimirJson>
               ledSetStatus();
1a001932:	f7ff ffb9 	bl	1a0018a8 <ledSetStatus>
               luxSetStatus();
1a001936:	f7ff ff9f 	bl	1a001878 <luxSetStatus>
               PIRSetStatus();
1a00193a:	f7ff ffab 	bl	1a001894 <PIRSetStatus>
1a00193e:	e7ec      	b.n	1a00191a <main+0x46>
            if ((luz_1()) || (lux_read()<MAX_LUX) || (pir_read())) relay_on(); else relay_off();
1a001940:	f000 f8c4 	bl	1a001acc <pir_read>
1a001944:	2800      	cmp	r0, #0
1a001946:	d1ef      	bne.n	1a001928 <main+0x54>
1a001948:	f7fe fcda 	bl	1a000300 <relay_off>
1a00194c:	e021      	b.n	1a001992 <main+0xbe>
            pir_toggle();
1a00194e:	f000 f8a7 	bl	1a001aa0 <pir_toggle>
            lux_toggle();
1a001952:	f000 f865 	bl	1a001a20 <lux_toggle>
            led_toggle();
1a001956:	f7fe fd61 	bl	1a00041c <led_toggle>
            led_bright(pot_read());
1a00195a:	f7fe fd79 	bl	1a000450 <pot_read>
1a00195e:	f7fe fd07 	bl	1a000370 <led_bright>
            if ((toggle_read()) || (lux_read()<MAX_LUX) || (pir_read())) relay_on(); else relay_off();
1a001962:	f7fe fce9 	bl	1a000338 <toggle_read>
1a001966:	b918      	cbnz	r0, 1a001970 <main+0x9c>
1a001968:	f000 f870 	bl	1a001a4c <lux_read>
1a00196c:	28c7      	cmp	r0, #199	; 0xc7
1a00196e:	dc02      	bgt.n	1a001976 <main+0xa2>
1a001970:	f7fe fccc 	bl	1a00030c <relay_on>
1a001974:	e00d      	b.n	1a001992 <main+0xbe>
1a001976:	f000 f8a9 	bl	1a001acc <pir_read>
1a00197a:	2800      	cmp	r0, #0
1a00197c:	d1f8      	bne.n	1a001970 <main+0x9c>
1a00197e:	f7fe fcbf 	bl	1a000300 <relay_off>
1a001982:	e006      	b.n	1a001992 <main+0xbe>
      if (delayRead(&delay2)) relay_toggle();
1a001984:	f7fe fcc8 	bl	1a000318 <relay_toggle>
      if (delayRead(&delay1)) {
1a001988:	a806      	add	r0, sp, #24
1a00198a:	f000 fd6b 	bl	1a002464 <delayRead>
1a00198e:	2800      	cmp	r0, #0
1a001990:	d1bd      	bne.n	1a00190e <main+0x3a>
      if (delayRead(&delay2)) relay_toggle();
1a001992:	4668      	mov	r0, sp
1a001994:	f000 fd66 	bl	1a002464 <delayRead>
1a001998:	2800      	cmp	r0, #0
1a00199a:	d0f5      	beq.n	1a001988 <main+0xb4>
1a00199c:	e7f2      	b.n	1a001984 <main+0xb0>
1a00199e:	Address 0x1a00199e is out of bounds.


1a0019a0 <mode_off>:
#include "sapi.h"
#include "mode.h"
#include "puertos.h"
int   mode_status = OFF;

void mode_off() {
1a0019a0:	b508      	push	{r3, lr}
   mode_status=OFF;                     // MODO WIFI OFF
1a0019a2:	2100      	movs	r1, #0
1a0019a4:	4b02      	ldr	r3, [pc, #8]	; (1a0019b0 <mode_off+0x10>)
1a0019a6:	6019      	str	r1, [r3, #0]
   gpioWrite(MODE_ST_OUT, OFF);         // y actualizar el LED de estado
1a0019a8:	202d      	movs	r0, #45	; 0x2d
1a0019aa:	f000 f9a9 	bl	1a001d00 <gpioWrite>
}
1a0019ae:	bd08      	pop	{r3, pc}
1a0019b0:	100002d8 	.word	0x100002d8

1a0019b4 <mode_on>:

void mode_on() {
1a0019b4:	b508      	push	{r3, lr}
   mode_status=ON;                      // MODO WIFI ON
1a0019b6:	2101      	movs	r1, #1
1a0019b8:	4b02      	ldr	r3, [pc, #8]	; (1a0019c4 <mode_on+0x10>)
1a0019ba:	6019      	str	r1, [r3, #0]
   gpioWrite(MODE_ST_OUT, ON);          // y actualizar el LED de estado
1a0019bc:	202d      	movs	r0, #45	; 0x2d
1a0019be:	f000 f99f 	bl	1a001d00 <gpioWrite>
}
1a0019c2:	bd08      	pop	{r3, pc}
1a0019c4:	100002d8 	.word	0x100002d8

1a0019c8 <mode_toggle>:

int mode_toggle() {
1a0019c8:	b508      	push	{r3, lr}
   if (!gpioRead(MODE_TOGGLE)) mode_status=!mode_status;
1a0019ca:	200d      	movs	r0, #13
1a0019cc:	f000 f9c3 	bl	1a001d56 <gpioRead>
1a0019d0:	b928      	cbnz	r0, 1a0019de <mode_toggle+0x16>
1a0019d2:	4a08      	ldr	r2, [pc, #32]	; (1a0019f4 <mode_toggle+0x2c>)
1a0019d4:	6813      	ldr	r3, [r2, #0]
1a0019d6:	fab3 f383 	clz	r3, r3
1a0019da:	095b      	lsrs	r3, r3, #5
1a0019dc:	6013      	str	r3, [r2, #0]
   if(mode_status) mode_on();
1a0019de:	4b05      	ldr	r3, [pc, #20]	; (1a0019f4 <mode_toggle+0x2c>)
1a0019e0:	681b      	ldr	r3, [r3, #0]
1a0019e2:	b123      	cbz	r3, 1a0019ee <mode_toggle+0x26>
1a0019e4:	f7ff ffe6 	bl	1a0019b4 <mode_on>
   else mode_off();
   //printf("* Mode    %d *\n",mode_status);
   return mode_status;
1a0019e8:	4b02      	ldr	r3, [pc, #8]	; (1a0019f4 <mode_toggle+0x2c>)
1a0019ea:	6818      	ldr	r0, [r3, #0]
1a0019ec:	bd08      	pop	{r3, pc}
   else mode_off();
1a0019ee:	f7ff ffd7 	bl	1a0019a0 <mode_off>
1a0019f2:	e7f9      	b.n	1a0019e8 <mode_toggle+0x20>
1a0019f4:	100002d8 	.word	0x100002d8

1a0019f8 <lux_on>:
#include "puertos.h"
#include "sapi.h"

int lux_status=OFF;

void lux_on(){
1a0019f8:	b508      	push	{r3, lr}
   lux_status=ON;    // habilitar LDR
1a0019fa:	2101      	movs	r1, #1
1a0019fc:	4b02      	ldr	r3, [pc, #8]	; (1a001a08 <lux_on+0x10>)
1a0019fe:	6019      	str	r1, [r3, #0]
   
   //DEBUG
   gpioWrite(LUX_ST_OUT, ON);
1a001a00:	202c      	movs	r0, #44	; 0x2c
1a001a02:	f000 f97d 	bl	1a001d00 <gpioWrite>
}
1a001a06:	bd08      	pop	{r3, pc}
1a001a08:	100002dc 	.word	0x100002dc

1a001a0c <lux_off>:

void lux_off() {
1a001a0c:	b508      	push	{r3, lr}
   lux_status=OFF;   // deshabilitar LDR
1a001a0e:	2100      	movs	r1, #0
1a001a10:	4b02      	ldr	r3, [pc, #8]	; (1a001a1c <lux_off+0x10>)
1a001a12:	6019      	str	r1, [r3, #0]
   
   //DEBUG
   gpioWrite(LUX_ST_OUT, OFF);
1a001a14:	202c      	movs	r0, #44	; 0x2c
1a001a16:	f000 f973 	bl	1a001d00 <gpioWrite>
}
1a001a1a:	bd08      	pop	{r3, pc}
1a001a1c:	100002dc 	.word	0x100002dc

1a001a20 <lux_toggle>:

int lux_toggle() {
1a001a20:	b508      	push	{r3, lr}
   if (!gpioRead(LUX_ENABLE)) lux_status=!lux_status;       // ver estado de la entrada de control
1a001a22:	200b      	movs	r0, #11
1a001a24:	f000 f997 	bl	1a001d56 <gpioRead>
1a001a28:	b928      	cbnz	r0, 1a001a36 <lux_toggle+0x16>
1a001a2a:	4a07      	ldr	r2, [pc, #28]	; (1a001a48 <lux_toggle+0x28>)
1a001a2c:	6813      	ldr	r3, [r2, #0]
1a001a2e:	fab3 f383 	clz	r3, r3
1a001a32:	095b      	lsrs	r3, r3, #5
1a001a34:	6013      	str	r3, [r2, #0]
      
   //DEBUG
   if(lux_status) lux_on();
1a001a36:	4b04      	ldr	r3, [pc, #16]	; (1a001a48 <lux_toggle+0x28>)
1a001a38:	681b      	ldr	r3, [r3, #0]
1a001a3a:	b113      	cbz	r3, 1a001a42 <lux_toggle+0x22>
1a001a3c:	f7ff ffdc 	bl	1a0019f8 <lux_on>
   else lux_off();
      
   //printf("* LUX    %d *\n",lux_status);
}
1a001a40:	bd08      	pop	{r3, pc}
   else lux_off();
1a001a42:	f7ff ffe3 	bl	1a001a0c <lux_off>
1a001a46:	e7fb      	b.n	1a001a40 <lux_toggle+0x20>
1a001a48:	100002dc 	.word	0x100002dc

1a001a4c <lux_read>:

int lux_enabled() {
   return lux_status;
}

int lux_read() {
1a001a4c:	b510      	push	{r4, lr}
   if (lux_status) {
1a001a4e:	4b08      	ldr	r3, [pc, #32]	; (1a001a70 <lux_read+0x24>)
1a001a50:	681b      	ldr	r3, [r3, #0]
1a001a52:	b91b      	cbnz	r3, 1a001a5c <lux_read+0x10>
      int a = adcRead(LUX_IN);
      printf("* LUX    %d *\n",a);
      return a;
      
   } else return 5000;           // si el sensor est desactivado, devolver "5000" (dato invlido)
1a001a54:	f241 3488 	movw	r4, #5000	; 0x1388
   //return 5000;
1a001a58:	4620      	mov	r0, r4
1a001a5a:	bd10      	pop	{r4, pc}
      int a = adcRead(LUX_IN);
1a001a5c:	2041      	movs	r0, #65	; 0x41
1a001a5e:	f000 f9eb 	bl	1a001e38 <adcRead>
1a001a62:	4601      	mov	r1, r0
1a001a64:	4604      	mov	r4, r0
      printf("* LUX    %d *\n",a);
1a001a66:	4803      	ldr	r0, [pc, #12]	; (1a001a74 <lux_read+0x28>)
1a001a68:	f002 fcdc 	bl	1a004424 <iprintf>
      return a;
1a001a6c:	e7f4      	b.n	1a001a58 <lux_read+0xc>
1a001a6e:	bf00      	nop
1a001a70:	100002dc 	.word	0x100002dc
1a001a74:	1a007970 	.word	0x1a007970

1a001a78 <pir_off>:
#include "puertos.h"

int   pir_status = OFF,       // inicialmente, el PIR est desactivado
      pir_value;              // valor ledo desde el PIR

void pir_off() {
1a001a78:	b508      	push	{r3, lr}
   pir_status=OFF;                     // apagar PIR
1a001a7a:	2100      	movs	r1, #0
1a001a7c:	4b02      	ldr	r3, [pc, #8]	; (1a001a88 <pir_off+0x10>)
1a001a7e:	6019      	str	r1, [r3, #0]
   gpioWrite(PIR_ST_OUT, OFF);         // y actualizar el LED de estado
1a001a80:	202b      	movs	r0, #43	; 0x2b
1a001a82:	f000 f93d 	bl	1a001d00 <gpioWrite>
}
1a001a86:	bd08      	pop	{r3, pc}
1a001a88:	100002e0 	.word	0x100002e0

1a001a8c <pir_on>:

void pir_on() {
1a001a8c:	b508      	push	{r3, lr}
   pir_status=ON;                      // encender PIR
1a001a8e:	2101      	movs	r1, #1
1a001a90:	4b02      	ldr	r3, [pc, #8]	; (1a001a9c <pir_on+0x10>)
1a001a92:	6019      	str	r1, [r3, #0]
   gpioWrite(PIR_ST_OUT, ON);          // y actualizar el LED de estado
1a001a94:	202b      	movs	r0, #43	; 0x2b
1a001a96:	f000 f933 	bl	1a001d00 <gpioWrite>
}
1a001a9a:	bd08      	pop	{r3, pc}
1a001a9c:	100002e0 	.word	0x100002e0

1a001aa0 <pir_toggle>:

void pir_toggle() {
1a001aa0:	b508      	push	{r3, lr}
   if (!gpioRead(PIR_ENABLE)) pir_status=!pir_status;
1a001aa2:	200c      	movs	r0, #12
1a001aa4:	f000 f957 	bl	1a001d56 <gpioRead>
1a001aa8:	b928      	cbnz	r0, 1a001ab6 <pir_toggle+0x16>
1a001aaa:	4a07      	ldr	r2, [pc, #28]	; (1a001ac8 <pir_toggle+0x28>)
1a001aac:	6813      	ldr	r3, [r2, #0]
1a001aae:	fab3 f383 	clz	r3, r3
1a001ab2:	095b      	lsrs	r3, r3, #5
1a001ab4:	6013      	str	r3, [r2, #0]
   if(pir_status) pir_on();
1a001ab6:	4b04      	ldr	r3, [pc, #16]	; (1a001ac8 <pir_toggle+0x28>)
1a001ab8:	681b      	ldr	r3, [r3, #0]
1a001aba:	b113      	cbz	r3, 1a001ac2 <pir_toggle+0x22>
1a001abc:	f7ff ffe6 	bl	1a001a8c <pir_on>
   else pir_off();
   //printf("* PIR    %d *\n",pir_status);
}
1a001ac0:	bd08      	pop	{r3, pc}
   else pir_off();
1a001ac2:	f7ff ffd9 	bl	1a001a78 <pir_off>
}
1a001ac6:	e7fb      	b.n	1a001ac0 <pir_toggle+0x20>
1a001ac8:	100002e0 	.word	0x100002e0

1a001acc <pir_read>:
      RETORNA  0: NO HAY MOVIMIENTO (O DESHABILITADO), 1: HAY MOVIMIENTO

   Lee el puerto del sensor PIR y devuelve si hay o no movimiento siempre y cuando est habilitado el sensor.
*/

int pir_read() {
1a001acc:	b538      	push	{r3, r4, r5, lr}
   
   int estado=!gpioRead(PIR_IN);
1a001ace:	2011      	movs	r0, #17
1a001ad0:	f000 f941 	bl	1a001d56 <gpioRead>
   delay(50);
1a001ad4:	2032      	movs	r0, #50	; 0x32
1a001ad6:	2100      	movs	r1, #0
1a001ad8:	f000 fc98 	bl	1a00240c <delay>
   estado=gpioRead(PIR_IN);
1a001adc:	2011      	movs	r0, #17
1a001ade:	f000 f93a 	bl	1a001d56 <gpioRead>
   
 
   if (pir_status){ 
1a001ae2:	4b0d      	ldr	r3, [pc, #52]	; (1a001b18 <pir_read+0x4c>)
1a001ae4:	681d      	ldr	r5, [r3, #0]
1a001ae6:	b185      	cbz	r5, 1a001b0a <pir_read+0x3e>
1a001ae8:	4604      	mov	r4, r0
      if(estado){
1a001aea:	b928      	cbnz	r0, 1a001af8 <pir_read+0x2c>
         gpioInit(GPIO0, GPIO_OUTPUT);
         gpioWrite(GPIO0, ON); return estado;  
      }
      else{
         gpioWrite(GPIO0, OFF); 
1a001aec:	2100      	movs	r1, #0
1a001aee:	2020      	movs	r0, #32
1a001af0:	f000 f906 	bl	1a001d00 <gpioWrite>
      }
   } else {
      gpioWrite(GPIO0, OFF);
      return 0;
      }
1a001af4:	4620      	mov	r0, r4
1a001af6:	bd38      	pop	{r3, r4, r5, pc}
         gpioInit(GPIO0, GPIO_OUTPUT);
1a001af8:	2101      	movs	r1, #1
1a001afa:	2020      	movs	r0, #32
1a001afc:	f000 f836 	bl	1a001b6c <gpioInit>
         gpioWrite(GPIO0, ON); return estado;  
1a001b00:	2101      	movs	r1, #1
1a001b02:	2020      	movs	r0, #32
1a001b04:	f000 f8fc 	bl	1a001d00 <gpioWrite>
1a001b08:	e7f4      	b.n	1a001af4 <pir_read+0x28>
      gpioWrite(GPIO0, OFF);
1a001b0a:	2100      	movs	r1, #0
1a001b0c:	2020      	movs	r0, #32
1a001b0e:	f000 f8f7 	bl	1a001d00 <gpioWrite>
      return 0;
1a001b12:	462c      	mov	r4, r5
1a001b14:	e7ee      	b.n	1a001af4 <pir_read+0x28>
1a001b16:	bf00      	nop
1a001b18:	100002e0 	.word	0x100002e0

1a001b1c <cyclesCounterInit>:
1a001b1c:	4b04      	ldr	r3, [pc, #16]	; (1a001b30 <cyclesCounterInit+0x14>)
1a001b1e:	6018      	str	r0, [r3, #0]
1a001b20:	4b04      	ldr	r3, [pc, #16]	; (1a001b34 <cyclesCounterInit+0x18>)
1a001b22:	681a      	ldr	r2, [r3, #0]
1a001b24:	6813      	ldr	r3, [r2, #0]
1a001b26:	f043 0301 	orr.w	r3, r3, #1
1a001b2a:	6013      	str	r3, [r2, #0]
1a001b2c:	2001      	movs	r0, #1
1a001b2e:	4770      	bx	lr
1a001b30:	10000014 	.word	0x10000014
1a001b34:	10000018 	.word	0x10000018

1a001b38 <gpioObtainPinInit>:
1a001b38:	b430      	push	{r4, r5}
1a001b3a:	4d0b      	ldr	r5, [pc, #44]	; (1a001b68 <gpioObtainPinInit+0x30>)
1a001b3c:	eb00 0080 	add.w	r0, r0, r0, lsl #2
1a001b40:	182c      	adds	r4, r5, r0
1a001b42:	5628      	ldrsb	r0, [r5, r0]
1a001b44:	7008      	strb	r0, [r1, #0]
1a001b46:	f994 1001 	ldrsb.w	r1, [r4, #1]
1a001b4a:	7011      	strb	r1, [r2, #0]
1a001b4c:	f994 2002 	ldrsb.w	r2, [r4, #2]
1a001b50:	701a      	strb	r2, [r3, #0]
1a001b52:	f994 2003 	ldrsb.w	r2, [r4, #3]
1a001b56:	9b02      	ldr	r3, [sp, #8]
1a001b58:	701a      	strb	r2, [r3, #0]
1a001b5a:	f994 2004 	ldrsb.w	r2, [r4, #4]
1a001b5e:	9b03      	ldr	r3, [sp, #12]
1a001b60:	701a      	strb	r2, [r3, #0]
1a001b62:	bc30      	pop	{r4, r5}
1a001b64:	4770      	bx	lr
1a001b66:	bf00      	nop
1a001b68:	1a007980 	.word	0x1a007980

1a001b6c <gpioInit>:
1a001b6c:	b570      	push	{r4, r5, r6, lr}
1a001b6e:	b084      	sub	sp, #16
1a001b70:	460c      	mov	r4, r1
1a001b72:	2300      	movs	r3, #0
1a001b74:	f88d 300f 	strb.w	r3, [sp, #15]
1a001b78:	f88d 300e 	strb.w	r3, [sp, #14]
1a001b7c:	f88d 300d 	strb.w	r3, [sp, #13]
1a001b80:	f88d 300c 	strb.w	r3, [sp, #12]
1a001b84:	f88d 300b 	strb.w	r3, [sp, #11]
1a001b88:	f10d 030b 	add.w	r3, sp, #11
1a001b8c:	9301      	str	r3, [sp, #4]
1a001b8e:	ab03      	add	r3, sp, #12
1a001b90:	9300      	str	r3, [sp, #0]
1a001b92:	f10d 030d 	add.w	r3, sp, #13
1a001b96:	f10d 020e 	add.w	r2, sp, #14
1a001b9a:	f10d 010f 	add.w	r1, sp, #15
1a001b9e:	f7ff ffcb 	bl	1a001b38 <gpioObtainPinInit>
1a001ba2:	2c05      	cmp	r4, #5
1a001ba4:	f200 80a5 	bhi.w	1a001cf2 <gpioInit+0x186>
1a001ba8:	e8df f004 	tbb	[pc, r4]
1a001bac:	45278109 	.word	0x45278109
1a001bb0:	0363      	.short	0x0363
1a001bb2:	4851      	ldr	r0, [pc, #324]	; (1a001cf8 <gpioInit+0x18c>)
1a001bb4:	f000 ff4c 	bl	1a002a50 <Chip_GPIO_Init>
1a001bb8:	2001      	movs	r0, #1
1a001bba:	b004      	add	sp, #16
1a001bbc:	bd70      	pop	{r4, r5, r6, pc}
1a001bbe:	f89d 100f 	ldrb.w	r1, [sp, #15]
1a001bc2:	f89d 300e 	ldrb.w	r3, [sp, #14]
1a001bc6:	f89d 200d 	ldrb.w	r2, [sp, #13]
1a001bca:	f042 02d0 	orr.w	r2, r2, #208	; 0xd0
1a001bce:	eb03 1341 	add.w	r3, r3, r1, lsl #5
1a001bd2:	494a      	ldr	r1, [pc, #296]	; (1a001cfc <gpioInit+0x190>)
1a001bd4:	f841 2023 	str.w	r2, [r1, r3, lsl #2]
1a001bd8:	f89d 300c 	ldrb.w	r3, [sp, #12]
1a001bdc:	f99d 200b 	ldrsb.w	r2, [sp, #11]
1a001be0:	2001      	movs	r0, #1
1a001be2:	fa00 f102 	lsl.w	r1, r0, r2
1a001be6:	4c44      	ldr	r4, [pc, #272]	; (1a001cf8 <gpioInit+0x18c>)
1a001be8:	f503 6300 	add.w	r3, r3, #2048	; 0x800
1a001bec:	f854 2023 	ldr.w	r2, [r4, r3, lsl #2]
1a001bf0:	ea22 0201 	bic.w	r2, r2, r1
1a001bf4:	f844 2023 	str.w	r2, [r4, r3, lsl #2]
1a001bf8:	e7df      	b.n	1a001bba <gpioInit+0x4e>
1a001bfa:	f89d 100f 	ldrb.w	r1, [sp, #15]
1a001bfe:	f89d 300e 	ldrb.w	r3, [sp, #14]
1a001c02:	f89d 200d 	ldrb.w	r2, [sp, #13]
1a001c06:	f042 02c0 	orr.w	r2, r2, #192	; 0xc0
1a001c0a:	eb03 1341 	add.w	r3, r3, r1, lsl #5
1a001c0e:	493b      	ldr	r1, [pc, #236]	; (1a001cfc <gpioInit+0x190>)
1a001c10:	f841 2023 	str.w	r2, [r1, r3, lsl #2]
1a001c14:	f89d 300c 	ldrb.w	r3, [sp, #12]
1a001c18:	f99d 200b 	ldrsb.w	r2, [sp, #11]
1a001c1c:	2001      	movs	r0, #1
1a001c1e:	fa00 f102 	lsl.w	r1, r0, r2
1a001c22:	4c35      	ldr	r4, [pc, #212]	; (1a001cf8 <gpioInit+0x18c>)
1a001c24:	f503 6300 	add.w	r3, r3, #2048	; 0x800
1a001c28:	f854 2023 	ldr.w	r2, [r4, r3, lsl #2]
1a001c2c:	ea22 0201 	bic.w	r2, r2, r1
1a001c30:	f844 2023 	str.w	r2, [r4, r3, lsl #2]
1a001c34:	e7c1      	b.n	1a001bba <gpioInit+0x4e>
1a001c36:	f89d 100f 	ldrb.w	r1, [sp, #15]
1a001c3a:	f89d 300e 	ldrb.w	r3, [sp, #14]
1a001c3e:	f89d 200d 	ldrb.w	r2, [sp, #13]
1a001c42:	f042 02d8 	orr.w	r2, r2, #216	; 0xd8
1a001c46:	eb03 1341 	add.w	r3, r3, r1, lsl #5
1a001c4a:	492c      	ldr	r1, [pc, #176]	; (1a001cfc <gpioInit+0x190>)
1a001c4c:	f841 2023 	str.w	r2, [r1, r3, lsl #2]
1a001c50:	f89d 300c 	ldrb.w	r3, [sp, #12]
1a001c54:	f99d 200b 	ldrsb.w	r2, [sp, #11]
1a001c58:	2001      	movs	r0, #1
1a001c5a:	fa00 f102 	lsl.w	r1, r0, r2
1a001c5e:	4c26      	ldr	r4, [pc, #152]	; (1a001cf8 <gpioInit+0x18c>)
1a001c60:	f503 6300 	add.w	r3, r3, #2048	; 0x800
1a001c64:	f854 2023 	ldr.w	r2, [r4, r3, lsl #2]
1a001c68:	ea22 0201 	bic.w	r2, r2, r1
1a001c6c:	f844 2023 	str.w	r2, [r4, r3, lsl #2]
1a001c70:	e7a3      	b.n	1a001bba <gpioInit+0x4e>
1a001c72:	f89d 100f 	ldrb.w	r1, [sp, #15]
1a001c76:	f89d 300e 	ldrb.w	r3, [sp, #14]
1a001c7a:	f89d 200d 	ldrb.w	r2, [sp, #13]
1a001c7e:	f042 02c8 	orr.w	r2, r2, #200	; 0xc8
1a001c82:	eb03 1341 	add.w	r3, r3, r1, lsl #5
1a001c86:	491d      	ldr	r1, [pc, #116]	; (1a001cfc <gpioInit+0x190>)
1a001c88:	f841 2023 	str.w	r2, [r1, r3, lsl #2]
1a001c8c:	f89d 300c 	ldrb.w	r3, [sp, #12]
1a001c90:	f99d 200b 	ldrsb.w	r2, [sp, #11]
1a001c94:	2001      	movs	r0, #1
1a001c96:	fa00 f102 	lsl.w	r1, r0, r2
1a001c9a:	4c17      	ldr	r4, [pc, #92]	; (1a001cf8 <gpioInit+0x18c>)
1a001c9c:	f503 6300 	add.w	r3, r3, #2048	; 0x800
1a001ca0:	f854 2023 	ldr.w	r2, [r4, r3, lsl #2]
1a001ca4:	ea22 0201 	bic.w	r2, r2, r1
1a001ca8:	f844 2023 	str.w	r2, [r4, r3, lsl #2]
1a001cac:	e785      	b.n	1a001bba <gpioInit+0x4e>
1a001cae:	f89d 100f 	ldrb.w	r1, [sp, #15]
1a001cb2:	f89d 300e 	ldrb.w	r3, [sp, #14]
1a001cb6:	f89d 200d 	ldrb.w	r2, [sp, #13]
1a001cba:	f042 02d0 	orr.w	r2, r2, #208	; 0xd0
1a001cbe:	eb03 1341 	add.w	r3, r3, r1, lsl #5
1a001cc2:	490e      	ldr	r1, [pc, #56]	; (1a001cfc <gpioInit+0x190>)
1a001cc4:	f841 2023 	str.w	r2, [r1, r3, lsl #2]
1a001cc8:	f89d 400c 	ldrb.w	r4, [sp, #12]
1a001ccc:	f99d 200b 	ldrsb.w	r2, [sp, #11]
1a001cd0:	2001      	movs	r0, #1
1a001cd2:	fa00 f102 	lsl.w	r1, r0, r2
1a001cd6:	4b08      	ldr	r3, [pc, #32]	; (1a001cf8 <gpioInit+0x18c>)
1a001cd8:	f504 6500 	add.w	r5, r4, #2048	; 0x800
1a001cdc:	f853 6025 	ldr.w	r6, [r3, r5, lsl #2]
1a001ce0:	4331      	orrs	r1, r6
1a001ce2:	f843 1025 	str.w	r1, [r3, r5, lsl #2]
1a001ce6:	b2d2      	uxtb	r2, r2
1a001ce8:	eb03 1344 	add.w	r3, r3, r4, lsl #5
1a001cec:	2100      	movs	r1, #0
1a001cee:	5499      	strb	r1, [r3, r2]
1a001cf0:	e763      	b.n	1a001bba <gpioInit+0x4e>
1a001cf2:	2000      	movs	r0, #0
1a001cf4:	e761      	b.n	1a001bba <gpioInit+0x4e>
1a001cf6:	bf00      	nop
1a001cf8:	400f4000 	.word	0x400f4000
1a001cfc:	40086000 	.word	0x40086000

1a001d00 <gpioWrite>:
1a001d00:	b510      	push	{r4, lr}
1a001d02:	b084      	sub	sp, #16
1a001d04:	460c      	mov	r4, r1
1a001d06:	2300      	movs	r3, #0
1a001d08:	f88d 300f 	strb.w	r3, [sp, #15]
1a001d0c:	f88d 300e 	strb.w	r3, [sp, #14]
1a001d10:	f88d 300d 	strb.w	r3, [sp, #13]
1a001d14:	f88d 300c 	strb.w	r3, [sp, #12]
1a001d18:	f88d 300b 	strb.w	r3, [sp, #11]
1a001d1c:	f10d 030b 	add.w	r3, sp, #11
1a001d20:	9301      	str	r3, [sp, #4]
1a001d22:	ab03      	add	r3, sp, #12
1a001d24:	9300      	str	r3, [sp, #0]
1a001d26:	f10d 030d 	add.w	r3, sp, #13
1a001d2a:	f10d 020e 	add.w	r2, sp, #14
1a001d2e:	f10d 010f 	add.w	r1, sp, #15
1a001d32:	f7ff ff01 	bl	1a001b38 <gpioObtainPinInit>
1a001d36:	f89d 300c 	ldrb.w	r3, [sp, #12]
1a001d3a:	f89d 200b 	ldrb.w	r2, [sp, #11]
1a001d3e:	3400      	adds	r4, #0
1a001d40:	bf18      	it	ne
1a001d42:	2401      	movne	r4, #1
1a001d44:	015b      	lsls	r3, r3, #5
1a001d46:	f103 2340 	add.w	r3, r3, #1073758208	; 0x40004000
1a001d4a:	f503 2370 	add.w	r3, r3, #983040	; 0xf0000
1a001d4e:	549c      	strb	r4, [r3, r2]
1a001d50:	2001      	movs	r0, #1
1a001d52:	b004      	add	sp, #16
1a001d54:	bd10      	pop	{r4, pc}

1a001d56 <gpioRead>:
1a001d56:	b500      	push	{lr}
1a001d58:	b085      	sub	sp, #20
1a001d5a:	2300      	movs	r3, #0
1a001d5c:	f88d 300f 	strb.w	r3, [sp, #15]
1a001d60:	f88d 300e 	strb.w	r3, [sp, #14]
1a001d64:	f88d 300d 	strb.w	r3, [sp, #13]
1a001d68:	f88d 300c 	strb.w	r3, [sp, #12]
1a001d6c:	f88d 300b 	strb.w	r3, [sp, #11]
1a001d70:	f10d 030b 	add.w	r3, sp, #11
1a001d74:	9301      	str	r3, [sp, #4]
1a001d76:	ab03      	add	r3, sp, #12
1a001d78:	9300      	str	r3, [sp, #0]
1a001d7a:	f10d 030d 	add.w	r3, sp, #13
1a001d7e:	f10d 020e 	add.w	r2, sp, #14
1a001d82:	f10d 010f 	add.w	r1, sp, #15
1a001d86:	f7ff fed7 	bl	1a001b38 <gpioObtainPinInit>
1a001d8a:	f99d 300c 	ldrsb.w	r3, [sp, #12]
1a001d8e:	f89d 200b 	ldrb.w	r2, [sp, #11]
1a001d92:	015b      	lsls	r3, r3, #5
1a001d94:	f103 2340 	add.w	r3, r3, #1073758208	; 0x40004000
1a001d98:	f503 2370 	add.w	r3, r3, #983040	; 0xf0000
1a001d9c:	5c98      	ldrb	r0, [r3, r2]
1a001d9e:	3000      	adds	r0, #0
1a001da0:	bf18      	it	ne
1a001da2:	2001      	movne	r0, #1
1a001da4:	b005      	add	sp, #20
1a001da6:	f85d fb04 	ldr.w	pc, [sp], #4
1a001daa:	Address 0x1a001daa is out of bounds.


1a001dac <adcInit>:
1a001dac:	b510      	push	{r4, lr}
1a001dae:	b082      	sub	sp, #8
1a001db0:	b118      	cbz	r0, 1a001dba <adcInit+0xe>
1a001db2:	2801      	cmp	r0, #1
1a001db4:	d038      	beq.n	1a001e28 <adcInit+0x7c>
1a001db6:	b002      	add	sp, #8
1a001db8:	bd10      	pop	{r4, pc}
1a001dba:	4c1d      	ldr	r4, [pc, #116]	; (1a001e30 <adcInit+0x84>)
1a001dbc:	4669      	mov	r1, sp
1a001dbe:	4620      	mov	r0, r4
1a001dc0:	f000 feb0 	bl	1a002b24 <Chip_ADC_Init>
1a001dc4:	2100      	movs	r1, #0
1a001dc6:	4620      	mov	r0, r4
1a001dc8:	f000 ff4b 	bl	1a002c62 <Chip_ADC_SetBurstCmd>
1a001dcc:	4a19      	ldr	r2, [pc, #100]	; (1a001e34 <adcInit+0x88>)
1a001dce:	4669      	mov	r1, sp
1a001dd0:	4620      	mov	r0, r4
1a001dd2:	f000 ff12 	bl	1a002bfa <Chip_ADC_SetSampleRate>
1a001dd6:	2200      	movs	r2, #0
1a001dd8:	2101      	movs	r1, #1
1a001dda:	4620      	mov	r0, r4
1a001ddc:	f000 ff2c 	bl	1a002c38 <Chip_ADC_EnableChannel>
1a001de0:	2200      	movs	r2, #0
1a001de2:	2101      	movs	r1, #1
1a001de4:	4620      	mov	r0, r4
1a001de6:	f000 fee7 	bl	1a002bb8 <Chip_ADC_Int_SetChannelCmd>
1a001dea:	2200      	movs	r2, #0
1a001dec:	2102      	movs	r1, #2
1a001dee:	4620      	mov	r0, r4
1a001df0:	f000 ff22 	bl	1a002c38 <Chip_ADC_EnableChannel>
1a001df4:	2200      	movs	r2, #0
1a001df6:	2102      	movs	r1, #2
1a001df8:	4620      	mov	r0, r4
1a001dfa:	f000 fedd 	bl	1a002bb8 <Chip_ADC_Int_SetChannelCmd>
1a001dfe:	2200      	movs	r2, #0
1a001e00:	2103      	movs	r1, #3
1a001e02:	4620      	mov	r0, r4
1a001e04:	f000 ff18 	bl	1a002c38 <Chip_ADC_EnableChannel>
1a001e08:	2200      	movs	r2, #0
1a001e0a:	2103      	movs	r1, #3
1a001e0c:	4620      	mov	r0, r4
1a001e0e:	f000 fed3 	bl	1a002bb8 <Chip_ADC_Int_SetChannelCmd>
1a001e12:	2200      	movs	r2, #0
1a001e14:	2104      	movs	r1, #4
1a001e16:	4620      	mov	r0, r4
1a001e18:	f000 ff0e 	bl	1a002c38 <Chip_ADC_EnableChannel>
1a001e1c:	2200      	movs	r2, #0
1a001e1e:	2104      	movs	r1, #4
1a001e20:	4620      	mov	r0, r4
1a001e22:	f000 fec9 	bl	1a002bb8 <Chip_ADC_Int_SetChannelCmd>
1a001e26:	e7c6      	b.n	1a001db6 <adcInit+0xa>
1a001e28:	4801      	ldr	r0, [pc, #4]	; (1a001e30 <adcInit+0x84>)
1a001e2a:	f000 fe9b 	bl	1a002b64 <Chip_ADC_DeInit>
1a001e2e:	e7c2      	b.n	1a001db6 <adcInit+0xa>
1a001e30:	400e3000 	.word	0x400e3000
1a001e34:	00030d40 	.word	0x00030d40

1a001e38 <adcRead>:
1a001e38:	b570      	push	{r4, r5, r6, lr}
1a001e3a:	b082      	sub	sp, #8
1a001e3c:	f1c0 0042 	rsb	r0, r0, #66	; 0x42
1a001e40:	b2c4      	uxtb	r4, r0
1a001e42:	2600      	movs	r6, #0
1a001e44:	f8ad 6006 	strh.w	r6, [sp, #6]
1a001e48:	4d10      	ldr	r5, [pc, #64]	; (1a001e8c <adcRead+0x54>)
1a001e4a:	2201      	movs	r2, #1
1a001e4c:	4621      	mov	r1, r4
1a001e4e:	4628      	mov	r0, r5
1a001e50:	f000 fef2 	bl	1a002c38 <Chip_ADC_EnableChannel>
1a001e54:	4632      	mov	r2, r6
1a001e56:	2101      	movs	r1, #1
1a001e58:	4628      	mov	r0, r5
1a001e5a:	f000 febe 	bl	1a002bda <Chip_ADC_SetStartMode>
1a001e5e:	2200      	movs	r2, #0
1a001e60:	4621      	mov	r1, r4
1a001e62:	480a      	ldr	r0, [pc, #40]	; (1a001e8c <adcRead+0x54>)
1a001e64:	f000 fe8d 	bl	1a002b82 <Chip_ADC_ReadStatus>
1a001e68:	2801      	cmp	r0, #1
1a001e6a:	d1f8      	bne.n	1a001e5e <adcRead+0x26>
1a001e6c:	4d07      	ldr	r5, [pc, #28]	; (1a001e8c <adcRead+0x54>)
1a001e6e:	f10d 0206 	add.w	r2, sp, #6
1a001e72:	4621      	mov	r1, r4
1a001e74:	4628      	mov	r0, r5
1a001e76:	f000 fe80 	bl	1a002b7a <Chip_ADC_ReadValue>
1a001e7a:	2200      	movs	r2, #0
1a001e7c:	4621      	mov	r1, r4
1a001e7e:	4628      	mov	r0, r5
1a001e80:	f000 feda 	bl	1a002c38 <Chip_ADC_EnableChannel>
1a001e84:	f8bd 0006 	ldrh.w	r0, [sp, #6]
1a001e88:	b002      	add	sp, #8
1a001e8a:	bd70      	pop	{r4, r5, r6, pc}
1a001e8c:	400e3000 	.word	0x400e3000

1a001e90 <Sct_Init>:
1a001e90:	b510      	push	{r4, lr}
1a001e92:	4604      	mov	r4, r0
1a001e94:	f04f 4080 	mov.w	r0, #1073741824	; 0x40000000
1a001e98:	f000 fddb 	bl	1a002a52 <Chip_SCT_Init>
1a001e9c:	4621      	mov	r1, r4
1a001e9e:	f04f 4080 	mov.w	r0, #1073741824	; 0x40000000
1a001ea2:	f000 fd71 	bl	1a002988 <Chip_SCTPWM_SetRate>
1a001ea6:	f04f 4280 	mov.w	r2, #1073741824	; 0x40000000
1a001eaa:	6853      	ldr	r3, [r2, #4]
1a001eac:	f023 1304 	bic.w	r3, r3, #262148	; 0x40004
1a001eb0:	6053      	str	r3, [r2, #4]
1a001eb2:	bd10      	pop	{r4, pc}

1a001eb4 <Sct_Uint8ToTicks>:
1a001eb4:	f04f 4380 	mov.w	r3, #1073741824	; 0x40000000
1a001eb8:	f8d3 3200 	ldr.w	r3, [r3, #512]	; 0x200
1a001ebc:	fb03 f000 	mul.w	r0, r3, r0
1a001ec0:	4b02      	ldr	r3, [pc, #8]	; (1a001ecc <Sct_Uint8ToTicks+0x18>)
1a001ec2:	fba3 3000 	umull	r3, r0, r3, r0
1a001ec6:	09c0      	lsrs	r0, r0, #7
1a001ec8:	4770      	bx	lr
1a001eca:	bf00      	nop
1a001ecc:	80808081 	.word	0x80808081

1a001ed0 <Sct_SetDutyCycle>:
1a001ed0:	b510      	push	{r4, lr}
1a001ed2:	3001      	adds	r0, #1
1a001ed4:	b2c4      	uxtb	r4, r0
1a001ed6:	4608      	mov	r0, r1
1a001ed8:	f7ff ffec 	bl	1a001eb4 <Sct_Uint8ToTicks>
1a001edc:	3480      	adds	r4, #128	; 0x80
1a001ede:	f04f 4380 	mov.w	r3, #1073741824	; 0x40000000
1a001ee2:	f843 0024 	str.w	r0, [r3, r4, lsl #2]
1a001ee6:	bd10      	pop	{r4, pc}

1a001ee8 <Sct_EnablePwmFor>:
1a001ee8:	b510      	push	{r4, lr}
1a001eea:	4604      	mov	r4, r0
1a001eec:	4a0f      	ldr	r2, [pc, #60]	; (1a001f2c <Sct_EnablePwmFor+0x44>)
1a001eee:	f912 3010 	ldrsb.w	r3, [r2, r0, lsl #1]
1a001ef2:	b2db      	uxtb	r3, r3
1a001ef4:	eb02 0240 	add.w	r2, r2, r0, lsl #1
1a001ef8:	f992 2001 	ldrsb.w	r2, [r2, #1]
1a001efc:	015b      	lsls	r3, r3, #5
1a001efe:	fa53 f382 	uxtab	r3, r3, r2
1a001f02:	4a0b      	ldr	r2, [pc, #44]	; (1a001f30 <Sct_EnablePwmFor+0x48>)
1a001f04:	2111      	movs	r1, #17
1a001f06:	f842 1023 	str.w	r1, [r2, r3, lsl #2]
1a001f0a:	1c41      	adds	r1, r0, #1
1a001f0c:	4602      	mov	r2, r0
1a001f0e:	b2c9      	uxtb	r1, r1
1a001f10:	f04f 4080 	mov.w	r0, #1073741824	; 0x40000000
1a001f14:	f000 fd16 	bl	1a002944 <Chip_SCTPWM_SetOutPin>
1a001f18:	f04f 4380 	mov.w	r3, #1073741824	; 0x40000000
1a001f1c:	f8d3 3200 	ldr.w	r3, [r3, #512]	; 0x200
1a001f20:	2100      	movs	r1, #0
1a001f22:	4620      	mov	r0, r4
1a001f24:	f7ff ffd4 	bl	1a001ed0 <Sct_SetDutyCycle>
1a001f28:	bd10      	pop	{r4, pc}
1a001f2a:	bf00      	nop
1a001f2c:	1a007ab8 	.word	0x1a007ab8
1a001f30:	40086000 	.word	0x40086000

1a001f34 <errorOcurred>:
1a001f34:	e7fe      	b.n	1a001f34 <errorOcurred>

1a001f36 <doNothing>:
1a001f36:	4770      	bx	lr

1a001f38 <TIMER0_IRQHandler>:
1a001f38:	b538      	push	{r3, r4, r5, lr}
1a001f3a:	2400      	movs	r4, #0
1a001f3c:	e001      	b.n	1a001f42 <TIMER0_IRQHandler+0xa>
1a001f3e:	3401      	adds	r4, #1
1a001f40:	b2e4      	uxtb	r4, r4
1a001f42:	2c03      	cmp	r4, #3
1a001f44:	d812      	bhi.n	1a001f6c <TIMER0_IRQHandler+0x34>
1a001f46:	b265      	sxtb	r5, r4
1a001f48:	4b09      	ldr	r3, [pc, #36]	; (1a001f70 <TIMER0_IRQHandler+0x38>)
1a001f4a:	681a      	ldr	r2, [r3, #0]
1a001f4c:	f004 010f 	and.w	r1, r4, #15
1a001f50:	2301      	movs	r3, #1
1a001f52:	408b      	lsls	r3, r1
1a001f54:	421a      	tst	r2, r3
1a001f56:	d0f2      	beq.n	1a001f3e <TIMER0_IRQHandler+0x6>
1a001f58:	4b06      	ldr	r3, [pc, #24]	; (1a001f74 <TIMER0_IRQHandler+0x3c>)
1a001f5a:	f853 3024 	ldr.w	r3, [r3, r4, lsl #2]
1a001f5e:	2000      	movs	r0, #0
1a001f60:	4798      	blx	r3
1a001f62:	2301      	movs	r3, #1
1a001f64:	40ab      	lsls	r3, r5
1a001f66:	4a02      	ldr	r2, [pc, #8]	; (1a001f70 <TIMER0_IRQHandler+0x38>)
1a001f68:	6013      	str	r3, [r2, #0]
1a001f6a:	e7e8      	b.n	1a001f3e <TIMER0_IRQHandler+0x6>
1a001f6c:	bd38      	pop	{r3, r4, r5, pc}
1a001f6e:	bf00      	nop
1a001f70:	40084000 	.word	0x40084000
1a001f74:	1000001c 	.word	0x1000001c

1a001f78 <TIMER1_IRQHandler>:
1a001f78:	b538      	push	{r3, r4, r5, lr}
1a001f7a:	2400      	movs	r4, #0
1a001f7c:	e001      	b.n	1a001f82 <TIMER1_IRQHandler+0xa>
1a001f7e:	3401      	adds	r4, #1
1a001f80:	b2e4      	uxtb	r4, r4
1a001f82:	2c03      	cmp	r4, #3
1a001f84:	d813      	bhi.n	1a001fae <TIMER1_IRQHandler+0x36>
1a001f86:	b265      	sxtb	r5, r4
1a001f88:	4b09      	ldr	r3, [pc, #36]	; (1a001fb0 <TIMER1_IRQHandler+0x38>)
1a001f8a:	681a      	ldr	r2, [r3, #0]
1a001f8c:	f004 010f 	and.w	r1, r4, #15
1a001f90:	2301      	movs	r3, #1
1a001f92:	408b      	lsls	r3, r1
1a001f94:	421a      	tst	r2, r3
1a001f96:	d0f2      	beq.n	1a001f7e <TIMER1_IRQHandler+0x6>
1a001f98:	1d23      	adds	r3, r4, #4
1a001f9a:	4a06      	ldr	r2, [pc, #24]	; (1a001fb4 <TIMER1_IRQHandler+0x3c>)
1a001f9c:	f852 3023 	ldr.w	r3, [r2, r3, lsl #2]
1a001fa0:	2000      	movs	r0, #0
1a001fa2:	4798      	blx	r3
1a001fa4:	2301      	movs	r3, #1
1a001fa6:	40ab      	lsls	r3, r5
1a001fa8:	4a01      	ldr	r2, [pc, #4]	; (1a001fb0 <TIMER1_IRQHandler+0x38>)
1a001faa:	6013      	str	r3, [r2, #0]
1a001fac:	e7e7      	b.n	1a001f7e <TIMER1_IRQHandler+0x6>
1a001fae:	bd38      	pop	{r3, r4, r5, pc}
1a001fb0:	40085000 	.word	0x40085000
1a001fb4:	1000001c 	.word	0x1000001c

1a001fb8 <TIMER2_IRQHandler>:
1a001fb8:	b538      	push	{r3, r4, r5, lr}
1a001fba:	2400      	movs	r4, #0
1a001fbc:	e001      	b.n	1a001fc2 <TIMER2_IRQHandler+0xa>
1a001fbe:	3401      	adds	r4, #1
1a001fc0:	b2e4      	uxtb	r4, r4
1a001fc2:	2c03      	cmp	r4, #3
1a001fc4:	d814      	bhi.n	1a001ff0 <TIMER2_IRQHandler+0x38>
1a001fc6:	b265      	sxtb	r5, r4
1a001fc8:	4b0a      	ldr	r3, [pc, #40]	; (1a001ff4 <TIMER2_IRQHandler+0x3c>)
1a001fca:	681a      	ldr	r2, [r3, #0]
1a001fcc:	f004 010f 	and.w	r1, r4, #15
1a001fd0:	2301      	movs	r3, #1
1a001fd2:	408b      	lsls	r3, r1
1a001fd4:	421a      	tst	r2, r3
1a001fd6:	d0f2      	beq.n	1a001fbe <TIMER2_IRQHandler+0x6>
1a001fd8:	f104 0308 	add.w	r3, r4, #8
1a001fdc:	4a06      	ldr	r2, [pc, #24]	; (1a001ff8 <TIMER2_IRQHandler+0x40>)
1a001fde:	f852 3023 	ldr.w	r3, [r2, r3, lsl #2]
1a001fe2:	2000      	movs	r0, #0
1a001fe4:	4798      	blx	r3
1a001fe6:	2301      	movs	r3, #1
1a001fe8:	40ab      	lsls	r3, r5
1a001fea:	4a02      	ldr	r2, [pc, #8]	; (1a001ff4 <TIMER2_IRQHandler+0x3c>)
1a001fec:	6013      	str	r3, [r2, #0]
1a001fee:	e7e6      	b.n	1a001fbe <TIMER2_IRQHandler+0x6>
1a001ff0:	bd38      	pop	{r3, r4, r5, pc}
1a001ff2:	bf00      	nop
1a001ff4:	400c3000 	.word	0x400c3000
1a001ff8:	1000001c 	.word	0x1000001c

1a001ffc <TIMER3_IRQHandler>:
1a001ffc:	b538      	push	{r3, r4, r5, lr}
1a001ffe:	2400      	movs	r4, #0
1a002000:	e001      	b.n	1a002006 <TIMER3_IRQHandler+0xa>
1a002002:	3401      	adds	r4, #1
1a002004:	b2e4      	uxtb	r4, r4
1a002006:	2c03      	cmp	r4, #3
1a002008:	d814      	bhi.n	1a002034 <TIMER3_IRQHandler+0x38>
1a00200a:	b265      	sxtb	r5, r4
1a00200c:	4b0a      	ldr	r3, [pc, #40]	; (1a002038 <TIMER3_IRQHandler+0x3c>)
1a00200e:	681a      	ldr	r2, [r3, #0]
1a002010:	f004 010f 	and.w	r1, r4, #15
1a002014:	2301      	movs	r3, #1
1a002016:	408b      	lsls	r3, r1
1a002018:	421a      	tst	r2, r3
1a00201a:	d0f2      	beq.n	1a002002 <TIMER3_IRQHandler+0x6>
1a00201c:	f104 030c 	add.w	r3, r4, #12
1a002020:	4a06      	ldr	r2, [pc, #24]	; (1a00203c <TIMER3_IRQHandler+0x40>)
1a002022:	f852 3023 	ldr.w	r3, [r2, r3, lsl #2]
1a002026:	2000      	movs	r0, #0
1a002028:	4798      	blx	r3
1a00202a:	2301      	movs	r3, #1
1a00202c:	40ab      	lsls	r3, r5
1a00202e:	4a02      	ldr	r2, [pc, #8]	; (1a002038 <TIMER3_IRQHandler+0x3c>)
1a002030:	6013      	str	r3, [r2, #0]
1a002032:	e7e6      	b.n	1a002002 <TIMER3_IRQHandler+0x6>
1a002034:	bd38      	pop	{r3, r4, r5, pc}
1a002036:	bf00      	nop
1a002038:	400c4000 	.word	0x400c4000
1a00203c:	1000001c 	.word	0x1000001c

1a002040 <tickRead>:
1a002040:	4b01      	ldr	r3, [pc, #4]	; (1a002048 <tickRead+0x8>)
1a002042:	e9d3 0100 	ldrd	r0, r1, [r3]
1a002046:	4770      	bx	lr
1a002048:	100002e8 	.word	0x100002e8

1a00204c <tickPowerSet>:
1a00204c:	b118      	cbz	r0, 1a002056 <tickPowerSet+0xa>
1a00204e:	4b04      	ldr	r3, [pc, #16]	; (1a002060 <tickPowerSet+0x14>)
1a002050:	2207      	movs	r2, #7
1a002052:	601a      	str	r2, [r3, #0]
1a002054:	4770      	bx	lr
1a002056:	4b02      	ldr	r3, [pc, #8]	; (1a002060 <tickPowerSet+0x14>)
1a002058:	2200      	movs	r2, #0
1a00205a:	601a      	str	r2, [r3, #0]
1a00205c:	4770      	bx	lr
1a00205e:	bf00      	nop
1a002060:	e000e010 	.word	0xe000e010

1a002064 <tickInit>:
1a002064:	b538      	push	{r3, r4, r5, lr}
1a002066:	ea50 0401 	orrs.w	r4, r0, r1
1a00206a:	d02a      	beq.n	1a0020c2 <tickInit+0x5e>
1a00206c:	f110 32ff 	adds.w	r2, r0, #4294967295
1a002070:	f141 33ff 	adc.w	r3, r1, #4294967295
1a002074:	2b00      	cmp	r3, #0
1a002076:	bf08      	it	eq
1a002078:	2a32      	cmpeq	r2, #50	; 0x32
1a00207a:	d227      	bcs.n	1a0020cc <tickInit+0x68>
1a00207c:	4b14      	ldr	r3, [pc, #80]	; (1a0020d0 <tickInit+0x6c>)
1a00207e:	e9c3 0100 	strd	r0, r1, [r3]
1a002082:	4b14      	ldr	r3, [pc, #80]	; (1a0020d4 <tickInit+0x70>)
1a002084:	681b      	ldr	r3, [r3, #0]
1a002086:	fba3 4500 	umull	r4, r5, r3, r0
1a00208a:	fb03 5501 	mla	r5, r3, r1, r5
1a00208e:	f44f 727a 	mov.w	r2, #1000	; 0x3e8
1a002092:	2300      	movs	r3, #0
1a002094:	4620      	mov	r0, r4
1a002096:	4629      	mov	r1, r5
1a002098:	f001 ff30 	bl	1a003efc <__aeabi_uldivmod>
1a00209c:	3801      	subs	r0, #1
1a00209e:	f1b0 7f80 	cmp.w	r0, #16777216	; 0x1000000
1a0020a2:	d209      	bcs.n	1a0020b8 <tickInit+0x54>
1a0020a4:	4b0c      	ldr	r3, [pc, #48]	; (1a0020d8 <tickInit+0x74>)
1a0020a6:	6058      	str	r0, [r3, #4]
1a0020a8:	4a0c      	ldr	r2, [pc, #48]	; (1a0020dc <tickInit+0x78>)
1a0020aa:	21e0      	movs	r1, #224	; 0xe0
1a0020ac:	f882 1023 	strb.w	r1, [r2, #35]	; 0x23
1a0020b0:	2200      	movs	r2, #0
1a0020b2:	609a      	str	r2, [r3, #8]
1a0020b4:	2207      	movs	r2, #7
1a0020b6:	601a      	str	r2, [r3, #0]
1a0020b8:	2001      	movs	r0, #1
1a0020ba:	f7ff ffc7 	bl	1a00204c <tickPowerSet>
1a0020be:	2001      	movs	r0, #1
1a0020c0:	bd38      	pop	{r3, r4, r5, pc}
1a0020c2:	2000      	movs	r0, #0
1a0020c4:	f7ff ffc2 	bl	1a00204c <tickPowerSet>
1a0020c8:	2000      	movs	r0, #0
1a0020ca:	e7f9      	b.n	1a0020c0 <tickInit+0x5c>
1a0020cc:	2000      	movs	r0, #0
1a0020ce:	e7f7      	b.n	1a0020c0 <tickInit+0x5c>
1a0020d0:	10000310 	.word	0x10000310
1a0020d4:	1000031c 	.word	0x1000031c
1a0020d8:	e000e010 	.word	0xe000e010
1a0020dc:	e000ed00 	.word	0xe000ed00

1a0020e0 <SysTick_Handler>:
1a0020e0:	b508      	push	{r3, lr}
1a0020e2:	4a07      	ldr	r2, [pc, #28]	; (1a002100 <SysTick_Handler+0x20>)
1a0020e4:	6813      	ldr	r3, [r2, #0]
1a0020e6:	6851      	ldr	r1, [r2, #4]
1a0020e8:	3301      	adds	r3, #1
1a0020ea:	f141 0100 	adc.w	r1, r1, #0
1a0020ee:	6013      	str	r3, [r2, #0]
1a0020f0:	6051      	str	r1, [r2, #4]
1a0020f2:	4b04      	ldr	r3, [pc, #16]	; (1a002104 <SysTick_Handler+0x24>)
1a0020f4:	681b      	ldr	r3, [r3, #0]
1a0020f6:	b113      	cbz	r3, 1a0020fe <SysTick_Handler+0x1e>
1a0020f8:	4a03      	ldr	r2, [pc, #12]	; (1a002108 <SysTick_Handler+0x28>)
1a0020fa:	6810      	ldr	r0, [r2, #0]
1a0020fc:	4798      	blx	r3
1a0020fe:	bd08      	pop	{r3, pc}
1a002100:	100002e8 	.word	0x100002e8
1a002104:	100002f0 	.word	0x100002f0
1a002108:	100002e4 	.word	0x100002e4

1a00210c <uartRxReady>:
1a00210c:	eb00 0040 	add.w	r0, r0, r0, lsl #1
1a002110:	0083      	lsls	r3, r0, #2
1a002112:	4a03      	ldr	r2, [pc, #12]	; (1a002120 <uartRxReady+0x14>)
1a002114:	58d3      	ldr	r3, [r2, r3]
1a002116:	6958      	ldr	r0, [r3, #20]
1a002118:	f000 0001 	and.w	r0, r0, #1
1a00211c:	4770      	bx	lr
1a00211e:	bf00      	nop
1a002120:	1a007ad4 	.word	0x1a007ad4

1a002124 <uartTxReady>:
1a002124:	eb00 0040 	add.w	r0, r0, r0, lsl #1
1a002128:	0083      	lsls	r3, r0, #2
1a00212a:	4a03      	ldr	r2, [pc, #12]	; (1a002138 <uartTxReady+0x14>)
1a00212c:	58d3      	ldr	r3, [r2, r3]
1a00212e:	6958      	ldr	r0, [r3, #20]
1a002130:	f000 0020 	and.w	r0, r0, #32
1a002134:	4770      	bx	lr
1a002136:	bf00      	nop
1a002138:	1a007ad4 	.word	0x1a007ad4

1a00213c <uartRxRead>:
1a00213c:	eb00 0040 	add.w	r0, r0, r0, lsl #1
1a002140:	0083      	lsls	r3, r0, #2
1a002142:	4a02      	ldr	r2, [pc, #8]	; (1a00214c <uartRxRead+0x10>)
1a002144:	58d3      	ldr	r3, [r2, r3]
1a002146:	6818      	ldr	r0, [r3, #0]
1a002148:	b2c0      	uxtb	r0, r0
1a00214a:	4770      	bx	lr
1a00214c:	1a007ad4 	.word	0x1a007ad4

1a002150 <uartTxWrite>:
1a002150:	eb00 0040 	add.w	r0, r0, r0, lsl #1
1a002154:	0083      	lsls	r3, r0, #2
1a002156:	4a02      	ldr	r2, [pc, #8]	; (1a002160 <uartTxWrite+0x10>)
1a002158:	58d3      	ldr	r3, [r2, r3]
1a00215a:	6019      	str	r1, [r3, #0]
1a00215c:	4770      	bx	lr
1a00215e:	bf00      	nop
1a002160:	1a007ad4 	.word	0x1a007ad4

1a002164 <uartInit>:
1a002164:	e92d 43f8 	stmdb	sp!, {r3, r4, r5, r6, r7, r8, r9, lr}
1a002168:	4680      	mov	r8, r0
1a00216a:	4689      	mov	r9, r1
1a00216c:	4c19      	ldr	r4, [pc, #100]	; (1a0021d4 <uartInit+0x70>)
1a00216e:	0045      	lsls	r5, r0, #1
1a002170:	182a      	adds	r2, r5, r0
1a002172:	0093      	lsls	r3, r2, #2
1a002174:	18e6      	adds	r6, r4, r3
1a002176:	58e7      	ldr	r7, [r4, r3]
1a002178:	4638      	mov	r0, r7
1a00217a:	f001 f92f 	bl	1a0033dc <Chip_UART_Init>
1a00217e:	4649      	mov	r1, r9
1a002180:	4638      	mov	r0, r7
1a002182:	f001 f955 	bl	1a003430 <Chip_UART_SetBaud>
1a002186:	2307      	movs	r3, #7
1a002188:	60bb      	str	r3, [r7, #8]
1a00218a:	683b      	ldr	r3, [r7, #0]
1a00218c:	2301      	movs	r3, #1
1a00218e:	65fb      	str	r3, [r7, #92]	; 0x5c
1a002190:	7930      	ldrb	r0, [r6, #4]
1a002192:	7973      	ldrb	r3, [r6, #5]
1a002194:	79b2      	ldrb	r2, [r6, #6]
1a002196:	f042 0218 	orr.w	r2, r2, #24
1a00219a:	490f      	ldr	r1, [pc, #60]	; (1a0021d8 <uartInit+0x74>)
1a00219c:	eb03 1340 	add.w	r3, r3, r0, lsl #5
1a0021a0:	f841 2023 	str.w	r2, [r1, r3, lsl #2]
1a0021a4:	79f0      	ldrb	r0, [r6, #7]
1a0021a6:	7a33      	ldrb	r3, [r6, #8]
1a0021a8:	7a72      	ldrb	r2, [r6, #9]
1a0021aa:	f042 02d0 	orr.w	r2, r2, #208	; 0xd0
1a0021ae:	eb03 1340 	add.w	r3, r3, r0, lsl #5
1a0021b2:	f841 2023 	str.w	r2, [r1, r3, lsl #2]
1a0021b6:	f1b8 0f01 	cmp.w	r8, #1
1a0021ba:	d001      	beq.n	1a0021c0 <uartInit+0x5c>
1a0021bc:	e8bd 83f8 	ldmia.w	sp!, {r3, r4, r5, r6, r7, r8, r9, pc}
1a0021c0:	4a06      	ldr	r2, [pc, #24]	; (1a0021dc <uartInit+0x78>)
1a0021c2:	6cd3      	ldr	r3, [r2, #76]	; 0x4c
1a0021c4:	f043 0330 	orr.w	r3, r3, #48	; 0x30
1a0021c8:	64d3      	str	r3, [r2, #76]	; 0x4c
1a0021ca:	221a      	movs	r2, #26
1a0021cc:	f8c1 2308 	str.w	r2, [r1, #776]	; 0x308
1a0021d0:	e7f4      	b.n	1a0021bc <uartInit+0x58>
1a0021d2:	bf00      	nop
1a0021d4:	1a007ad4 	.word	0x1a007ad4
1a0021d8:	40086000 	.word	0x40086000
1a0021dc:	40081000 	.word	0x40081000

1a0021e0 <uartReadByte>:
1a0021e0:	b538      	push	{r3, r4, r5, lr}
1a0021e2:	4605      	mov	r5, r0
1a0021e4:	460c      	mov	r4, r1
1a0021e6:	f7ff ff91 	bl	1a00210c <uartRxReady>
1a0021ea:	4603      	mov	r3, r0
1a0021ec:	b908      	cbnz	r0, 1a0021f2 <uartReadByte+0x12>
1a0021ee:	4618      	mov	r0, r3
1a0021f0:	bd38      	pop	{r3, r4, r5, pc}
1a0021f2:	4628      	mov	r0, r5
1a0021f4:	f7ff ffa2 	bl	1a00213c <uartRxRead>
1a0021f8:	7020      	strb	r0, [r4, #0]
1a0021fa:	2301      	movs	r3, #1
1a0021fc:	e7f7      	b.n	1a0021ee <uartReadByte+0xe>

1a0021fe <uartWriteByte>:
1a0021fe:	b538      	push	{r3, r4, r5, lr}
1a002200:	4604      	mov	r4, r0
1a002202:	460d      	mov	r5, r1
1a002204:	4620      	mov	r0, r4
1a002206:	f7ff ff8d 	bl	1a002124 <uartTxReady>
1a00220a:	2800      	cmp	r0, #0
1a00220c:	d0fa      	beq.n	1a002204 <uartWriteByte+0x6>
1a00220e:	4629      	mov	r1, r5
1a002210:	4620      	mov	r0, r4
1a002212:	f7ff ff9d 	bl	1a002150 <uartTxWrite>
1a002216:	bd38      	pop	{r3, r4, r5, pc}

1a002218 <uartWriteString>:
1a002218:	b538      	push	{r3, r4, r5, lr}
1a00221a:	4605      	mov	r5, r0
1a00221c:	460c      	mov	r4, r1
1a00221e:	7821      	ldrb	r1, [r4, #0]
1a002220:	b121      	cbz	r1, 1a00222c <uartWriteString+0x14>
1a002222:	4628      	mov	r0, r5
1a002224:	f7ff ffeb 	bl	1a0021fe <uartWriteByte>
1a002228:	3401      	adds	r4, #1
1a00222a:	e7f8      	b.n	1a00221e <uartWriteString+0x6>
1a00222c:	bd38      	pop	{r3, r4, r5, pc}

1a00222e <pwmInitTimers>:
1a00222e:	b508      	push	{r3, lr}
1a002230:	f44f 707a 	mov.w	r0, #1000	; 0x3e8
1a002234:	f7ff fe2c 	bl	1a001e90 <Sct_Init>
1a002238:	bd08      	pop	{r3, pc}
1a00223a:	Address 0x1a00223a is out of bounds.


1a00223c <pwmIsAttached>:
1a00223c:	2300      	movs	r3, #0
1a00223e:	2b0a      	cmp	r3, #10
1a002240:	d806      	bhi.n	1a002250 <pwmIsAttached+0x14>
1a002242:	4a07      	ldr	r2, [pc, #28]	; (1a002260 <pwmIsAttached+0x24>)
1a002244:	5cd2      	ldrb	r2, [r2, r3]
1a002246:	4282      	cmp	r2, r0
1a002248:	d002      	beq.n	1a002250 <pwmIsAttached+0x14>
1a00224a:	3301      	adds	r3, #1
1a00224c:	b2db      	uxtb	r3, r3
1a00224e:	e7f6      	b.n	1a00223e <pwmIsAttached+0x2>
1a002250:	2b0a      	cmp	r3, #10
1a002252:	d802      	bhi.n	1a00225a <pwmIsAttached+0x1e>
1a002254:	1c58      	adds	r0, r3, #1
1a002256:	b2c0      	uxtb	r0, r0
1a002258:	4770      	bx	lr
1a00225a:	2000      	movs	r0, #0
1a00225c:	4770      	bx	lr
1a00225e:	bf00      	nop
1a002260:	1000005c 	.word	0x1000005c

1a002264 <pwmWrite>:
1a002264:	b538      	push	{r3, r4, r5, lr}
1a002266:	4604      	mov	r4, r0
1a002268:	460d      	mov	r5, r1
1a00226a:	f7ff ffe7 	bl	1a00223c <pwmIsAttached>
1a00226e:	b908      	cbnz	r0, 1a002274 <pwmWrite+0x10>
1a002270:	2000      	movs	r0, #0
1a002272:	bd38      	pop	{r3, r4, r5, pc}
1a002274:	4629      	mov	r1, r5
1a002276:	4b03      	ldr	r3, [pc, #12]	; (1a002284 <pwmWrite+0x20>)
1a002278:	5d18      	ldrb	r0, [r3, r4]
1a00227a:	f7ff fe29 	bl	1a001ed0 <Sct_SetDutyCycle>
1a00227e:	2001      	movs	r0, #1
1a002280:	e7f7      	b.n	1a002272 <pwmWrite+0xe>
1a002282:	bf00      	nop
1a002284:	1a007b1c 	.word	0x1a007b1c

1a002288 <pwmAttach>:
1a002288:	b510      	push	{r4, lr}
1a00228a:	4604      	mov	r4, r0
1a00228c:	f7ff ffd6 	bl	1a00223c <pwmIsAttached>
1a002290:	b970      	cbnz	r0, 1a0022b0 <pwmAttach+0x28>
1a002292:	20ff      	movs	r0, #255	; 0xff
1a002294:	f7ff ffd2 	bl	1a00223c <pwmIsAttached>
1a002298:	b908      	cbnz	r0, 1a00229e <pwmAttach+0x16>
1a00229a:	2000      	movs	r0, #0
1a00229c:	e009      	b.n	1a0022b2 <pwmAttach+0x2a>
1a00229e:	1e43      	subs	r3, r0, #1
1a0022a0:	4a04      	ldr	r2, [pc, #16]	; (1a0022b4 <pwmAttach+0x2c>)
1a0022a2:	54d4      	strb	r4, [r2, r3]
1a0022a4:	4b04      	ldr	r3, [pc, #16]	; (1a0022b8 <pwmAttach+0x30>)
1a0022a6:	5d18      	ldrb	r0, [r3, r4]
1a0022a8:	f7ff fe1e 	bl	1a001ee8 <Sct_EnablePwmFor>
1a0022ac:	2001      	movs	r0, #1
1a0022ae:	e000      	b.n	1a0022b2 <pwmAttach+0x2a>
1a0022b0:	2000      	movs	r0, #0
1a0022b2:	bd10      	pop	{r4, pc}
1a0022b4:	1000005c 	.word	0x1000005c
1a0022b8:	1a007b1c 	.word	0x1a007b1c

1a0022bc <pwmDetach>:
1a0022bc:	b508      	push	{r3, lr}
1a0022be:	f7ff ffbd 	bl	1a00223c <pwmIsAttached>
1a0022c2:	b128      	cbz	r0, 1a0022d0 <pwmDetach+0x14>
1a0022c4:	1e43      	subs	r3, r0, #1
1a0022c6:	4a03      	ldr	r2, [pc, #12]	; (1a0022d4 <pwmDetach+0x18>)
1a0022c8:	21ff      	movs	r1, #255	; 0xff
1a0022ca:	54d1      	strb	r1, [r2, r3]
1a0022cc:	2001      	movs	r0, #1
1a0022ce:	e000      	b.n	1a0022d2 <pwmDetach+0x16>
1a0022d0:	2000      	movs	r0, #0
1a0022d2:	bd08      	pop	{r3, pc}
1a0022d4:	1000005c 	.word	0x1000005c

1a0022d8 <pwmInit>:
1a0022d8:	b508      	push	{r3, lr}
1a0022da:	2902      	cmp	r1, #2
1a0022dc:	d008      	beq.n	1a0022f0 <pwmInit+0x18>
1a0022de:	2903      	cmp	r1, #3
1a0022e0:	d009      	beq.n	1a0022f6 <pwmInit+0x1e>
1a0022e2:	b109      	cbz	r1, 1a0022e8 <pwmInit+0x10>
1a0022e4:	2000      	movs	r0, #0
1a0022e6:	bd08      	pop	{r3, pc}
1a0022e8:	f7ff ffa1 	bl	1a00222e <pwmInitTimers>
1a0022ec:	2001      	movs	r0, #1
1a0022ee:	e7fa      	b.n	1a0022e6 <pwmInit+0xe>
1a0022f0:	f7ff ffca 	bl	1a002288 <pwmAttach>
1a0022f4:	e7f7      	b.n	1a0022e6 <pwmInit+0xe>
1a0022f6:	f7ff ffe1 	bl	1a0022bc <pwmDetach>
1a0022fa:	e7f4      	b.n	1a0022e6 <pwmInit+0xe>

1a0022fc <USB0_IRQHandler>:
1a0022fc:	b508      	push	{r3, lr}
1a0022fe:	4b04      	ldr	r3, [pc, #16]	; (1a002310 <USB0_IRQHandler+0x14>)
1a002300:	681b      	ldr	r3, [r3, #0]
1a002302:	681b      	ldr	r3, [r3, #0]
1a002304:	68db      	ldr	r3, [r3, #12]
1a002306:	4a03      	ldr	r2, [pc, #12]	; (1a002314 <USB0_IRQHandler+0x18>)
1a002308:	6810      	ldr	r0, [r2, #0]
1a00230a:	4798      	blx	r3
1a00230c:	bd08      	pop	{r3, pc}
1a00230e:	bf00      	nop
1a002310:	10000318 	.word	0x10000318
1a002314:	100002f4 	.word	0x100002f4

1a002318 <boardInit>:
1a002318:	b508      	push	{r3, lr}
1a00231a:	f000 fd5f 	bl	1a002ddc <SystemCoreClockUpdate>
1a00231e:	4b3a      	ldr	r3, [pc, #232]	; (1a002408 <boardInit+0xf0>)
1a002320:	6818      	ldr	r0, [r3, #0]
1a002322:	f7ff fbfb 	bl	1a001b1c <cyclesCounterInit>
1a002326:	2001      	movs	r0, #1
1a002328:	2100      	movs	r1, #0
1a00232a:	f7ff fe9b 	bl	1a002064 <tickInit>
1a00232e:	2105      	movs	r1, #5
1a002330:	2000      	movs	r0, #0
1a002332:	f7ff fc1b 	bl	1a001b6c <gpioInit>
1a002336:	2100      	movs	r1, #0
1a002338:	2024      	movs	r0, #36	; 0x24
1a00233a:	f7ff fc17 	bl	1a001b6c <gpioInit>
1a00233e:	2100      	movs	r1, #0
1a002340:	2025      	movs	r0, #37	; 0x25
1a002342:	f7ff fc13 	bl	1a001b6c <gpioInit>
1a002346:	2100      	movs	r1, #0
1a002348:	2026      	movs	r0, #38	; 0x26
1a00234a:	f7ff fc0f 	bl	1a001b6c <gpioInit>
1a00234e:	2100      	movs	r1, #0
1a002350:	2027      	movs	r0, #39	; 0x27
1a002352:	f7ff fc0b 	bl	1a001b6c <gpioInit>
1a002356:	2101      	movs	r1, #1
1a002358:	2028      	movs	r0, #40	; 0x28
1a00235a:	f7ff fc07 	bl	1a001b6c <gpioInit>
1a00235e:	2101      	movs	r1, #1
1a002360:	2029      	movs	r0, #41	; 0x29
1a002362:	f7ff fc03 	bl	1a001b6c <gpioInit>
1a002366:	2101      	movs	r1, #1
1a002368:	202a      	movs	r0, #42	; 0x2a
1a00236a:	f7ff fbff 	bl	1a001b6c <gpioInit>
1a00236e:	2101      	movs	r1, #1
1a002370:	202b      	movs	r0, #43	; 0x2b
1a002372:	f7ff fbfb 	bl	1a001b6c <gpioInit>
1a002376:	2101      	movs	r1, #1
1a002378:	202c      	movs	r0, #44	; 0x2c
1a00237a:	f7ff fbf7 	bl	1a001b6c <gpioInit>
1a00237e:	2101      	movs	r1, #1
1a002380:	202d      	movs	r0, #45	; 0x2d
1a002382:	f7ff fbf3 	bl	1a001b6c <gpioInit>
1a002386:	2100      	movs	r1, #0
1a002388:	202e      	movs	r0, #46	; 0x2e
1a00238a:	f7ff fbef 	bl	1a001b6c <gpioInit>
1a00238e:	2100      	movs	r1, #0
1a002390:	202f      	movs	r0, #47	; 0x2f
1a002392:	f7ff fbeb 	bl	1a001b6c <gpioInit>
1a002396:	2100      	movs	r1, #0
1a002398:	2030      	movs	r0, #48	; 0x30
1a00239a:	f7ff fbe7 	bl	1a001b6c <gpioInit>
1a00239e:	2100      	movs	r1, #0
1a0023a0:	2031      	movs	r0, #49	; 0x31
1a0023a2:	f7ff fbe3 	bl	1a001b6c <gpioInit>
1a0023a6:	2100      	movs	r1, #0
1a0023a8:	2032      	movs	r0, #50	; 0x32
1a0023aa:	f7ff fbdf 	bl	1a001b6c <gpioInit>
1a0023ae:	2100      	movs	r1, #0
1a0023b0:	2033      	movs	r0, #51	; 0x33
1a0023b2:	f7ff fbdb 	bl	1a001b6c <gpioInit>
1a0023b6:	2100      	movs	r1, #0
1a0023b8:	2034      	movs	r0, #52	; 0x34
1a0023ba:	f7ff fbd7 	bl	1a001b6c <gpioInit>
1a0023be:	2100      	movs	r1, #0
1a0023c0:	2035      	movs	r0, #53	; 0x35
1a0023c2:	f7ff fbd3 	bl	1a001b6c <gpioInit>
1a0023c6:	2101      	movs	r1, #1
1a0023c8:	2036      	movs	r0, #54	; 0x36
1a0023ca:	f7ff fbcf 	bl	1a001b6c <gpioInit>
1a0023ce:	2101      	movs	r1, #1
1a0023d0:	2037      	movs	r0, #55	; 0x37
1a0023d2:	f7ff fbcb 	bl	1a001b6c <gpioInit>
1a0023d6:	2101      	movs	r1, #1
1a0023d8:	2038      	movs	r0, #56	; 0x38
1a0023da:	f7ff fbc7 	bl	1a001b6c <gpioInit>
1a0023de:	2101      	movs	r1, #1
1a0023e0:	2039      	movs	r0, #57	; 0x39
1a0023e2:	f7ff fbc3 	bl	1a001b6c <gpioInit>
1a0023e6:	2101      	movs	r1, #1
1a0023e8:	203a      	movs	r0, #58	; 0x3a
1a0023ea:	f7ff fbbf 	bl	1a001b6c <gpioInit>
1a0023ee:	2101      	movs	r1, #1
1a0023f0:	203b      	movs	r0, #59	; 0x3b
1a0023f2:	f7ff fbbb 	bl	1a001b6c <gpioInit>
1a0023f6:	2101      	movs	r1, #1
1a0023f8:	203c      	movs	r0, #60	; 0x3c
1a0023fa:	f7ff fbb7 	bl	1a001b6c <gpioInit>
1a0023fe:	2101      	movs	r1, #1
1a002400:	203d      	movs	r0, #61	; 0x3d
1a002402:	f7ff fbb3 	bl	1a001b6c <gpioInit>
1a002406:	bd08      	pop	{r3, pc}
1a002408:	1000031c 	.word	0x1000031c

1a00240c <delay>:
1a00240c:	e92d 43f8 	stmdb	sp!, {r3, r4, r5, r6, r7, r8, r9, lr}
1a002410:	4680      	mov	r8, r0
1a002412:	4689      	mov	r9, r1
1a002414:	f7ff fe14 	bl	1a002040 <tickRead>
1a002418:	4606      	mov	r6, r0
1a00241a:	460f      	mov	r7, r1
1a00241c:	f7ff fe10 	bl	1a002040 <tickRead>
1a002420:	1b84      	subs	r4, r0, r6
1a002422:	eb61 0507 	sbc.w	r5, r1, r7
1a002426:	4b06      	ldr	r3, [pc, #24]	; (1a002440 <delay+0x34>)
1a002428:	e9d3 2300 	ldrd	r2, r3, [r3]
1a00242c:	4640      	mov	r0, r8
1a00242e:	4649      	mov	r1, r9
1a002430:	f001 fd64 	bl	1a003efc <__aeabi_uldivmod>
1a002434:	428d      	cmp	r5, r1
1a002436:	bf08      	it	eq
1a002438:	4284      	cmpeq	r4, r0
1a00243a:	d3ef      	bcc.n	1a00241c <delay+0x10>
1a00243c:	e8bd 83f8 	ldmia.w	sp!, {r3, r4, r5, r6, r7, r8, r9, pc}
1a002440:	10000310 	.word	0x10000310

1a002444 <delayInit>:
1a002444:	b510      	push	{r4, lr}
1a002446:	4604      	mov	r4, r0
1a002448:	4610      	mov	r0, r2
1a00244a:	4619      	mov	r1, r3
1a00244c:	4b04      	ldr	r3, [pc, #16]	; (1a002460 <delayInit+0x1c>)
1a00244e:	e9d3 2300 	ldrd	r2, r3, [r3]
1a002452:	f001 fd53 	bl	1a003efc <__aeabi_uldivmod>
1a002456:	e9c4 0102 	strd	r0, r1, [r4, #8]
1a00245a:	2300      	movs	r3, #0
1a00245c:	7423      	strb	r3, [r4, #16]
1a00245e:	bd10      	pop	{r4, pc}
1a002460:	10000310 	.word	0x10000310

1a002464 <delayRead>:
1a002464:	b5f8      	push	{r3, r4, r5, r6, r7, lr}
1a002466:	4604      	mov	r4, r0
1a002468:	7c05      	ldrb	r5, [r0, #16]
1a00246a:	b93d      	cbnz	r5, 1a00247c <delayRead+0x18>
1a00246c:	f7ff fde8 	bl	1a002040 <tickRead>
1a002470:	e9c4 0100 	strd	r0, r1, [r4]
1a002474:	2301      	movs	r3, #1
1a002476:	7423      	strb	r3, [r4, #16]
1a002478:	4628      	mov	r0, r5
1a00247a:	bdf8      	pop	{r3, r4, r5, r6, r7, pc}
1a00247c:	f7ff fde0 	bl	1a002040 <tickRead>
1a002480:	6823      	ldr	r3, [r4, #0]
1a002482:	6862      	ldr	r2, [r4, #4]
1a002484:	1ac6      	subs	r6, r0, r3
1a002486:	eb61 0702 	sbc.w	r7, r1, r2
1a00248a:	e9d4 2302 	ldrd	r2, r3, [r4, #8]
1a00248e:	429f      	cmp	r7, r3
1a002490:	bf08      	it	eq
1a002492:	4296      	cmpeq	r6, r2
1a002494:	d303      	bcc.n	1a00249e <delayRead+0x3a>
1a002496:	2300      	movs	r3, #0
1a002498:	7423      	strb	r3, [r4, #16]
1a00249a:	2501      	movs	r5, #1
1a00249c:	e7ec      	b.n	1a002478 <delayRead+0x14>
1a00249e:	2500      	movs	r5, #0
1a0024a0:	e7ea      	b.n	1a002478 <delayRead+0x14>
1a0024a2:	Address 0x1a0024a2 is out of bounds.


1a0024a4 <clearInterrupt>:
1a0024a4:	2301      	movs	r3, #1
1a0024a6:	fa03 f000 	lsl.w	r0, r3, r0
1a0024aa:	4b01      	ldr	r3, [pc, #4]	; (1a0024b0 <clearInterrupt+0xc>)
1a0024ac:	6258      	str	r0, [r3, #36]	; 0x24
1a0024ae:	4770      	bx	lr
1a0024b0:	40087000 	.word	0x40087000

1a0024b4 <serveInterrupt>:
1a0024b4:	b5f8      	push	{r3, r4, r5, r6, r7, lr}
1a0024b6:	4b12      	ldr	r3, [pc, #72]	; (1a002500 <serveInterrupt+0x4c>)
1a0024b8:	5c1a      	ldrb	r2, [r3, r0]
1a0024ba:	4b12      	ldr	r3, [pc, #72]	; (1a002504 <serveInterrupt+0x50>)
1a0024bc:	69d9      	ldr	r1, [r3, #28]
1a0024be:	2301      	movs	r3, #1
1a0024c0:	4083      	lsls	r3, r0
1a0024c2:	420b      	tst	r3, r1
1a0024c4:	d00c      	beq.n	1a0024e0 <serveInterrupt+0x2c>
1a0024c6:	4910      	ldr	r1, [pc, #64]	; (1a002508 <serveInterrupt+0x54>)
1a0024c8:	688c      	ldr	r4, [r1, #8]
1a0024ca:	eb02 0242 	add.w	r2, r2, r2, lsl #1
1a0024ce:	00d1      	lsls	r1, r2, #3
1a0024d0:	4a0e      	ldr	r2, [pc, #56]	; (1a00250c <serveInterrupt+0x58>)
1a0024d2:	440a      	add	r2, r1
1a0024d4:	6054      	str	r4, [r2, #4]
1a0024d6:	4a0b      	ldr	r2, [pc, #44]	; (1a002504 <serveInterrupt+0x50>)
1a0024d8:	61d3      	str	r3, [r2, #28]
1a0024da:	f7ff ffe3 	bl	1a0024a4 <clearInterrupt>
1a0024de:	bdf8      	pop	{r3, r4, r5, r6, r7, pc}
1a0024e0:	4909      	ldr	r1, [pc, #36]	; (1a002508 <serveInterrupt+0x54>)
1a0024e2:	688e      	ldr	r6, [r1, #8]
1a0024e4:	4d09      	ldr	r5, [pc, #36]	; (1a00250c <serveInterrupt+0x58>)
1a0024e6:	0051      	lsls	r1, r2, #1
1a0024e8:	188f      	adds	r7, r1, r2
1a0024ea:	00fc      	lsls	r4, r7, #3
1a0024ec:	4627      	mov	r7, r4
1a0024ee:	442c      	add	r4, r5
1a0024f0:	60a6      	str	r6, [r4, #8]
1a0024f2:	6864      	ldr	r4, [r4, #4]
1a0024f4:	1b36      	subs	r6, r6, r4
1a0024f6:	443d      	add	r5, r7
1a0024f8:	60ee      	str	r6, [r5, #12]
1a0024fa:	4a02      	ldr	r2, [pc, #8]	; (1a002504 <serveInterrupt+0x50>)
1a0024fc:	6213      	str	r3, [r2, #32]
1a0024fe:	e7ec      	b.n	1a0024da <serveInterrupt+0x26>
1a002500:	1a007b28 	.word	0x1a007b28
1a002504:	40087000 	.word	0x40087000
1a002508:	40084000 	.word	0x40084000
1a00250c:	10000068 	.word	0x10000068

1a002510 <GPIO0_IRQHandler>:
1a002510:	b508      	push	{r3, lr}
1a002512:	2000      	movs	r0, #0
1a002514:	f7ff ffce 	bl	1a0024b4 <serveInterrupt>
1a002518:	bd08      	pop	{r3, pc}

1a00251a <GPIO1_IRQHandler>:
1a00251a:	b508      	push	{r3, lr}
1a00251c:	2001      	movs	r0, #1
1a00251e:	f7ff ffc9 	bl	1a0024b4 <serveInterrupt>
1a002522:	bd08      	pop	{r3, pc}

1a002524 <GPIO2_IRQHandler>:
1a002524:	b508      	push	{r3, lr}
1a002526:	2002      	movs	r0, #2
1a002528:	f7ff ffc4 	bl	1a0024b4 <serveInterrupt>
1a00252c:	bd08      	pop	{r3, pc}
1a00252e:	Address 0x1a00252e is out of bounds.


1a002530 <Board_SetupMuxing>:
1a002530:	2300      	movs	r3, #0
1a002532:	2b1c      	cmp	r3, #28
1a002534:	d812      	bhi.n	1a00255c <Board_SetupMuxing+0x2c>
1a002536:	b410      	push	{r4}
1a002538:	4a09      	ldr	r2, [pc, #36]	; (1a002560 <Board_SetupMuxing+0x30>)
1a00253a:	eb02 0183 	add.w	r1, r2, r3, lsl #2
1a00253e:	f812 4023 	ldrb.w	r4, [r2, r3, lsl #2]
1a002542:	784a      	ldrb	r2, [r1, #1]
1a002544:	8848      	ldrh	r0, [r1, #2]
1a002546:	eb02 1244 	add.w	r2, r2, r4, lsl #5
1a00254a:	4906      	ldr	r1, [pc, #24]	; (1a002564 <Board_SetupMuxing+0x34>)
1a00254c:	f841 0022 	str.w	r0, [r1, r2, lsl #2]
1a002550:	3301      	adds	r3, #1
1a002552:	2b1c      	cmp	r3, #28
1a002554:	d9f0      	bls.n	1a002538 <Board_SetupMuxing+0x8>
1a002556:	f85d 4b04 	ldr.w	r4, [sp], #4
1a00255a:	4770      	bx	lr
1a00255c:	4770      	bx	lr
1a00255e:	bf00      	nop
1a002560:	1a007b30 	.word	0x1a007b30
1a002564:	40086000 	.word	0x40086000

1a002568 <Board_SetupClocking>:
1a002568:	b510      	push	{r4, lr}
1a00256a:	4a17      	ldr	r2, [pc, #92]	; (1a0025c8 <Board_SetupClocking+0x60>)
1a00256c:	f8d2 3120 	ldr.w	r3, [r2, #288]	; 0x120
1a002570:	f423 4370 	bic.w	r3, r3, #61440	; 0xf000
1a002574:	f443 4310 	orr.w	r3, r3, #36864	; 0x9000
1a002578:	f8c2 3120 	str.w	r3, [r2, #288]	; 0x120
1a00257c:	f8d2 3124 	ldr.w	r3, [r2, #292]	; 0x124
1a002580:	f423 4370 	bic.w	r3, r3, #61440	; 0xf000
1a002584:	f443 4310 	orr.w	r3, r3, #36864	; 0x9000
1a002588:	f8c2 3124 	str.w	r3, [r2, #292]	; 0x124
1a00258c:	2201      	movs	r2, #1
1a00258e:	490f      	ldr	r1, [pc, #60]	; (1a0025cc <Board_SetupClocking+0x64>)
1a002590:	2006      	movs	r0, #6
1a002592:	f000 fb77 	bl	1a002c84 <Chip_SetupCoreClock>
1a002596:	2400      	movs	r4, #0
1a002598:	b14c      	cbz	r4, 1a0025ae <Board_SetupClocking+0x46>
1a00259a:	4b0b      	ldr	r3, [pc, #44]	; (1a0025c8 <Board_SetupClocking+0x60>)
1a00259c:	685a      	ldr	r2, [r3, #4]
1a00259e:	f022 020c 	bic.w	r2, r2, #12
1a0025a2:	605a      	str	r2, [r3, #4]
1a0025a4:	685a      	ldr	r2, [r3, #4]
1a0025a6:	f042 0203 	orr.w	r2, r2, #3
1a0025aa:	605a      	str	r2, [r3, #4]
1a0025ac:	bd10      	pop	{r4, pc}
1a0025ae:	4808      	ldr	r0, [pc, #32]	; (1a0025d0 <Board_SetupClocking+0x68>)
1a0025b0:	eb00 0184 	add.w	r1, r0, r4, lsl #2
1a0025b4:	2301      	movs	r3, #1
1a0025b6:	788a      	ldrb	r2, [r1, #2]
1a0025b8:	7849      	ldrb	r1, [r1, #1]
1a0025ba:	f810 0024 	ldrb.w	r0, [r0, r4, lsl #2]
1a0025be:	f000 fe39 	bl	1a003234 <Chip_Clock_SetBaseClock>
1a0025c2:	3401      	adds	r4, #1
1a0025c4:	e7e8      	b.n	1a002598 <Board_SetupClocking+0x30>
1a0025c6:	bf00      	nop
1a0025c8:	40043000 	.word	0x40043000
1a0025cc:	0c28cb00 	.word	0x0c28cb00
1a0025d0:	1a007b2c 	.word	0x1a007b2c

1a0025d4 <Board_SystemInit>:
1a0025d4:	b508      	push	{r3, lr}
1a0025d6:	f7ff ffab 	bl	1a002530 <Board_SetupMuxing>
1a0025da:	f7ff ffc5 	bl	1a002568 <Board_SetupClocking>
1a0025de:	bd08      	pop	{r3, pc}

1a0025e0 <SystemInit>:
1a0025e0:	b508      	push	{r3, lr}
1a0025e2:	4a04      	ldr	r2, [pc, #16]	; (1a0025f4 <SystemInit+0x14>)
1a0025e4:	4b04      	ldr	r3, [pc, #16]	; (1a0025f8 <SystemInit+0x18>)
1a0025e6:	601a      	str	r2, [r3, #0]
1a0025e8:	f000 fa3c 	bl	1a002a64 <fpuInit>
1a0025ec:	f7ff fff2 	bl	1a0025d4 <Board_SystemInit>
1a0025f0:	bd08      	pop	{r3, pc}
1a0025f2:	bf00      	nop
1a0025f4:	1a000000 	.word	0x1a000000
1a0025f8:	e000ed08 	.word	0xe000ed08

1a0025fc <_close_r>:
1a0025fc:	2309      	movs	r3, #9
1a0025fe:	6003      	str	r3, [r0, #0]
1a002600:	f04f 30ff 	mov.w	r0, #4294967295
1a002604:	4770      	bx	lr

1a002606 <_fstat_r>:
1a002606:	2358      	movs	r3, #88	; 0x58
1a002608:	6003      	str	r3, [r0, #0]
1a00260a:	f04f 30ff 	mov.w	r0, #4294967295
1a00260e:	4770      	bx	lr

1a002610 <_isatty_r>:
1a002610:	2902      	cmp	r1, #2
1a002612:	d904      	bls.n	1a00261e <_isatty_r+0xe>
1a002614:	2309      	movs	r3, #9
1a002616:	6003      	str	r3, [r0, #0]
1a002618:	f04f 30ff 	mov.w	r0, #4294967295
1a00261c:	4770      	bx	lr
1a00261e:	2001      	movs	r0, #1
1a002620:	4770      	bx	lr

1a002622 <_lseek_r>:
1a002622:	2358      	movs	r3, #88	; 0x58
1a002624:	6003      	str	r3, [r0, #0]
1a002626:	f04f 30ff 	mov.w	r0, #4294967295
1a00262a:	4770      	bx	lr

1a00262c <_read_r>:
1a00262c:	b5f8      	push	{r3, r4, r5, r6, r7, lr}
1a00262e:	2902      	cmp	r1, #2
1a002630:	d81c      	bhi.n	1a00266c <_read_r+0x40>
1a002632:	461d      	mov	r5, r3
1a002634:	4617      	mov	r7, r2
1a002636:	4606      	mov	r6, r0
1a002638:	2400      	movs	r4, #0
1a00263a:	42ac      	cmp	r4, r5
1a00263c:	d211      	bcs.n	1a002662 <_read_r+0x36>
1a00263e:	f000 f903 	bl	1a002848 <Board_UARTGetChar>
1a002642:	b2c0      	uxtb	r0, r0
1a002644:	28ff      	cmp	r0, #255	; 0xff
1a002646:	d0f8      	beq.n	1a00263a <_read_r+0xe>
1a002648:	280d      	cmp	r0, #13
1a00264a:	d004      	beq.n	1a002656 <_read_r+0x2a>
1a00264c:	280a      	cmp	r0, #10
1a00264e:	d002      	beq.n	1a002656 <_read_r+0x2a>
1a002650:	5538      	strb	r0, [r7, r4]
1a002652:	3401      	adds	r4, #1
1a002654:	e7f1      	b.n	1a00263a <_read_r+0xe>
1a002656:	5538      	strb	r0, [r7, r4]
1a002658:	3401      	adds	r4, #1
1a00265a:	f000 f8f5 	bl	1a002848 <Board_UARTGetChar>
1a00265e:	4620      	mov	r0, r4
1a002660:	e003      	b.n	1a00266a <_read_r+0x3e>
1a002662:	2313      	movs	r3, #19
1a002664:	6033      	str	r3, [r6, #0]
1a002666:	f04f 30ff 	mov.w	r0, #4294967295
1a00266a:	bdf8      	pop	{r3, r4, r5, r6, r7, pc}
1a00266c:	2313      	movs	r3, #19
1a00266e:	6003      	str	r3, [r0, #0]
1a002670:	f04f 30ff 	mov.w	r0, #4294967295
1a002674:	e7f9      	b.n	1a00266a <_read_r+0x3e>
1a002676:	Address 0x1a002676 is out of bounds.


1a002678 <_sbrk_r>:
1a002678:	4b05      	ldr	r3, [pc, #20]	; (1a002690 <_sbrk_r+0x18>)
1a00267a:	681b      	ldr	r3, [r3, #0]
1a00267c:	b123      	cbz	r3, 1a002688 <_sbrk_r+0x10>
1a00267e:	4b04      	ldr	r3, [pc, #16]	; (1a002690 <_sbrk_r+0x18>)
1a002680:	6818      	ldr	r0, [r3, #0]
1a002682:	4401      	add	r1, r0
1a002684:	6019      	str	r1, [r3, #0]
1a002686:	4770      	bx	lr
1a002688:	4b01      	ldr	r3, [pc, #4]	; (1a002690 <_sbrk_r+0x18>)
1a00268a:	4a02      	ldr	r2, [pc, #8]	; (1a002694 <_sbrk_r+0x1c>)
1a00268c:	601a      	str	r2, [r3, #0]
1a00268e:	e7f6      	b.n	1a00267e <_sbrk_r+0x6>
1a002690:	100002f8 	.word	0x100002f8
1a002694:	1000032c 	.word	0x1000032c

1a002698 <_write_r>:
1a002698:	2902      	cmp	r1, #2
1a00269a:	d80c      	bhi.n	1a0026b6 <_write_r+0x1e>
1a00269c:	b570      	push	{r4, r5, r6, lr}
1a00269e:	461d      	mov	r5, r3
1a0026a0:	4616      	mov	r6, r2
1a0026a2:	2400      	movs	r4, #0
1a0026a4:	42ac      	cmp	r4, r5
1a0026a6:	d204      	bcs.n	1a0026b2 <_write_r+0x1a>
1a0026a8:	5d30      	ldrb	r0, [r6, r4]
1a0026aa:	f000 f8c3 	bl	1a002834 <Board_UARTPutChar>
1a0026ae:	3401      	adds	r4, #1
1a0026b0:	e7f8      	b.n	1a0026a4 <_write_r+0xc>
1a0026b2:	4628      	mov	r0, r5
1a0026b4:	bd70      	pop	{r4, r5, r6, pc}
1a0026b6:	2313      	movs	r3, #19
1a0026b8:	6003      	str	r3, [r0, #0]
1a0026ba:	f04f 30ff 	mov.w	r0, #4294967295
1a0026be:	4770      	bx	lr

1a0026c0 <Board_LED_Init>:
1a0026c0:	2200      	movs	r2, #0
1a0026c2:	2a05      	cmp	r2, #5
1a0026c4:	d819      	bhi.n	1a0026fa <Board_LED_Init+0x3a>
1a0026c6:	b470      	push	{r4, r5, r6}
1a0026c8:	490c      	ldr	r1, [pc, #48]	; (1a0026fc <Board_LED_Init+0x3c>)
1a0026ca:	f811 5012 	ldrb.w	r5, [r1, r2, lsl #1]
1a0026ce:	eb01 0142 	add.w	r1, r1, r2, lsl #1
1a0026d2:	784c      	ldrb	r4, [r1, #1]
1a0026d4:	4b0a      	ldr	r3, [pc, #40]	; (1a002700 <Board_LED_Init+0x40>)
1a0026d6:	f505 6600 	add.w	r6, r5, #2048	; 0x800
1a0026da:	f853 1026 	ldr.w	r1, [r3, r6, lsl #2]
1a0026de:	2001      	movs	r0, #1
1a0026e0:	40a0      	lsls	r0, r4
1a0026e2:	4301      	orrs	r1, r0
1a0026e4:	f843 1026 	str.w	r1, [r3, r6, lsl #2]
1a0026e8:	eb03 1345 	add.w	r3, r3, r5, lsl #5
1a0026ec:	2100      	movs	r1, #0
1a0026ee:	5519      	strb	r1, [r3, r4]
1a0026f0:	3201      	adds	r2, #1
1a0026f2:	2a05      	cmp	r2, #5
1a0026f4:	d9e8      	bls.n	1a0026c8 <Board_LED_Init+0x8>
1a0026f6:	bc70      	pop	{r4, r5, r6}
1a0026f8:	4770      	bx	lr
1a0026fa:	4770      	bx	lr
1a0026fc:	1a007bb0 	.word	0x1a007bb0
1a002700:	400f4000 	.word	0x400f4000

1a002704 <Board_TEC_Init>:
1a002704:	2300      	movs	r3, #0
1a002706:	2b03      	cmp	r3, #3
1a002708:	d816      	bhi.n	1a002738 <Board_TEC_Init+0x34>
1a00270a:	b430      	push	{r4, r5}
1a00270c:	490b      	ldr	r1, [pc, #44]	; (1a00273c <Board_TEC_Init+0x38>)
1a00270e:	f811 2013 	ldrb.w	r2, [r1, r3, lsl #1]
1a002712:	eb01 0143 	add.w	r1, r1, r3, lsl #1
1a002716:	784d      	ldrb	r5, [r1, #1]
1a002718:	4c09      	ldr	r4, [pc, #36]	; (1a002740 <Board_TEC_Init+0x3c>)
1a00271a:	f502 6200 	add.w	r2, r2, #2048	; 0x800
1a00271e:	f854 1022 	ldr.w	r1, [r4, r2, lsl #2]
1a002722:	2001      	movs	r0, #1
1a002724:	40a8      	lsls	r0, r5
1a002726:	ea21 0100 	bic.w	r1, r1, r0
1a00272a:	f844 1022 	str.w	r1, [r4, r2, lsl #2]
1a00272e:	3301      	adds	r3, #1
1a002730:	2b03      	cmp	r3, #3
1a002732:	d9eb      	bls.n	1a00270c <Board_TEC_Init+0x8>
1a002734:	bc30      	pop	{r4, r5}
1a002736:	4770      	bx	lr
1a002738:	4770      	bx	lr
1a00273a:	bf00      	nop
1a00273c:	1a007ba8 	.word	0x1a007ba8
1a002740:	400f4000 	.word	0x400f4000

1a002744 <Board_GPIO_Init>:
1a002744:	2300      	movs	r3, #0
1a002746:	2b08      	cmp	r3, #8
1a002748:	d816      	bhi.n	1a002778 <Board_GPIO_Init+0x34>
1a00274a:	b430      	push	{r4, r5}
1a00274c:	490b      	ldr	r1, [pc, #44]	; (1a00277c <Board_GPIO_Init+0x38>)
1a00274e:	f811 2013 	ldrb.w	r2, [r1, r3, lsl #1]
1a002752:	eb01 0143 	add.w	r1, r1, r3, lsl #1
1a002756:	784d      	ldrb	r5, [r1, #1]
1a002758:	4c09      	ldr	r4, [pc, #36]	; (1a002780 <Board_GPIO_Init+0x3c>)
1a00275a:	f502 6200 	add.w	r2, r2, #2048	; 0x800
1a00275e:	f854 1022 	ldr.w	r1, [r4, r2, lsl #2]
1a002762:	2001      	movs	r0, #1
1a002764:	40a8      	lsls	r0, r5
1a002766:	ea21 0100 	bic.w	r1, r1, r0
1a00276a:	f844 1022 	str.w	r1, [r4, r2, lsl #2]
1a00276e:	3301      	adds	r3, #1
1a002770:	2b08      	cmp	r3, #8
1a002772:	d9eb      	bls.n	1a00274c <Board_GPIO_Init+0x8>
1a002774:	bc30      	pop	{r4, r5}
1a002776:	4770      	bx	lr
1a002778:	4770      	bx	lr
1a00277a:	bf00      	nop
1a00277c:	1a007bbc 	.word	0x1a007bbc
1a002780:	400f4000 	.word	0x400f4000

1a002784 <Board_SPI_Init>:
1a002784:	b510      	push	{r4, lr}
1a002786:	4c0b      	ldr	r4, [pc, #44]	; (1a0027b4 <Board_SPI_Init+0x30>)
1a002788:	4620      	mov	r0, r4
1a00278a:	f000 f8bf 	bl	1a00290c <Chip_SSP_Init>
1a00278e:	6863      	ldr	r3, [r4, #4]
1a002790:	f023 0304 	bic.w	r3, r3, #4
1a002794:	6063      	str	r3, [r4, #4]
1a002796:	6823      	ldr	r3, [r4, #0]
1a002798:	f023 03ff 	bic.w	r3, r3, #255	; 0xff
1a00279c:	f043 0307 	orr.w	r3, r3, #7
1a0027a0:	6023      	str	r3, [r4, #0]
1a0027a2:	4905      	ldr	r1, [pc, #20]	; (1a0027b8 <Board_SPI_Init+0x34>)
1a0027a4:	4620      	mov	r0, r4
1a0027a6:	f000 f892 	bl	1a0028ce <Chip_SSP_SetBitRate>
1a0027aa:	6863      	ldr	r3, [r4, #4]
1a0027ac:	f043 0302 	orr.w	r3, r3, #2
1a0027b0:	6063      	str	r3, [r4, #4]
1a0027b2:	bd10      	pop	{r4, pc}
1a0027b4:	400c5000 	.word	0x400c5000
1a0027b8:	000186a0 	.word	0x000186a0

1a0027bc <Board_I2C_Init>:
1a0027bc:	b508      	push	{r3, lr}
1a0027be:	2000      	movs	r0, #0
1a0027c0:	f000 f918 	bl	1a0029f4 <Chip_I2C_Init>
1a0027c4:	4b04      	ldr	r3, [pc, #16]	; (1a0027d8 <Board_I2C_Init+0x1c>)
1a0027c6:	f640 0208 	movw	r2, #2056	; 0x808
1a0027ca:	f8c3 2c84 	str.w	r2, [r3, #3204]	; 0xc84
1a0027ce:	4903      	ldr	r1, [pc, #12]	; (1a0027dc <Board_I2C_Init+0x20>)
1a0027d0:	2000      	movs	r0, #0
1a0027d2:	f000 f921 	bl	1a002a18 <Chip_I2C_SetClockRate>
1a0027d6:	bd08      	pop	{r3, pc}
1a0027d8:	40086000 	.word	0x40086000
1a0027dc:	000f4240 	.word	0x000f4240

1a0027e0 <Board_ADC_Init>:
1a0027e0:	b510      	push	{r4, lr}
1a0027e2:	b082      	sub	sp, #8
1a0027e4:	4c08      	ldr	r4, [pc, #32]	; (1a002808 <Board_ADC_Init+0x28>)
1a0027e6:	4669      	mov	r1, sp
1a0027e8:	4620      	mov	r0, r4
1a0027ea:	f000 f99b 	bl	1a002b24 <Chip_ADC_Init>
1a0027ee:	4a07      	ldr	r2, [pc, #28]	; (1a00280c <Board_ADC_Init+0x2c>)
1a0027f0:	4669      	mov	r1, sp
1a0027f2:	4620      	mov	r0, r4
1a0027f4:	f000 fa01 	bl	1a002bfa <Chip_ADC_SetSampleRate>
1a0027f8:	2200      	movs	r2, #0
1a0027fa:	4669      	mov	r1, sp
1a0027fc:	4620      	mov	r0, r4
1a0027fe:	f000 fa15 	bl	1a002c2c <Chip_ADC_SetResolution>
1a002802:	b002      	add	sp, #8
1a002804:	bd10      	pop	{r4, pc}
1a002806:	bf00      	nop
1a002808:	400e3000 	.word	0x400e3000
1a00280c:	00061a80 	.word	0x00061a80

1a002810 <Board_Debug_Init>:
1a002810:	b510      	push	{r4, lr}
1a002812:	4c07      	ldr	r4, [pc, #28]	; (1a002830 <Board_Debug_Init+0x20>)
1a002814:	4620      	mov	r0, r4
1a002816:	f000 fde1 	bl	1a0033dc <Chip_UART_Init>
1a00281a:	f44f 31e1 	mov.w	r1, #115200	; 0x1c200
1a00281e:	4620      	mov	r0, r4
1a002820:	f000 fe26 	bl	1a003470 <Chip_UART_SetBaudFDR>
1a002824:	2303      	movs	r3, #3
1a002826:	60e3      	str	r3, [r4, #12]
1a002828:	2301      	movs	r3, #1
1a00282a:	65e3      	str	r3, [r4, #92]	; 0x5c
1a00282c:	bd10      	pop	{r4, pc}
1a00282e:	bf00      	nop
1a002830:	400c1000 	.word	0x400c1000

1a002834 <Board_UARTPutChar>:
1a002834:	4b03      	ldr	r3, [pc, #12]	; (1a002844 <Board_UARTPutChar+0x10>)
1a002836:	695b      	ldr	r3, [r3, #20]
1a002838:	f013 0f20 	tst.w	r3, #32
1a00283c:	d0fa      	beq.n	1a002834 <Board_UARTPutChar>
1a00283e:	4b01      	ldr	r3, [pc, #4]	; (1a002844 <Board_UARTPutChar+0x10>)
1a002840:	6018      	str	r0, [r3, #0]
1a002842:	4770      	bx	lr
1a002844:	400c1000 	.word	0x400c1000

1a002848 <Board_UARTGetChar>:
1a002848:	4b05      	ldr	r3, [pc, #20]	; (1a002860 <Board_UARTGetChar+0x18>)
1a00284a:	695b      	ldr	r3, [r3, #20]
1a00284c:	f013 0f01 	tst.w	r3, #1
1a002850:	d003      	beq.n	1a00285a <Board_UARTGetChar+0x12>
1a002852:	4b03      	ldr	r3, [pc, #12]	; (1a002860 <Board_UARTGetChar+0x18>)
1a002854:	6818      	ldr	r0, [r3, #0]
1a002856:	b2c0      	uxtb	r0, r0
1a002858:	4770      	bx	lr
1a00285a:	f04f 30ff 	mov.w	r0, #4294967295
1a00285e:	4770      	bx	lr
1a002860:	400c1000 	.word	0x400c1000

1a002864 <Board_Init>:
1a002864:	b508      	push	{r3, lr}
1a002866:	f7ff ffd3 	bl	1a002810 <Board_Debug_Init>
1a00286a:	4808      	ldr	r0, [pc, #32]	; (1a00288c <Board_Init+0x28>)
1a00286c:	f000 f8f0 	bl	1a002a50 <Chip_GPIO_Init>
1a002870:	f7ff ff26 	bl	1a0026c0 <Board_LED_Init>
1a002874:	f7ff ff46 	bl	1a002704 <Board_TEC_Init>
1a002878:	f7ff ff84 	bl	1a002784 <Board_SPI_Init>
1a00287c:	f7ff ff62 	bl	1a002744 <Board_GPIO_Init>
1a002880:	f7ff ff9c 	bl	1a0027bc <Board_I2C_Init>
1a002884:	f7ff ffac 	bl	1a0027e0 <Board_ADC_Init>
1a002888:	bd08      	pop	{r3, pc}
1a00288a:	bf00      	nop
1a00288c:	400f4000 	.word	0x400f4000

1a002890 <Chip_SSP_GetClockIndex>:
1a002890:	4b03      	ldr	r3, [pc, #12]	; (1a0028a0 <Chip_SSP_GetClockIndex+0x10>)
1a002892:	4298      	cmp	r0, r3
1a002894:	d001      	beq.n	1a00289a <Chip_SSP_GetClockIndex+0xa>
1a002896:	2083      	movs	r0, #131	; 0x83
1a002898:	4770      	bx	lr
1a00289a:	20a5      	movs	r0, #165	; 0xa5
1a00289c:	4770      	bx	lr
1a00289e:	bf00      	nop
1a0028a0:	400c5000 	.word	0x400c5000

1a0028a4 <Chip_SSP_GetPeriphClockIndex>:
1a0028a4:	4b04      	ldr	r3, [pc, #16]	; (1a0028b8 <Chip_SSP_GetPeriphClockIndex+0x14>)
1a0028a6:	4298      	cmp	r0, r3
1a0028a8:	d002      	beq.n	1a0028b0 <Chip_SSP_GetPeriphClockIndex+0xc>
1a0028aa:	f240 2002 	movw	r0, #514	; 0x202
1a0028ae:	4770      	bx	lr
1a0028b0:	f44f 70f1 	mov.w	r0, #482	; 0x1e2
1a0028b4:	4770      	bx	lr
1a0028b6:	bf00      	nop
1a0028b8:	400c5000 	.word	0x400c5000

1a0028bc <Chip_SSP_SetClockRate>:
1a0028bc:	6803      	ldr	r3, [r0, #0]
1a0028be:	f423 437f 	bic.w	r3, r3, #65280	; 0xff00
1a0028c2:	0209      	lsls	r1, r1, #8
1a0028c4:	b289      	uxth	r1, r1
1a0028c6:	4319      	orrs	r1, r3
1a0028c8:	6001      	str	r1, [r0, #0]
1a0028ca:	6102      	str	r2, [r0, #16]
1a0028cc:	4770      	bx	lr

1a0028ce <Chip_SSP_SetBitRate>:
1a0028ce:	b570      	push	{r4, r5, r6, lr}
1a0028d0:	4606      	mov	r6, r0
1a0028d2:	460d      	mov	r5, r1
1a0028d4:	f7ff ffe6 	bl	1a0028a4 <Chip_SSP_GetPeriphClockIndex>
1a0028d8:	f000 fd44 	bl	1a003364 <Chip_Clock_GetRate>
1a0028dc:	2202      	movs	r2, #2
1a0028de:	f04f 33ff 	mov.w	r3, #4294967295
1a0028e2:	2100      	movs	r1, #0
1a0028e4:	e000      	b.n	1a0028e8 <Chip_SSP_SetBitRate+0x1a>
1a0028e6:	4621      	mov	r1, r4
1a0028e8:	42ab      	cmp	r3, r5
1a0028ea:	d90b      	bls.n	1a002904 <Chip_SSP_SetBitRate+0x36>
1a0028ec:	1c4c      	adds	r4, r1, #1
1a0028ee:	fb02 f304 	mul.w	r3, r2, r4
1a0028f2:	fbb0 f3f3 	udiv	r3, r0, r3
1a0028f6:	429d      	cmp	r5, r3
1a0028f8:	d2f6      	bcs.n	1a0028e8 <Chip_SSP_SetBitRate+0x1a>
1a0028fa:	2cff      	cmp	r4, #255	; 0xff
1a0028fc:	d9f3      	bls.n	1a0028e6 <Chip_SSP_SetBitRate+0x18>
1a0028fe:	3202      	adds	r2, #2
1a002900:	2100      	movs	r1, #0
1a002902:	e7f1      	b.n	1a0028e8 <Chip_SSP_SetBitRate+0x1a>
1a002904:	4630      	mov	r0, r6
1a002906:	f7ff ffd9 	bl	1a0028bc <Chip_SSP_SetClockRate>
1a00290a:	bd70      	pop	{r4, r5, r6, pc}

1a00290c <Chip_SSP_Init>:
1a00290c:	b510      	push	{r4, lr}
1a00290e:	4604      	mov	r4, r0
1a002910:	f7ff ffbe 	bl	1a002890 <Chip_SSP_GetClockIndex>
1a002914:	f000 fcf2 	bl	1a0032fc <Chip_Clock_Enable>
1a002918:	4620      	mov	r0, r4
1a00291a:	f7ff ffc3 	bl	1a0028a4 <Chip_SSP_GetPeriphClockIndex>
1a00291e:	f000 fced 	bl	1a0032fc <Chip_Clock_Enable>
1a002922:	6863      	ldr	r3, [r4, #4]
1a002924:	f023 0304 	bic.w	r3, r3, #4
1a002928:	6063      	str	r3, [r4, #4]
1a00292a:	6823      	ldr	r3, [r4, #0]
1a00292c:	f023 03ff 	bic.w	r3, r3, #255	; 0xff
1a002930:	f043 0307 	orr.w	r3, r3, #7
1a002934:	6023      	str	r3, [r4, #0]
1a002936:	4902      	ldr	r1, [pc, #8]	; (1a002940 <Chip_SSP_Init+0x34>)
1a002938:	4620      	mov	r0, r4
1a00293a:	f7ff ffc8 	bl	1a0028ce <Chip_SSP_SetBitRate>
1a00293e:	bd10      	pop	{r4, pc}
1a002940:	000186a0 	.word	0x000186a0

1a002944 <Chip_SCTPWM_SetOutPin>:
1a002944:	b430      	push	{r4, r5}
1a002946:	f441 5580 	orr.w	r5, r1, #4096	; 0x1000
1a00294a:	f101 0360 	add.w	r3, r1, #96	; 0x60
1a00294e:	eb00 04c3 	add.w	r4, r0, r3, lsl #3
1a002952:	6065      	str	r5, [r4, #4]
1a002954:	2401      	movs	r4, #1
1a002956:	f840 4033 	str.w	r4, [r0, r3, lsl #3]
1a00295a:	f102 03a0 	add.w	r3, r2, #160	; 0xa0
1a00295e:	f840 4033 	str.w	r4, [r0, r3, lsl #3]
1a002962:	fa04 f101 	lsl.w	r1, r4, r1
1a002966:	eb00 03c3 	add.w	r3, r0, r3, lsl #3
1a00296a:	6059      	str	r1, [r3, #4]
1a00296c:	6d81      	ldr	r1, [r0, #88]	; 0x58
1a00296e:	40a2      	lsls	r2, r4
1a002970:	2303      	movs	r3, #3
1a002972:	4093      	lsls	r3, r2
1a002974:	43db      	mvns	r3, r3
1a002976:	4019      	ands	r1, r3
1a002978:	4094      	lsls	r4, r2
1a00297a:	430c      	orrs	r4, r1
1a00297c:	6584      	str	r4, [r0, #88]	; 0x58
1a00297e:	6d42      	ldr	r2, [r0, #84]	; 0x54
1a002980:	4013      	ands	r3, r2
1a002982:	6543      	str	r3, [r0, #84]	; 0x54
1a002984:	bc30      	pop	{r4, r5}
1a002986:	4770      	bx	lr

1a002988 <Chip_SCTPWM_SetRate>:
1a002988:	b538      	push	{r3, r4, r5, lr}
1a00298a:	4604      	mov	r4, r0
1a00298c:	460d      	mov	r5, r1
1a00298e:	206d      	movs	r0, #109	; 0x6d
1a002990:	f000 fce8 	bl	1a003364 <Chip_Clock_GetRate>
1a002994:	fbb0 f0f5 	udiv	r0, r0, r5
1a002998:	6863      	ldr	r3, [r4, #4]
1a00299a:	f043 1304 	orr.w	r3, r3, #262148	; 0x40004
1a00299e:	6063      	str	r3, [r4, #4]
1a0029a0:	6863      	ldr	r3, [r4, #4]
1a0029a2:	f043 1308 	orr.w	r3, r3, #524296	; 0x80008
1a0029a6:	6063      	str	r3, [r4, #4]
1a0029a8:	2300      	movs	r3, #0
1a0029aa:	f8a4 304c 	strh.w	r3, [r4, #76]	; 0x4c
1a0029ae:	f8a4 304e 	strh.w	r3, [r4, #78]	; 0x4e
1a0029b2:	f8c4 3100 	str.w	r3, [r4, #256]	; 0x100
1a0029b6:	f8c4 0200 	str.w	r0, [r4, #512]	; 0x200
1a0029ba:	f44f 5380 	mov.w	r3, #4096	; 0x1000
1a0029be:	f8c4 3304 	str.w	r3, [r4, #772]	; 0x304
1a0029c2:	2301      	movs	r3, #1
1a0029c4:	f8c4 3300 	str.w	r3, [r4, #768]	; 0x300
1a0029c8:	8123      	strh	r3, [r4, #8]
1a0029ca:	f503 3300 	add.w	r3, r3, #131072	; 0x20000
1a0029ce:	6023      	str	r3, [r4, #0]
1a0029d0:	bd38      	pop	{r3, r4, r5, pc}
1a0029d2:	Address 0x1a0029d2 is out of bounds.


1a0029d4 <Chip_I2C_EventHandler>:
1a0029d4:	2901      	cmp	r1, #1
1a0029d6:	d109      	bne.n	1a0029ec <Chip_I2C_EventHandler+0x18>
1a0029d8:	ebc0 00c0 	rsb	r0, r0, r0, lsl #3
1a0029dc:	0082      	lsls	r2, r0, #2
1a0029de:	4b04      	ldr	r3, [pc, #16]	; (1a0029f0 <Chip_I2C_EventHandler+0x1c>)
1a0029e0:	4413      	add	r3, r2
1a0029e2:	691a      	ldr	r2, [r3, #16]
1a0029e4:	7d13      	ldrb	r3, [r2, #20]
1a0029e6:	b2db      	uxtb	r3, r3
1a0029e8:	2b04      	cmp	r3, #4
1a0029ea:	d0fb      	beq.n	1a0029e4 <Chip_I2C_EventHandler+0x10>
1a0029ec:	4770      	bx	lr
1a0029ee:	bf00      	nop
1a0029f0:	100000b0 	.word	0x100000b0

1a0029f4 <Chip_I2C_Init>:
1a0029f4:	b570      	push	{r4, r5, r6, lr}
1a0029f6:	4605      	mov	r5, r0
1a0029f8:	4e06      	ldr	r6, [pc, #24]	; (1a002a14 <Chip_I2C_Init+0x20>)
1a0029fa:	00c4      	lsls	r4, r0, #3
1a0029fc:	1a22      	subs	r2, r4, r0
1a0029fe:	0093      	lsls	r3, r2, #2
1a002a00:	4433      	add	r3, r6
1a002a02:	8898      	ldrh	r0, [r3, #4]
1a002a04:	f000 fc7a 	bl	1a0032fc <Chip_Clock_Enable>
1a002a08:	1b64      	subs	r4, r4, r5
1a002a0a:	00a3      	lsls	r3, r4, #2
1a002a0c:	58f3      	ldr	r3, [r6, r3]
1a002a0e:	226c      	movs	r2, #108	; 0x6c
1a002a10:	619a      	str	r2, [r3, #24]
1a002a12:	bd70      	pop	{r4, r5, r6, pc}
1a002a14:	100000b0 	.word	0x100000b0

1a002a18 <Chip_I2C_SetClockRate>:
1a002a18:	e92d 41f0 	stmdb	sp!, {r4, r5, r6, r7, r8, lr}
1a002a1c:	460c      	mov	r4, r1
1a002a1e:	4e0b      	ldr	r6, [pc, #44]	; (1a002a4c <Chip_I2C_SetClockRate+0x34>)
1a002a20:	00c5      	lsls	r5, r0, #3
1a002a22:	1a2b      	subs	r3, r5, r0
1a002a24:	ea4f 0883 	mov.w	r8, r3, lsl #2
1a002a28:	eb06 0308 	add.w	r3, r6, r8
1a002a2c:	8898      	ldrh	r0, [r3, #4]
1a002a2e:	f000 fc99 	bl	1a003364 <Chip_Clock_GetRate>
1a002a32:	fbb0 f0f4 	udiv	r0, r0, r4
1a002a36:	f856 3008 	ldr.w	r3, [r6, r8]
1a002a3a:	0842      	lsrs	r2, r0, #1
1a002a3c:	611a      	str	r2, [r3, #16]
1a002a3e:	f856 3008 	ldr.w	r3, [r6, r8]
1a002a42:	691a      	ldr	r2, [r3, #16]
1a002a44:	1a80      	subs	r0, r0, r2
1a002a46:	6158      	str	r0, [r3, #20]
1a002a48:	e8bd 81f0 	ldmia.w	sp!, {r4, r5, r6, r7, r8, pc}
1a002a4c:	100000b0 	.word	0x100000b0

1a002a50 <Chip_GPIO_Init>:
1a002a50:	4770      	bx	lr

1a002a52 <Chip_SCT_Init>:
1a002a52:	b508      	push	{r3, lr}
1a002a54:	2301      	movs	r3, #1
1a002a56:	461a      	mov	r2, r3
1a002a58:	4619      	mov	r1, r3
1a002a5a:	206d      	movs	r0, #109	; 0x6d
1a002a5c:	f000 fc30 	bl	1a0032c0 <Chip_Clock_EnableOpts>
1a002a60:	bd08      	pop	{r3, pc}
1a002a62:	Address 0x1a002a62 is out of bounds.


1a002a64 <fpuInit>:
1a002a64:	b084      	sub	sp, #16
1a002a66:	4b0f      	ldr	r3, [pc, #60]	; (1a002aa4 <fpuInit+0x40>)
1a002a68:	681b      	ldr	r3, [r3, #0]
1a002a6a:	9302      	str	r3, [sp, #8]
1a002a6c:	4b0e      	ldr	r3, [pc, #56]	; (1a002aa8 <fpuInit+0x44>)
1a002a6e:	681b      	ldr	r3, [r3, #0]
1a002a70:	9301      	str	r3, [sp, #4]
1a002a72:	9a02      	ldr	r2, [sp, #8]
1a002a74:	4b0d      	ldr	r3, [pc, #52]	; (1a002aac <fpuInit+0x48>)
1a002a76:	429a      	cmp	r2, r3
1a002a78:	d00c      	beq.n	1a002a94 <fpuInit+0x30>
1a002a7a:	2300      	movs	r3, #0
1a002a7c:	b143      	cbz	r3, 1a002a90 <fpuInit+0x2c>
1a002a7e:	4a0c      	ldr	r2, [pc, #48]	; (1a002ab0 <fpuInit+0x4c>)
1a002a80:	6813      	ldr	r3, [r2, #0]
1a002a82:	9303      	str	r3, [sp, #12]
1a002a84:	9b03      	ldr	r3, [sp, #12]
1a002a86:	f443 0370 	orr.w	r3, r3, #15728640	; 0xf00000
1a002a8a:	9303      	str	r3, [sp, #12]
1a002a8c:	9b03      	ldr	r3, [sp, #12]
1a002a8e:	6013      	str	r3, [r2, #0]
1a002a90:	b004      	add	sp, #16
1a002a92:	4770      	bx	lr
1a002a94:	9a01      	ldr	r2, [sp, #4]
1a002a96:	4b07      	ldr	r3, [pc, #28]	; (1a002ab4 <fpuInit+0x50>)
1a002a98:	429a      	cmp	r2, r3
1a002a9a:	d001      	beq.n	1a002aa0 <fpuInit+0x3c>
1a002a9c:	2300      	movs	r3, #0
1a002a9e:	e7ed      	b.n	1a002a7c <fpuInit+0x18>
1a002aa0:	2301      	movs	r3, #1
1a002aa2:	e7eb      	b.n	1a002a7c <fpuInit+0x18>
1a002aa4:	e000ef40 	.word	0xe000ef40
1a002aa8:	e000ef44 	.word	0xe000ef44
1a002aac:	10110021 	.word	0x10110021
1a002ab0:	e000ed88 	.word	0xe000ed88
1a002ab4:	11000011 	.word	0x11000011

1a002ab8 <Chip_ADC_GetClockIndex>:
1a002ab8:	4b03      	ldr	r3, [pc, #12]	; (1a002ac8 <Chip_ADC_GetClockIndex+0x10>)
1a002aba:	4298      	cmp	r0, r3
1a002abc:	d001      	beq.n	1a002ac2 <Chip_ADC_GetClockIndex+0xa>
1a002abe:	2003      	movs	r0, #3
1a002ac0:	4770      	bx	lr
1a002ac2:	2004      	movs	r0, #4
1a002ac4:	4770      	bx	lr
1a002ac6:	bf00      	nop
1a002ac8:	400e4000 	.word	0x400e4000

1a002acc <getClkDiv>:
1a002acc:	b570      	push	{r4, r5, r6, lr}
1a002ace:	460d      	mov	r5, r1
1a002ad0:	4614      	mov	r4, r2
1a002ad2:	461e      	mov	r6, r3
1a002ad4:	f7ff fff0 	bl	1a002ab8 <Chip_ADC_GetClockIndex>
1a002ad8:	f000 fc44 	bl	1a003364 <Chip_Clock_GetRate>
1a002adc:	b155      	cbz	r5, 1a002af4 <getClkDiv+0x28>
1a002ade:	fb04 f406 	mul.w	r4, r4, r6
1a002ae2:	eb04 0040 	add.w	r0, r4, r0, lsl #1
1a002ae6:	0064      	lsls	r4, r4, #1
1a002ae8:	fbb0 f0f4 	udiv	r0, r0, r4
1a002aec:	b2c0      	uxtb	r0, r0
1a002aee:	3801      	subs	r0, #1
1a002af0:	b2c0      	uxtb	r0, r0
1a002af2:	bd70      	pop	{r4, r5, r6, pc}
1a002af4:	eb04 0384 	add.w	r3, r4, r4, lsl #2
1a002af8:	eb04 0443 	add.w	r4, r4, r3, lsl #1
1a002afc:	e7f1      	b.n	1a002ae2 <getClkDiv+0x16>

1a002afe <setStartMode>:
1a002afe:	6803      	ldr	r3, [r0, #0]
1a002b00:	f023 63e0 	bic.w	r3, r3, #117440512	; 0x7000000
1a002b04:	ea43 6101 	orr.w	r1, r3, r1, lsl #24
1a002b08:	6001      	str	r1, [r0, #0]
1a002b0a:	4770      	bx	lr

1a002b0c <readAdcVal>:
1a002b0c:	3104      	adds	r1, #4
1a002b0e:	f850 3021 	ldr.w	r3, [r0, r1, lsl #2]
1a002b12:	2b00      	cmp	r3, #0
1a002b14:	da04      	bge.n	1a002b20 <readAdcVal+0x14>
1a002b16:	f3c3 1389 	ubfx	r3, r3, #6, #10
1a002b1a:	8013      	strh	r3, [r2, #0]
1a002b1c:	2001      	movs	r0, #1
1a002b1e:	4770      	bx	lr
1a002b20:	2000      	movs	r0, #0
1a002b22:	4770      	bx	lr

1a002b24 <Chip_ADC_Init>:
1a002b24:	b538      	push	{r3, r4, r5, lr}
1a002b26:	4605      	mov	r5, r0
1a002b28:	460c      	mov	r4, r1
1a002b2a:	f7ff ffc5 	bl	1a002ab8 <Chip_ADC_GetClockIndex>
1a002b2e:	2301      	movs	r3, #1
1a002b30:	461a      	mov	r2, r3
1a002b32:	4619      	mov	r1, r3
1a002b34:	f000 fbc4 	bl	1a0032c0 <Chip_Clock_EnableOpts>
1a002b38:	2100      	movs	r1, #0
1a002b3a:	60e9      	str	r1, [r5, #12]
1a002b3c:	4a08      	ldr	r2, [pc, #32]	; (1a002b60 <Chip_ADC_Init+0x3c>)
1a002b3e:	6022      	str	r2, [r4, #0]
1a002b40:	7121      	strb	r1, [r4, #4]
1a002b42:	7161      	strb	r1, [r4, #5]
1a002b44:	230b      	movs	r3, #11
1a002b46:	4628      	mov	r0, r5
1a002b48:	f7ff ffc0 	bl	1a002acc <getClkDiv>
1a002b4c:	0200      	lsls	r0, r0, #8
1a002b4e:	f440 1300 	orr.w	r3, r0, #2097152	; 0x200000
1a002b52:	7920      	ldrb	r0, [r4, #4]
1a002b54:	0440      	lsls	r0, r0, #17
1a002b56:	f400 2060 	and.w	r0, r0, #917504	; 0xe0000
1a002b5a:	4318      	orrs	r0, r3
1a002b5c:	6028      	str	r0, [r5, #0]
1a002b5e:	bd38      	pop	{r3, r4, r5, pc}
1a002b60:	00061a80 	.word	0x00061a80

1a002b64 <Chip_ADC_DeInit>:
1a002b64:	b508      	push	{r3, lr}
1a002b66:	f44f 7280 	mov.w	r2, #256	; 0x100
1a002b6a:	60c2      	str	r2, [r0, #12]
1a002b6c:	2200      	movs	r2, #0
1a002b6e:	6002      	str	r2, [r0, #0]
1a002b70:	f7ff ffa2 	bl	1a002ab8 <Chip_ADC_GetClockIndex>
1a002b74:	f000 fbdc 	bl	1a003330 <Chip_Clock_Disable>
1a002b78:	bd08      	pop	{r3, pc}

1a002b7a <Chip_ADC_ReadValue>:
1a002b7a:	b508      	push	{r3, lr}
1a002b7c:	f7ff ffc6 	bl	1a002b0c <readAdcVal>
1a002b80:	bd08      	pop	{r3, pc}

1a002b82 <Chip_ADC_ReadStatus>:
1a002b82:	2a01      	cmp	r2, #1
1a002b84:	d00a      	beq.n	1a002b9c <Chip_ADC_ReadStatus+0x1a>
1a002b86:	b11a      	cbz	r2, 1a002b90 <Chip_ADC_ReadStatus+0xe>
1a002b88:	2a02      	cmp	r2, #2
1a002b8a:	d00f      	beq.n	1a002bac <Chip_ADC_ReadStatus+0x2a>
1a002b8c:	2000      	movs	r0, #0
1a002b8e:	4770      	bx	lr
1a002b90:	6b00      	ldr	r0, [r0, #48]	; 0x30
1a002b92:	40c8      	lsrs	r0, r1
1a002b94:	f000 0001 	and.w	r0, r0, #1
1a002b98:	b2c0      	uxtb	r0, r0
1a002b9a:	4770      	bx	lr
1a002b9c:	3108      	adds	r1, #8
1a002b9e:	b2c9      	uxtb	r1, r1
1a002ba0:	6b00      	ldr	r0, [r0, #48]	; 0x30
1a002ba2:	40c8      	lsrs	r0, r1
1a002ba4:	f000 0001 	and.w	r0, r0, #1
1a002ba8:	b2c0      	uxtb	r0, r0
1a002baa:	4770      	bx	lr
1a002bac:	6b03      	ldr	r3, [r0, #48]	; 0x30
1a002bae:	0c1b      	lsrs	r3, r3, #16
1a002bb0:	bf14      	ite	ne
1a002bb2:	2001      	movne	r0, #1
1a002bb4:	2000      	moveq	r0, #0
1a002bb6:	4770      	bx	lr

1a002bb8 <Chip_ADC_Int_SetChannelCmd>:
1a002bb8:	2a01      	cmp	r2, #1
1a002bba:	d006      	beq.n	1a002bca <Chip_ADC_Int_SetChannelCmd+0x12>
1a002bbc:	68c3      	ldr	r3, [r0, #12]
1a002bbe:	2201      	movs	r2, #1
1a002bc0:	408a      	lsls	r2, r1
1a002bc2:	ea23 0302 	bic.w	r3, r3, r2
1a002bc6:	60c3      	str	r3, [r0, #12]
1a002bc8:	4770      	bx	lr
1a002bca:	b410      	push	{r4}
1a002bcc:	68c4      	ldr	r4, [r0, #12]
1a002bce:	408a      	lsls	r2, r1
1a002bd0:	4314      	orrs	r4, r2
1a002bd2:	60c4      	str	r4, [r0, #12]
1a002bd4:	f85d 4b04 	ldr.w	r4, [sp], #4
1a002bd8:	4770      	bx	lr

1a002bda <Chip_ADC_SetStartMode>:
1a002bda:	b508      	push	{r3, lr}
1a002bdc:	2901      	cmp	r1, #1
1a002bde:	d904      	bls.n	1a002bea <Chip_ADC_SetStartMode+0x10>
1a002be0:	b132      	cbz	r2, 1a002bf0 <Chip_ADC_SetStartMode+0x16>
1a002be2:	6803      	ldr	r3, [r0, #0]
1a002be4:	f043 6300 	orr.w	r3, r3, #134217728	; 0x8000000
1a002be8:	6003      	str	r3, [r0, #0]
1a002bea:	f7ff ff88 	bl	1a002afe <setStartMode>
1a002bee:	bd08      	pop	{r3, pc}
1a002bf0:	6803      	ldr	r3, [r0, #0]
1a002bf2:	f023 6300 	bic.w	r3, r3, #134217728	; 0x8000000
1a002bf6:	6003      	str	r3, [r0, #0]
1a002bf8:	e7f7      	b.n	1a002bea <Chip_ADC_SetStartMode+0x10>

1a002bfa <Chip_ADC_SetSampleRate>:
1a002bfa:	b570      	push	{r4, r5, r6, lr}
1a002bfc:	4605      	mov	r5, r0
1a002bfe:	460e      	mov	r6, r1
1a002c00:	6804      	ldr	r4, [r0, #0]
1a002c02:	f424 246f 	bic.w	r4, r4, #978944	; 0xef000
1a002c06:	f424 6470 	bic.w	r4, r4, #3840	; 0xf00
1a002c0a:	600a      	str	r2, [r1, #0]
1a002c0c:	790b      	ldrb	r3, [r1, #4]
1a002c0e:	f1c3 030b 	rsb	r3, r3, #11
1a002c12:	b2db      	uxtb	r3, r3
1a002c14:	7949      	ldrb	r1, [r1, #5]
1a002c16:	f7ff ff59 	bl	1a002acc <getClkDiv>
1a002c1a:	ea44 2000 	orr.w	r0, r4, r0, lsl #8
1a002c1e:	7933      	ldrb	r3, [r6, #4]
1a002c20:	045b      	lsls	r3, r3, #17
1a002c22:	f403 2360 	and.w	r3, r3, #917504	; 0xe0000
1a002c26:	4303      	orrs	r3, r0
1a002c28:	602b      	str	r3, [r5, #0]
1a002c2a:	bd70      	pop	{r4, r5, r6, pc}

1a002c2c <Chip_ADC_SetResolution>:
1a002c2c:	b508      	push	{r3, lr}
1a002c2e:	710a      	strb	r2, [r1, #4]
1a002c30:	680a      	ldr	r2, [r1, #0]
1a002c32:	f7ff ffe2 	bl	1a002bfa <Chip_ADC_SetSampleRate>
1a002c36:	bd08      	pop	{r3, pc}

1a002c38 <Chip_ADC_EnableChannel>:
1a002c38:	2a01      	cmp	r2, #1
1a002c3a:	d00a      	beq.n	1a002c52 <Chip_ADC_EnableChannel+0x1a>
1a002c3c:	6802      	ldr	r2, [r0, #0]
1a002c3e:	f022 62e0 	bic.w	r2, r2, #117440512	; 0x7000000
1a002c42:	6002      	str	r2, [r0, #0]
1a002c44:	6803      	ldr	r3, [r0, #0]
1a002c46:	2201      	movs	r2, #1
1a002c48:	408a      	lsls	r2, r1
1a002c4a:	ea23 0302 	bic.w	r3, r3, r2
1a002c4e:	6003      	str	r3, [r0, #0]
1a002c50:	4770      	bx	lr
1a002c52:	b410      	push	{r4}
1a002c54:	6804      	ldr	r4, [r0, #0]
1a002c56:	408a      	lsls	r2, r1
1a002c58:	4314      	orrs	r4, r2
1a002c5a:	6004      	str	r4, [r0, #0]
1a002c5c:	f85d 4b04 	ldr.w	r4, [sp], #4
1a002c60:	4770      	bx	lr

1a002c62 <Chip_ADC_SetBurstCmd>:
1a002c62:	b538      	push	{r3, r4, r5, lr}
1a002c64:	4604      	mov	r4, r0
1a002c66:	460d      	mov	r5, r1
1a002c68:	2100      	movs	r1, #0
1a002c6a:	f7ff ff48 	bl	1a002afe <setStartMode>
1a002c6e:	b925      	cbnz	r5, 1a002c7a <Chip_ADC_SetBurstCmd+0x18>
1a002c70:	6823      	ldr	r3, [r4, #0]
1a002c72:	f423 3380 	bic.w	r3, r3, #65536	; 0x10000
1a002c76:	6023      	str	r3, [r4, #0]
1a002c78:	bd38      	pop	{r3, r4, r5, pc}
1a002c7a:	6823      	ldr	r3, [r4, #0]
1a002c7c:	f443 3380 	orr.w	r3, r3, #65536	; 0x10000
1a002c80:	6023      	str	r3, [r4, #0]
1a002c82:	e7f9      	b.n	1a002c78 <Chip_ADC_SetBurstCmd+0x16>

1a002c84 <Chip_SetupCoreClock>:
1a002c84:	b570      	push	{r4, r5, r6, lr}
1a002c86:	b08a      	sub	sp, #40	; 0x28
1a002c88:	4605      	mov	r5, r0
1a002c8a:	460e      	mov	r6, r1
1a002c8c:	4614      	mov	r4, r2
1a002c8e:	f242 7310 	movw	r3, #10000	; 0x2710
1a002c92:	9309      	str	r3, [sp, #36]	; 0x24
1a002c94:	2806      	cmp	r0, #6
1a002c96:	d018      	beq.n	1a002cca <Chip_SetupCoreClock+0x46>
1a002c98:	2300      	movs	r3, #0
1a002c9a:	2201      	movs	r2, #1
1a002c9c:	4629      	mov	r1, r5
1a002c9e:	2004      	movs	r0, #4
1a002ca0:	f000 fac8 	bl	1a003234 <Chip_Clock_SetBaseClock>
1a002ca4:	4a4a      	ldr	r2, [pc, #296]	; (1a002dd0 <Chip_SetupCoreClock+0x14c>)
1a002ca6:	6c53      	ldr	r3, [r2, #68]	; 0x44
1a002ca8:	f043 0301 	orr.w	r3, r3, #1
1a002cac:	6453      	str	r3, [r2, #68]	; 0x44
1a002cae:	f88d 5008 	strb.w	r5, [sp, #8]
1a002cb2:	a901      	add	r1, sp, #4
1a002cb4:	4630      	mov	r0, r6
1a002cb6:	f000 fa35 	bl	1a003124 <Chip_Clock_CalcMainPLLValue>
1a002cba:	4b46      	ldr	r3, [pc, #280]	; (1a002dd4 <Chip_SetupCoreClock+0x150>)
1a002cbc:	429e      	cmp	r6, r3
1a002cbe:	d916      	bls.n	1a002cee <Chip_SetupCoreClock+0x6a>
1a002cc0:	9b01      	ldr	r3, [sp, #4]
1a002cc2:	f013 0f40 	tst.w	r3, #64	; 0x40
1a002cc6:	d003      	beq.n	1a002cd0 <Chip_SetupCoreClock+0x4c>
1a002cc8:	e7fe      	b.n	1a002cc8 <Chip_SetupCoreClock+0x44>
1a002cca:	f000 f98d 	bl	1a002fe8 <Chip_Clock_EnableCrystal>
1a002cce:	e7e3      	b.n	1a002c98 <Chip_SetupCoreClock+0x14>
1a002cd0:	f013 0f80 	tst.w	r3, #128	; 0x80
1a002cd4:	d005      	beq.n	1a002ce2 <Chip_SetupCoreClock+0x5e>
1a002cd6:	f023 0380 	bic.w	r3, r3, #128	; 0x80
1a002cda:	9301      	str	r3, [sp, #4]
1a002cdc:	2500      	movs	r5, #0
1a002cde:	2601      	movs	r6, #1
1a002ce0:	e007      	b.n	1a002cf2 <Chip_SetupCoreClock+0x6e>
1a002ce2:	9b04      	ldr	r3, [sp, #16]
1a002ce4:	3301      	adds	r3, #1
1a002ce6:	9304      	str	r3, [sp, #16]
1a002ce8:	2501      	movs	r5, #1
1a002cea:	2600      	movs	r6, #0
1a002cec:	e001      	b.n	1a002cf2 <Chip_SetupCoreClock+0x6e>
1a002cee:	2500      	movs	r5, #0
1a002cf0:	462e      	mov	r6, r5
1a002cf2:	f89d 2008 	ldrb.w	r2, [sp, #8]
1a002cf6:	9b01      	ldr	r3, [sp, #4]
1a002cf8:	ea43 6302 	orr.w	r3, r3, r2, lsl #24
1a002cfc:	9a05      	ldr	r2, [sp, #20]
1a002cfe:	ea43 4302 	orr.w	r3, r3, r2, lsl #16
1a002d02:	9a03      	ldr	r2, [sp, #12]
1a002d04:	ea43 3302 	orr.w	r3, r3, r2, lsl #12
1a002d08:	9a04      	ldr	r2, [sp, #16]
1a002d0a:	ea43 2302 	orr.w	r3, r3, r2, lsl #8
1a002d0e:	f443 6300 	orr.w	r3, r3, #2048	; 0x800
1a002d12:	4a2f      	ldr	r2, [pc, #188]	; (1a002dd0 <Chip_SetupCoreClock+0x14c>)
1a002d14:	6453      	str	r3, [r2, #68]	; 0x44
1a002d16:	4b2e      	ldr	r3, [pc, #184]	; (1a002dd0 <Chip_SetupCoreClock+0x14c>)
1a002d18:	6c1b      	ldr	r3, [r3, #64]	; 0x40
1a002d1a:	f013 0f01 	tst.w	r3, #1
1a002d1e:	d0fa      	beq.n	1a002d16 <Chip_SetupCoreClock+0x92>
1a002d20:	2300      	movs	r3, #0
1a002d22:	2201      	movs	r2, #1
1a002d24:	2109      	movs	r1, #9
1a002d26:	2004      	movs	r0, #4
1a002d28:	f000 fa84 	bl	1a003234 <Chip_Clock_SetBaseClock>
1a002d2c:	b306      	cbz	r6, 1a002d70 <Chip_SetupCoreClock+0xec>
1a002d2e:	f242 7310 	movw	r3, #10000	; 0x2710
1a002d32:	9309      	str	r3, [sp, #36]	; 0x24
1a002d34:	9b09      	ldr	r3, [sp, #36]	; 0x24
1a002d36:	1e5a      	subs	r2, r3, #1
1a002d38:	9209      	str	r2, [sp, #36]	; 0x24
1a002d3a:	2b00      	cmp	r3, #0
1a002d3c:	d1fa      	bne.n	1a002d34 <Chip_SetupCoreClock+0xb0>
1a002d3e:	9b01      	ldr	r3, [sp, #4]
1a002d40:	f043 0380 	orr.w	r3, r3, #128	; 0x80
1a002d44:	9301      	str	r3, [sp, #4]
1a002d46:	f89d 2008 	ldrb.w	r2, [sp, #8]
1a002d4a:	ea43 6302 	orr.w	r3, r3, r2, lsl #24
1a002d4e:	9a05      	ldr	r2, [sp, #20]
1a002d50:	ea43 4302 	orr.w	r3, r3, r2, lsl #16
1a002d54:	9a03      	ldr	r2, [sp, #12]
1a002d56:	ea43 3302 	orr.w	r3, r3, r2, lsl #12
1a002d5a:	9a04      	ldr	r2, [sp, #16]
1a002d5c:	ea43 2302 	orr.w	r3, r3, r2, lsl #8
1a002d60:	f443 6300 	orr.w	r3, r3, #2048	; 0x800
1a002d64:	4a1a      	ldr	r2, [pc, #104]	; (1a002dd0 <Chip_SetupCoreClock+0x14c>)
1a002d66:	6453      	str	r3, [r2, #68]	; 0x44
1a002d68:	2c00      	cmp	r4, #0
1a002d6a:	d12e      	bne.n	1a002dca <Chip_SetupCoreClock+0x146>
1a002d6c:	b00a      	add	sp, #40	; 0x28
1a002d6e:	bd70      	pop	{r4, r5, r6, pc}
1a002d70:	2d00      	cmp	r5, #0
1a002d72:	d0f9      	beq.n	1a002d68 <Chip_SetupCoreClock+0xe4>
1a002d74:	f242 7310 	movw	r3, #10000	; 0x2710
1a002d78:	9309      	str	r3, [sp, #36]	; 0x24
1a002d7a:	9b09      	ldr	r3, [sp, #36]	; 0x24
1a002d7c:	1e5a      	subs	r2, r3, #1
1a002d7e:	9209      	str	r2, [sp, #36]	; 0x24
1a002d80:	2b00      	cmp	r3, #0
1a002d82:	d1fa      	bne.n	1a002d7a <Chip_SetupCoreClock+0xf6>
1a002d84:	9b04      	ldr	r3, [sp, #16]
1a002d86:	1e5a      	subs	r2, r3, #1
1a002d88:	9204      	str	r2, [sp, #16]
1a002d8a:	f89d 1008 	ldrb.w	r1, [sp, #8]
1a002d8e:	9b01      	ldr	r3, [sp, #4]
1a002d90:	ea43 6301 	orr.w	r3, r3, r1, lsl #24
1a002d94:	9905      	ldr	r1, [sp, #20]
1a002d96:	ea43 4301 	orr.w	r3, r3, r1, lsl #16
1a002d9a:	9903      	ldr	r1, [sp, #12]
1a002d9c:	ea43 3301 	orr.w	r3, r3, r1, lsl #12
1a002da0:	ea43 2302 	orr.w	r3, r3, r2, lsl #8
1a002da4:	f443 6300 	orr.w	r3, r3, #2048	; 0x800
1a002da8:	4a09      	ldr	r2, [pc, #36]	; (1a002dd0 <Chip_SetupCoreClock+0x14c>)
1a002daa:	6453      	str	r3, [r2, #68]	; 0x44
1a002dac:	e7dc      	b.n	1a002d68 <Chip_SetupCoreClock+0xe4>
1a002dae:	480a      	ldr	r0, [pc, #40]	; (1a002dd8 <Chip_SetupCoreClock+0x154>)
1a002db0:	eb00 0184 	add.w	r1, r0, r4, lsl #2
1a002db4:	78cb      	ldrb	r3, [r1, #3]
1a002db6:	788a      	ldrb	r2, [r1, #2]
1a002db8:	7849      	ldrb	r1, [r1, #1]
1a002dba:	f810 0024 	ldrb.w	r0, [r0, r4, lsl #2]
1a002dbe:	f000 fa39 	bl	1a003234 <Chip_Clock_SetBaseClock>
1a002dc2:	3401      	adds	r4, #1
1a002dc4:	2c11      	cmp	r4, #17
1a002dc6:	d9f2      	bls.n	1a002dae <Chip_SetupCoreClock+0x12a>
1a002dc8:	e7d0      	b.n	1a002d6c <Chip_SetupCoreClock+0xe8>
1a002dca:	2400      	movs	r4, #0
1a002dcc:	e7fa      	b.n	1a002dc4 <Chip_SetupCoreClock+0x140>
1a002dce:	bf00      	nop
1a002dd0:	40050000 	.word	0x40050000
1a002dd4:	068e7780 	.word	0x068e7780
1a002dd8:	1a007bd4 	.word	0x1a007bd4

1a002ddc <SystemCoreClockUpdate>:
1a002ddc:	b508      	push	{r3, lr}
1a002dde:	2069      	movs	r0, #105	; 0x69
1a002de0:	f000 fac0 	bl	1a003364 <Chip_Clock_GetRate>
1a002de4:	4b01      	ldr	r3, [pc, #4]	; (1a002dec <SystemCoreClockUpdate+0x10>)
1a002de6:	6018      	str	r0, [r3, #0]
1a002de8:	bd08      	pop	{r3, pc}
1a002dea:	bf00      	nop
1a002dec:	1000031c 	.word	0x1000031c

1a002df0 <pll_calc_divs>:
1a002df0:	b4f0      	push	{r4, r5, r6, r7}
1a002df2:	680b      	ldr	r3, [r1, #0]
1a002df4:	f013 0f80 	tst.w	r3, #128	; 0x80
1a002df8:	d002      	beq.n	1a002e00 <pll_calc_divs+0x10>
1a002dfa:	f023 0340 	bic.w	r3, r3, #64	; 0x40
1a002dfe:	600b      	str	r3, [r1, #0]
1a002e00:	4607      	mov	r7, r0
1a002e02:	2501      	movs	r5, #1
1a002e04:	e03a      	b.n	1a002e7c <pll_calc_divs+0x8c>
1a002e06:	694b      	ldr	r3, [r1, #20]
1a002e08:	fb03 f302 	mul.w	r3, r3, r2
1a002e0c:	fbb3 f3f5 	udiv	r3, r3, r5
1a002e10:	e01c      	b.n	1a002e4c <pll_calc_divs+0x5c>
1a002e12:	461c      	mov	r4, r3
1a002e14:	ebb0 0c04 	subs.w	ip, r0, r4
1a002e18:	d427      	bmi.n	1a002e6a <pll_calc_divs+0x7a>
1a002e1a:	4567      	cmp	r7, ip
1a002e1c:	d906      	bls.n	1a002e2c <pll_calc_divs+0x3c>
1a002e1e:	608d      	str	r5, [r1, #8]
1a002e20:	1c77      	adds	r7, r6, #1
1a002e22:	60cf      	str	r7, [r1, #12]
1a002e24:	610a      	str	r2, [r1, #16]
1a002e26:	618c      	str	r4, [r1, #24]
1a002e28:	61cb      	str	r3, [r1, #28]
1a002e2a:	4667      	mov	r7, ip
1a002e2c:	3201      	adds	r2, #1
1a002e2e:	f5b2 7f80 	cmp.w	r2, #256	; 0x100
1a002e32:	dc1d      	bgt.n	1a002e70 <pll_calc_divs+0x80>
1a002e34:	680c      	ldr	r4, [r1, #0]
1a002e36:	f014 0f40 	tst.w	r4, #64	; 0x40
1a002e3a:	d0e4      	beq.n	1a002e06 <pll_calc_divs+0x16>
1a002e3c:	1c73      	adds	r3, r6, #1
1a002e3e:	fa02 fc03 	lsl.w	ip, r2, r3
1a002e42:	694b      	ldr	r3, [r1, #20]
1a002e44:	fb03 f30c 	mul.w	r3, r3, ip
1a002e48:	fbb3 f3f5 	udiv	r3, r3, r5
1a002e4c:	f8df c038 	ldr.w	ip, [pc, #56]	; 1a002e88 <pll_calc_divs+0x98>
1a002e50:	4563      	cmp	r3, ip
1a002e52:	d9eb      	bls.n	1a002e2c <pll_calc_divs+0x3c>
1a002e54:	f8df c034 	ldr.w	ip, [pc, #52]	; 1a002e8c <pll_calc_divs+0x9c>
1a002e58:	4563      	cmp	r3, ip
1a002e5a:	d809      	bhi.n	1a002e70 <pll_calc_divs+0x80>
1a002e5c:	f014 0f80 	tst.w	r4, #128	; 0x80
1a002e60:	d1d7      	bne.n	1a002e12 <pll_calc_divs+0x22>
1a002e62:	1c74      	adds	r4, r6, #1
1a002e64:	fa23 f404 	lsr.w	r4, r3, r4
1a002e68:	e7d4      	b.n	1a002e14 <pll_calc_divs+0x24>
1a002e6a:	f1cc 0c00 	rsb	ip, ip, #0
1a002e6e:	e7d4      	b.n	1a002e1a <pll_calc_divs+0x2a>
1a002e70:	3601      	adds	r6, #1
1a002e72:	2e03      	cmp	r6, #3
1a002e74:	dc01      	bgt.n	1a002e7a <pll_calc_divs+0x8a>
1a002e76:	2201      	movs	r2, #1
1a002e78:	e7d9      	b.n	1a002e2e <pll_calc_divs+0x3e>
1a002e7a:	3501      	adds	r5, #1
1a002e7c:	2d04      	cmp	r5, #4
1a002e7e:	dc01      	bgt.n	1a002e84 <pll_calc_divs+0x94>
1a002e80:	2600      	movs	r6, #0
1a002e82:	e7f6      	b.n	1a002e72 <pll_calc_divs+0x82>
1a002e84:	bcf0      	pop	{r4, r5, r6, r7}
1a002e86:	4770      	bx	lr
1a002e88:	094c5eff 	.word	0x094c5eff
1a002e8c:	1312d000 	.word	0x1312d000

1a002e90 <pll_get_frac>:
1a002e90:	b5f0      	push	{r4, r5, r6, r7, lr}
1a002e92:	b099      	sub	sp, #100	; 0x64
1a002e94:	4605      	mov	r5, r0
1a002e96:	460c      	mov	r4, r1
1a002e98:	225c      	movs	r2, #92	; 0x5c
1a002e9a:	2100      	movs	r1, #0
1a002e9c:	a801      	add	r0, sp, #4
1a002e9e:	f001 fa11 	bl	1a0042c4 <memset>
1a002ea2:	2380      	movs	r3, #128	; 0x80
1a002ea4:	9300      	str	r3, [sp, #0]
1a002ea6:	6963      	ldr	r3, [r4, #20]
1a002ea8:	9305      	str	r3, [sp, #20]
1a002eaa:	7923      	ldrb	r3, [r4, #4]
1a002eac:	f88d 3004 	strb.w	r3, [sp, #4]
1a002eb0:	4669      	mov	r1, sp
1a002eb2:	4628      	mov	r0, r5
1a002eb4:	f7ff ff9c 	bl	1a002df0 <pll_calc_divs>
1a002eb8:	9b06      	ldr	r3, [sp, #24]
1a002eba:	42ab      	cmp	r3, r5
1a002ebc:	d027      	beq.n	1a002f0e <pll_get_frac+0x7e>
1a002ebe:	1aeb      	subs	r3, r5, r3
1a002ec0:	d42e      	bmi.n	1a002f20 <pll_get_frac+0x90>
1a002ec2:	461e      	mov	r6, r3
1a002ec4:	9b10      	ldr	r3, [sp, #64]	; 0x40
1a002ec6:	f023 0340 	bic.w	r3, r3, #64	; 0x40
1a002eca:	9310      	str	r3, [sp, #64]	; 0x40
1a002ecc:	6963      	ldr	r3, [r4, #20]
1a002ece:	9315      	str	r3, [sp, #84]	; 0x54
1a002ed0:	7923      	ldrb	r3, [r4, #4]
1a002ed2:	f88d 3044 	strb.w	r3, [sp, #68]	; 0x44
1a002ed6:	a910      	add	r1, sp, #64	; 0x40
1a002ed8:	4628      	mov	r0, r5
1a002eda:	f7ff ff89 	bl	1a002df0 <pll_calc_divs>
1a002ede:	9b16      	ldr	r3, [sp, #88]	; 0x58
1a002ee0:	42ab      	cmp	r3, r5
1a002ee2:	d01f      	beq.n	1a002f24 <pll_get_frac+0x94>
1a002ee4:	1aeb      	subs	r3, r5, r3
1a002ee6:	d425      	bmi.n	1a002f34 <pll_get_frac+0xa4>
1a002ee8:	461f      	mov	r7, r3
1a002eea:	4b2b      	ldr	r3, [pc, #172]	; (1a002f98 <pll_get_frac+0x108>)
1a002eec:	429d      	cmp	r5, r3
1a002eee:	d923      	bls.n	1a002f38 <pll_get_frac+0xa8>
1a002ef0:	9b0e      	ldr	r3, [sp, #56]	; 0x38
1a002ef2:	1aed      	subs	r5, r5, r3
1a002ef4:	d433      	bmi.n	1a002f5e <pll_get_frac+0xce>
1a002ef6:	42ae      	cmp	r6, r5
1a002ef8:	dc3b      	bgt.n	1a002f72 <pll_get_frac+0xe2>
1a002efa:	42be      	cmp	r6, r7
1a002efc:	dc31      	bgt.n	1a002f62 <pll_get_frac+0xd2>
1a002efe:	466d      	mov	r5, sp
1a002f00:	cd0f      	ldmia	r5!, {r0, r1, r2, r3}
1a002f02:	c40f      	stmia	r4!, {r0, r1, r2, r3}
1a002f04:	e895 000f 	ldmia.w	r5, {r0, r1, r2, r3}
1a002f08:	e884 000f 	stmia.w	r4, {r0, r1, r2, r3}
1a002f0c:	e006      	b.n	1a002f1c <pll_get_frac+0x8c>
1a002f0e:	466d      	mov	r5, sp
1a002f10:	cd0f      	ldmia	r5!, {r0, r1, r2, r3}
1a002f12:	c40f      	stmia	r4!, {r0, r1, r2, r3}
1a002f14:	e895 000f 	ldmia.w	r5, {r0, r1, r2, r3}
1a002f18:	e884 000f 	stmia.w	r4, {r0, r1, r2, r3}
1a002f1c:	b019      	add	sp, #100	; 0x64
1a002f1e:	bdf0      	pop	{r4, r5, r6, r7, pc}
1a002f20:	425b      	negs	r3, r3
1a002f22:	e7ce      	b.n	1a002ec2 <pll_get_frac+0x32>
1a002f24:	ad10      	add	r5, sp, #64	; 0x40
1a002f26:	cd0f      	ldmia	r5!, {r0, r1, r2, r3}
1a002f28:	c40f      	stmia	r4!, {r0, r1, r2, r3}
1a002f2a:	e895 000f 	ldmia.w	r5, {r0, r1, r2, r3}
1a002f2e:	e884 000f 	stmia.w	r4, {r0, r1, r2, r3}
1a002f32:	e7f3      	b.n	1a002f1c <pll_get_frac+0x8c>
1a002f34:	425b      	negs	r3, r3
1a002f36:	e7d7      	b.n	1a002ee8 <pll_get_frac+0x58>
1a002f38:	2340      	movs	r3, #64	; 0x40
1a002f3a:	9308      	str	r3, [sp, #32]
1a002f3c:	6963      	ldr	r3, [r4, #20]
1a002f3e:	930d      	str	r3, [sp, #52]	; 0x34
1a002f40:	a908      	add	r1, sp, #32
1a002f42:	4628      	mov	r0, r5
1a002f44:	f7ff ff54 	bl	1a002df0 <pll_calc_divs>
1a002f48:	9b0e      	ldr	r3, [sp, #56]	; 0x38
1a002f4a:	42ab      	cmp	r3, r5
1a002f4c:	d1d0      	bne.n	1a002ef0 <pll_get_frac+0x60>
1a002f4e:	ad08      	add	r5, sp, #32
1a002f50:	cd0f      	ldmia	r5!, {r0, r1, r2, r3}
1a002f52:	c40f      	stmia	r4!, {r0, r1, r2, r3}
1a002f54:	e895 000f 	ldmia.w	r5, {r0, r1, r2, r3}
1a002f58:	e884 000f 	stmia.w	r4, {r0, r1, r2, r3}
1a002f5c:	e7de      	b.n	1a002f1c <pll_get_frac+0x8c>
1a002f5e:	426d      	negs	r5, r5
1a002f60:	e7c9      	b.n	1a002ef6 <pll_get_frac+0x66>
1a002f62:	ad10      	add	r5, sp, #64	; 0x40
1a002f64:	cd0f      	ldmia	r5!, {r0, r1, r2, r3}
1a002f66:	c40f      	stmia	r4!, {r0, r1, r2, r3}
1a002f68:	e895 000f 	ldmia.w	r5, {r0, r1, r2, r3}
1a002f6c:	e884 000f 	stmia.w	r4, {r0, r1, r2, r3}
1a002f70:	e7d4      	b.n	1a002f1c <pll_get_frac+0x8c>
1a002f72:	42af      	cmp	r7, r5
1a002f74:	db07      	blt.n	1a002f86 <pll_get_frac+0xf6>
1a002f76:	ad08      	add	r5, sp, #32
1a002f78:	cd0f      	ldmia	r5!, {r0, r1, r2, r3}
1a002f7a:	c40f      	stmia	r4!, {r0, r1, r2, r3}
1a002f7c:	e895 000f 	ldmia.w	r5, {r0, r1, r2, r3}
1a002f80:	e884 000f 	stmia.w	r4, {r0, r1, r2, r3}
1a002f84:	e7ca      	b.n	1a002f1c <pll_get_frac+0x8c>
1a002f86:	ad10      	add	r5, sp, #64	; 0x40
1a002f88:	cd0f      	ldmia	r5!, {r0, r1, r2, r3}
1a002f8a:	c40f      	stmia	r4!, {r0, r1, r2, r3}
1a002f8c:	e895 000f 	ldmia.w	r5, {r0, r1, r2, r3}
1a002f90:	e884 000f 	stmia.w	r4, {r0, r1, r2, r3}
1a002f94:	e7c2      	b.n	1a002f1c <pll_get_frac+0x8c>
1a002f96:	bf00      	nop
1a002f98:	068e7780 	.word	0x068e7780

1a002f9c <Chip_Clock_FindBaseClock>:
1a002f9c:	b430      	push	{r4, r5}
1a002f9e:	4605      	mov	r5, r0
1a002fa0:	2300      	movs	r3, #0
1a002fa2:	201c      	movs	r0, #28
1a002fa4:	e000      	b.n	1a002fa8 <Chip_Clock_FindBaseClock+0xc>
1a002fa6:	3301      	adds	r3, #1
1a002fa8:	281c      	cmp	r0, #28
1a002faa:	d118      	bne.n	1a002fde <Chip_Clock_FindBaseClock+0x42>
1a002fac:	eb03 0243 	add.w	r2, r3, r3, lsl #1
1a002fb0:	0051      	lsls	r1, r2, #1
1a002fb2:	4a0c      	ldr	r2, [pc, #48]	; (1a002fe4 <Chip_Clock_FindBaseClock+0x48>)
1a002fb4:	440a      	add	r2, r1
1a002fb6:	7914      	ldrb	r4, [r2, #4]
1a002fb8:	4284      	cmp	r4, r0
1a002fba:	d010      	beq.n	1a002fde <Chip_Clock_FindBaseClock+0x42>
1a002fbc:	eb03 0143 	add.w	r1, r3, r3, lsl #1
1a002fc0:	004a      	lsls	r2, r1, #1
1a002fc2:	4908      	ldr	r1, [pc, #32]	; (1a002fe4 <Chip_Clock_FindBaseClock+0x48>)
1a002fc4:	5a8a      	ldrh	r2, [r1, r2]
1a002fc6:	42aa      	cmp	r2, r5
1a002fc8:	d8ed      	bhi.n	1a002fa6 <Chip_Clock_FindBaseClock+0xa>
1a002fca:	eb03 0243 	add.w	r2, r3, r3, lsl #1
1a002fce:	0051      	lsls	r1, r2, #1
1a002fd0:	4a04      	ldr	r2, [pc, #16]	; (1a002fe4 <Chip_Clock_FindBaseClock+0x48>)
1a002fd2:	440a      	add	r2, r1
1a002fd4:	8852      	ldrh	r2, [r2, #2]
1a002fd6:	42aa      	cmp	r2, r5
1a002fd8:	d3e5      	bcc.n	1a002fa6 <Chip_Clock_FindBaseClock+0xa>
1a002fda:	4620      	mov	r0, r4
1a002fdc:	e7e4      	b.n	1a002fa8 <Chip_Clock_FindBaseClock+0xc>
1a002fde:	bc30      	pop	{r4, r5}
1a002fe0:	4770      	bx	lr
1a002fe2:	bf00      	nop
1a002fe4:	1a007c28 	.word	0x1a007c28

1a002fe8 <Chip_Clock_EnableCrystal>:
1a002fe8:	b082      	sub	sp, #8
1a002fea:	f44f 737a 	mov.w	r3, #1000	; 0x3e8
1a002fee:	9301      	str	r3, [sp, #4]
1a002ff0:	4a0d      	ldr	r2, [pc, #52]	; (1a003028 <Chip_Clock_EnableCrystal+0x40>)
1a002ff2:	6993      	ldr	r3, [r2, #24]
1a002ff4:	f023 0102 	bic.w	r1, r3, #2
1a002ff8:	6992      	ldr	r2, [r2, #24]
1a002ffa:	428a      	cmp	r2, r1
1a002ffc:	d001      	beq.n	1a003002 <Chip_Clock_EnableCrystal+0x1a>
1a002ffe:	4a0a      	ldr	r2, [pc, #40]	; (1a003028 <Chip_Clock_EnableCrystal+0x40>)
1a003000:	6191      	str	r1, [r2, #24]
1a003002:	f023 0303 	bic.w	r3, r3, #3
1a003006:	4a09      	ldr	r2, [pc, #36]	; (1a00302c <Chip_Clock_EnableCrystal+0x44>)
1a003008:	6811      	ldr	r1, [r2, #0]
1a00300a:	4a09      	ldr	r2, [pc, #36]	; (1a003030 <Chip_Clock_EnableCrystal+0x48>)
1a00300c:	4291      	cmp	r1, r2
1a00300e:	d901      	bls.n	1a003014 <Chip_Clock_EnableCrystal+0x2c>
1a003010:	f043 0304 	orr.w	r3, r3, #4
1a003014:	4a04      	ldr	r2, [pc, #16]	; (1a003028 <Chip_Clock_EnableCrystal+0x40>)
1a003016:	6193      	str	r3, [r2, #24]
1a003018:	9b01      	ldr	r3, [sp, #4]
1a00301a:	1e5a      	subs	r2, r3, #1
1a00301c:	9201      	str	r2, [sp, #4]
1a00301e:	2b00      	cmp	r3, #0
1a003020:	d1fa      	bne.n	1a003018 <Chip_Clock_EnableCrystal+0x30>
1a003022:	b002      	add	sp, #8
1a003024:	4770      	bx	lr
1a003026:	bf00      	nop
1a003028:	40050000 	.word	0x40050000
1a00302c:	1a007bd0 	.word	0x1a007bd0
1a003030:	01312cff 	.word	0x01312cff

1a003034 <Chip_Clock_GetDividerSource>:
1a003034:	3012      	adds	r0, #18
1a003036:	4b05      	ldr	r3, [pc, #20]	; (1a00304c <Chip_Clock_GetDividerSource+0x18>)
1a003038:	f853 0020 	ldr.w	r0, [r3, r0, lsl #2]
1a00303c:	f010 0f01 	tst.w	r0, #1
1a003040:	d102      	bne.n	1a003048 <Chip_Clock_GetDividerSource+0x14>
1a003042:	f3c0 6004 	ubfx	r0, r0, #24, #5
1a003046:	4770      	bx	lr
1a003048:	2011      	movs	r0, #17
1a00304a:	4770      	bx	lr
1a00304c:	40050000 	.word	0x40050000

1a003050 <Chip_Clock_GetDividerDivisor>:
1a003050:	f100 0212 	add.w	r2, r0, #18
1a003054:	4b03      	ldr	r3, [pc, #12]	; (1a003064 <Chip_Clock_GetDividerDivisor+0x14>)
1a003056:	f853 2022 	ldr.w	r2, [r3, r2, lsl #2]
1a00305a:	4b03      	ldr	r3, [pc, #12]	; (1a003068 <Chip_Clock_GetDividerDivisor+0x18>)
1a00305c:	5c18      	ldrb	r0, [r3, r0]
1a00305e:	ea00 0092 	and.w	r0, r0, r2, lsr #2
1a003062:	4770      	bx	lr
1a003064:	40050000 	.word	0x40050000
1a003068:	1a007c20 	.word	0x1a007c20

1a00306c <Chip_Clock_GetClockInputHz>:
1a00306c:	b508      	push	{r3, lr}
1a00306e:	2810      	cmp	r0, #16
1a003070:	d80a      	bhi.n	1a003088 <Chip_Clock_GetClockInputHz+0x1c>
1a003072:	e8df f000 	tbb	[pc, r0]
1a003076:	0b44      	.short	0x0b44
1a003078:	0921180d 	.word	0x0921180d
1a00307c:	2d2a2724 	.word	0x2d2a2724
1a003080:	34300909 	.word	0x34300909
1a003084:	3c38      	.short	0x3c38
1a003086:	40          	.byte	0x40
1a003087:	00          	.byte	0x00
1a003088:	2000      	movs	r0, #0
1a00308a:	e03a      	b.n	1a003102 <Chip_Clock_GetClockInputHz+0x96>
1a00308c:	481e      	ldr	r0, [pc, #120]	; (1a003108 <Chip_Clock_GetClockInputHz+0x9c>)
1a00308e:	e038      	b.n	1a003102 <Chip_Clock_GetClockInputHz+0x96>
1a003090:	4b1e      	ldr	r3, [pc, #120]	; (1a00310c <Chip_Clock_GetClockInputHz+0xa0>)
1a003092:	f8d3 312c 	ldr.w	r3, [r3, #300]	; 0x12c
1a003096:	f003 0307 	and.w	r3, r3, #7
1a00309a:	2b04      	cmp	r3, #4
1a00309c:	d001      	beq.n	1a0030a2 <Chip_Clock_GetClockInputHz+0x36>
1a00309e:	481c      	ldr	r0, [pc, #112]	; (1a003110 <Chip_Clock_GetClockInputHz+0xa4>)
1a0030a0:	e02f      	b.n	1a003102 <Chip_Clock_GetClockInputHz+0x96>
1a0030a2:	2000      	movs	r0, #0
1a0030a4:	e02d      	b.n	1a003102 <Chip_Clock_GetClockInputHz+0x96>
1a0030a6:	4b19      	ldr	r3, [pc, #100]	; (1a00310c <Chip_Clock_GetClockInputHz+0xa0>)
1a0030a8:	f8d3 312c 	ldr.w	r3, [r3, #300]	; 0x12c
1a0030ac:	f003 0307 	and.w	r3, r3, #7
1a0030b0:	2b04      	cmp	r3, #4
1a0030b2:	d027      	beq.n	1a003104 <Chip_Clock_GetClockInputHz+0x98>
1a0030b4:	4816      	ldr	r0, [pc, #88]	; (1a003110 <Chip_Clock_GetClockInputHz+0xa4>)
1a0030b6:	e024      	b.n	1a003102 <Chip_Clock_GetClockInputHz+0x96>
1a0030b8:	4b16      	ldr	r3, [pc, #88]	; (1a003114 <Chip_Clock_GetClockInputHz+0xa8>)
1a0030ba:	6818      	ldr	r0, [r3, #0]
1a0030bc:	e021      	b.n	1a003102 <Chip_Clock_GetClockInputHz+0x96>
1a0030be:	4b16      	ldr	r3, [pc, #88]	; (1a003118 <Chip_Clock_GetClockInputHz+0xac>)
1a0030c0:	6818      	ldr	r0, [r3, #0]
1a0030c2:	e01e      	b.n	1a003102 <Chip_Clock_GetClockInputHz+0x96>
1a0030c4:	4b15      	ldr	r3, [pc, #84]	; (1a00311c <Chip_Clock_GetClockInputHz+0xb0>)
1a0030c6:	6818      	ldr	r0, [r3, #0]
1a0030c8:	e01b      	b.n	1a003102 <Chip_Clock_GetClockInputHz+0x96>
1a0030ca:	4b14      	ldr	r3, [pc, #80]	; (1a00311c <Chip_Clock_GetClockInputHz+0xb0>)
1a0030cc:	6858      	ldr	r0, [r3, #4]
1a0030ce:	e018      	b.n	1a003102 <Chip_Clock_GetClockInputHz+0x96>
1a0030d0:	f000 f868 	bl	1a0031a4 <Chip_Clock_GetMainPLLHz>
1a0030d4:	e015      	b.n	1a003102 <Chip_Clock_GetClockInputHz+0x96>
1a0030d6:	2100      	movs	r1, #0
1a0030d8:	f000 f89a 	bl	1a003210 <Chip_Clock_GetDivRate>
1a0030dc:	e011      	b.n	1a003102 <Chip_Clock_GetClockInputHz+0x96>
1a0030de:	2101      	movs	r1, #1
1a0030e0:	f000 f896 	bl	1a003210 <Chip_Clock_GetDivRate>
1a0030e4:	e00d      	b.n	1a003102 <Chip_Clock_GetClockInputHz+0x96>
1a0030e6:	2102      	movs	r1, #2
1a0030e8:	f000 f892 	bl	1a003210 <Chip_Clock_GetDivRate>
1a0030ec:	e009      	b.n	1a003102 <Chip_Clock_GetClockInputHz+0x96>
1a0030ee:	2103      	movs	r1, #3
1a0030f0:	f000 f88e 	bl	1a003210 <Chip_Clock_GetDivRate>
1a0030f4:	e005      	b.n	1a003102 <Chip_Clock_GetClockInputHz+0x96>
1a0030f6:	2104      	movs	r1, #4
1a0030f8:	f000 f88a 	bl	1a003210 <Chip_Clock_GetDivRate>
1a0030fc:	e001      	b.n	1a003102 <Chip_Clock_GetClockInputHz+0x96>
1a0030fe:	f44f 4000 	mov.w	r0, #32768	; 0x8000
1a003102:	bd08      	pop	{r3, pc}
1a003104:	4806      	ldr	r0, [pc, #24]	; (1a003120 <Chip_Clock_GetClockInputHz+0xb4>)
1a003106:	e7fc      	b.n	1a003102 <Chip_Clock_GetClockInputHz+0x96>
1a003108:	00b71b00 	.word	0x00b71b00
1a00310c:	40043000 	.word	0x40043000
1a003110:	017d7840 	.word	0x017d7840
1a003114:	1a007ba4 	.word	0x1a007ba4
1a003118:	1a007bd0 	.word	0x1a007bd0
1a00311c:	100002fc 	.word	0x100002fc
1a003120:	02faf080 	.word	0x02faf080

1a003124 <Chip_Clock_CalcMainPLLValue>:
1a003124:	b538      	push	{r3, r4, r5, lr}
1a003126:	4605      	mov	r5, r0
1a003128:	460c      	mov	r4, r1
1a00312a:	7908      	ldrb	r0, [r1, #4]
1a00312c:	f7ff ff9e 	bl	1a00306c <Chip_Clock_GetClockInputHz>
1a003130:	6160      	str	r0, [r4, #20]
1a003132:	4b19      	ldr	r3, [pc, #100]	; (1a003198 <Chip_Clock_CalcMainPLLValue+0x74>)
1a003134:	442b      	add	r3, r5
1a003136:	4a19      	ldr	r2, [pc, #100]	; (1a00319c <Chip_Clock_CalcMainPLLValue+0x78>)
1a003138:	4293      	cmp	r3, r2
1a00313a:	d821      	bhi.n	1a003180 <Chip_Clock_CalcMainPLLValue+0x5c>
1a00313c:	b318      	cbz	r0, 1a003186 <Chip_Clock_CalcMainPLLValue+0x62>
1a00313e:	2380      	movs	r3, #128	; 0x80
1a003140:	6023      	str	r3, [r4, #0]
1a003142:	2300      	movs	r3, #0
1a003144:	60a3      	str	r3, [r4, #8]
1a003146:	60e3      	str	r3, [r4, #12]
1a003148:	fbb5 f3f0 	udiv	r3, r5, r0
1a00314c:	6123      	str	r3, [r4, #16]
1a00314e:	4a14      	ldr	r2, [pc, #80]	; (1a0031a0 <Chip_Clock_CalcMainPLLValue+0x7c>)
1a003150:	4295      	cmp	r5, r2
1a003152:	d903      	bls.n	1a00315c <Chip_Clock_CalcMainPLLValue+0x38>
1a003154:	fb03 f000 	mul.w	r0, r3, r0
1a003158:	42a8      	cmp	r0, r5
1a00315a:	d007      	beq.n	1a00316c <Chip_Clock_CalcMainPLLValue+0x48>
1a00315c:	4621      	mov	r1, r4
1a00315e:	4628      	mov	r0, r5
1a003160:	f7ff fe96 	bl	1a002e90 <pll_get_frac>
1a003164:	68a3      	ldr	r3, [r4, #8]
1a003166:	b18b      	cbz	r3, 1a00318c <Chip_Clock_CalcMainPLLValue+0x68>
1a003168:	3b01      	subs	r3, #1
1a00316a:	60a3      	str	r3, [r4, #8]
1a00316c:	6923      	ldr	r3, [r4, #16]
1a00316e:	b183      	cbz	r3, 1a003192 <Chip_Clock_CalcMainPLLValue+0x6e>
1a003170:	68e2      	ldr	r2, [r4, #12]
1a003172:	b10a      	cbz	r2, 1a003178 <Chip_Clock_CalcMainPLLValue+0x54>
1a003174:	3a01      	subs	r2, #1
1a003176:	60e2      	str	r2, [r4, #12]
1a003178:	3b01      	subs	r3, #1
1a00317a:	6123      	str	r3, [r4, #16]
1a00317c:	2000      	movs	r0, #0
1a00317e:	bd38      	pop	{r3, r4, r5, pc}
1a003180:	f04f 30ff 	mov.w	r0, #4294967295
1a003184:	e7fb      	b.n	1a00317e <Chip_Clock_CalcMainPLLValue+0x5a>
1a003186:	f04f 30ff 	mov.w	r0, #4294967295
1a00318a:	e7f8      	b.n	1a00317e <Chip_Clock_CalcMainPLLValue+0x5a>
1a00318c:	f04f 30ff 	mov.w	r0, #4294967295
1a003190:	e7f5      	b.n	1a00317e <Chip_Clock_CalcMainPLLValue+0x5a>
1a003192:	f04f 30ff 	mov.w	r0, #4294967295
1a003196:	e7f2      	b.n	1a00317e <Chip_Clock_CalcMainPLLValue+0x5a>
1a003198:	ff6b3a10 	.word	0xff6b3a10
1a00319c:	0b940510 	.word	0x0b940510
1a0031a0:	094c5eff 	.word	0x094c5eff

1a0031a4 <Chip_Clock_GetMainPLLHz>:
1a0031a4:	b530      	push	{r4, r5, lr}
1a0031a6:	b083      	sub	sp, #12
1a0031a8:	4d17      	ldr	r5, [pc, #92]	; (1a003208 <Chip_Clock_GetMainPLLHz+0x64>)
1a0031aa:	6c6c      	ldr	r4, [r5, #68]	; 0x44
1a0031ac:	f3c4 6003 	ubfx	r0, r4, #24, #4
1a0031b0:	f7ff ff5c 	bl	1a00306c <Chip_Clock_GetClockInputHz>
1a0031b4:	4b15      	ldr	r3, [pc, #84]	; (1a00320c <Chip_Clock_GetMainPLLHz+0x68>)
1a0031b6:	681b      	ldr	r3, [r3, #0]
1a0031b8:	9301      	str	r3, [sp, #4]
1a0031ba:	6c2b      	ldr	r3, [r5, #64]	; 0x40
1a0031bc:	f013 0f01 	tst.w	r3, #1
1a0031c0:	d020      	beq.n	1a003204 <Chip_Clock_GetMainPLLHz+0x60>
1a0031c2:	f3c4 4307 	ubfx	r3, r4, #16, #8
1a0031c6:	f3c4 3201 	ubfx	r2, r4, #12, #2
1a0031ca:	f3c4 2101 	ubfx	r1, r4, #8, #2
1a0031ce:	f3c4 1580 	ubfx	r5, r4, #6, #1
1a0031d2:	3301      	adds	r3, #1
1a0031d4:	3201      	adds	r2, #1
1a0031d6:	f10d 0c08 	add.w	ip, sp, #8
1a0031da:	4461      	add	r1, ip
1a0031dc:	f811 1c04 	ldrb.w	r1, [r1, #-4]
1a0031e0:	f014 0f80 	tst.w	r4, #128	; 0x80
1a0031e4:	d108      	bne.n	1a0031f8 <Chip_Clock_GetMainPLLHz+0x54>
1a0031e6:	b93d      	cbnz	r5, 1a0031f8 <Chip_Clock_GetMainPLLHz+0x54>
1a0031e8:	0049      	lsls	r1, r1, #1
1a0031ea:	fbb3 f3f1 	udiv	r3, r3, r1
1a0031ee:	fbb0 f0f2 	udiv	r0, r0, r2
1a0031f2:	fb00 f003 	mul.w	r0, r0, r3
1a0031f6:	e003      	b.n	1a003200 <Chip_Clock_GetMainPLLHz+0x5c>
1a0031f8:	fbb0 f0f2 	udiv	r0, r0, r2
1a0031fc:	fb03 f000 	mul.w	r0, r3, r0
1a003200:	b003      	add	sp, #12
1a003202:	bd30      	pop	{r4, r5, pc}
1a003204:	2000      	movs	r0, #0
1a003206:	e7fb      	b.n	1a003200 <Chip_Clock_GetMainPLLHz+0x5c>
1a003208:	40050000 	.word	0x40050000
1a00320c:	1a007c1c 	.word	0x1a007c1c

1a003210 <Chip_Clock_GetDivRate>:
1a003210:	b538      	push	{r3, r4, r5, lr}
1a003212:	460c      	mov	r4, r1
1a003214:	4608      	mov	r0, r1
1a003216:	f7ff ff0d 	bl	1a003034 <Chip_Clock_GetDividerSource>
1a00321a:	4605      	mov	r5, r0
1a00321c:	4620      	mov	r0, r4
1a00321e:	f7ff ff17 	bl	1a003050 <Chip_Clock_GetDividerDivisor>
1a003222:	4604      	mov	r4, r0
1a003224:	4628      	mov	r0, r5
1a003226:	f7ff ff21 	bl	1a00306c <Chip_Clock_GetClockInputHz>
1a00322a:	3401      	adds	r4, #1
1a00322c:	fbb0 f0f4 	udiv	r0, r0, r4
1a003230:	bd38      	pop	{r3, r4, r5, pc}
1a003232:	Address 0x1a003232 is out of bounds.


1a003234 <Chip_Clock_SetBaseClock>:
1a003234:	b430      	push	{r4, r5}
1a003236:	f100 0416 	add.w	r4, r0, #22
1a00323a:	00a4      	lsls	r4, r4, #2
1a00323c:	f104 4480 	add.w	r4, r4, #1073741824	; 0x40000000
1a003240:	f504 24a0 	add.w	r4, r4, #327680	; 0x50000
1a003244:	6864      	ldr	r4, [r4, #4]
1a003246:	281b      	cmp	r0, #27
1a003248:	d813      	bhi.n	1a003272 <Chip_Clock_SetBaseClock+0x3e>
1a00324a:	2911      	cmp	r1, #17
1a00324c:	d01a      	beq.n	1a003284 <Chip_Clock_SetBaseClock+0x50>
1a00324e:	4d0e      	ldr	r5, [pc, #56]	; (1a003288 <Chip_Clock_SetBaseClock+0x54>)
1a003250:	4025      	ands	r5, r4
1a003252:	b10a      	cbz	r2, 1a003258 <Chip_Clock_SetBaseClock+0x24>
1a003254:	f445 6500 	orr.w	r5, r5, #2048	; 0x800
1a003258:	b10b      	cbz	r3, 1a00325e <Chip_Clock_SetBaseClock+0x2a>
1a00325a:	f045 0501 	orr.w	r5, r5, #1
1a00325e:	ea45 6501 	orr.w	r5, r5, r1, lsl #24
1a003262:	3016      	adds	r0, #22
1a003264:	0080      	lsls	r0, r0, #2
1a003266:	f100 4080 	add.w	r0, r0, #1073741824	; 0x40000000
1a00326a:	f500 20a0 	add.w	r0, r0, #327680	; 0x50000
1a00326e:	6045      	str	r5, [r0, #4]
1a003270:	e008      	b.n	1a003284 <Chip_Clock_SetBaseClock+0x50>
1a003272:	f044 0401 	orr.w	r4, r4, #1
1a003276:	3016      	adds	r0, #22
1a003278:	0080      	lsls	r0, r0, #2
1a00327a:	f100 4080 	add.w	r0, r0, #1073741824	; 0x40000000
1a00327e:	f500 20a0 	add.w	r0, r0, #327680	; 0x50000
1a003282:	6044      	str	r4, [r0, #4]
1a003284:	bc30      	pop	{r4, r5}
1a003286:	4770      	bx	lr
1a003288:	e0fff7fe 	.word	0xe0fff7fe

1a00328c <Chip_Clock_GetBaseClock>:
1a00328c:	281b      	cmp	r0, #27
1a00328e:	d80c      	bhi.n	1a0032aa <Chip_Clock_GetBaseClock+0x1e>
1a003290:	3016      	adds	r0, #22
1a003292:	0080      	lsls	r0, r0, #2
1a003294:	f100 4080 	add.w	r0, r0, #1073741824	; 0x40000000
1a003298:	f500 20a0 	add.w	r0, r0, #327680	; 0x50000
1a00329c:	6840      	ldr	r0, [r0, #4]
1a00329e:	f010 0f01 	tst.w	r0, #1
1a0032a2:	d104      	bne.n	1a0032ae <Chip_Clock_GetBaseClock+0x22>
1a0032a4:	f3c0 6004 	ubfx	r0, r0, #24, #5
1a0032a8:	4770      	bx	lr
1a0032aa:	2011      	movs	r0, #17
1a0032ac:	4770      	bx	lr
1a0032ae:	2011      	movs	r0, #17
1a0032b0:	4770      	bx	lr

1a0032b2 <Chip_Clock_GetBaseClocktHz>:
1a0032b2:	b508      	push	{r3, lr}
1a0032b4:	f7ff ffea 	bl	1a00328c <Chip_Clock_GetBaseClock>
1a0032b8:	f7ff fed8 	bl	1a00306c <Chip_Clock_GetClockInputHz>
1a0032bc:	bd08      	pop	{r3, pc}
1a0032be:	Address 0x1a0032be is out of bounds.


1a0032c0 <Chip_Clock_EnableOpts>:
1a0032c0:	b971      	cbnz	r1, 1a0032e0 <Chip_Clock_EnableOpts+0x20>
1a0032c2:	2101      	movs	r1, #1
1a0032c4:	b10a      	cbz	r2, 1a0032ca <Chip_Clock_EnableOpts+0xa>
1a0032c6:	f041 0104 	orr.w	r1, r1, #4
1a0032ca:	2b02      	cmp	r3, #2
1a0032cc:	d00a      	beq.n	1a0032e4 <Chip_Clock_EnableOpts+0x24>
1a0032ce:	f5b0 7fa1 	cmp.w	r0, #322	; 0x142
1a0032d2:	d30a      	bcc.n	1a0032ea <Chip_Clock_EnableOpts+0x2a>
1a0032d4:	f5a0 7091 	sub.w	r0, r0, #290	; 0x122
1a0032d8:	4b06      	ldr	r3, [pc, #24]	; (1a0032f4 <Chip_Clock_EnableOpts+0x34>)
1a0032da:	f843 1030 	str.w	r1, [r3, r0, lsl #3]
1a0032de:	4770      	bx	lr
1a0032e0:	2103      	movs	r1, #3
1a0032e2:	e7ef      	b.n	1a0032c4 <Chip_Clock_EnableOpts+0x4>
1a0032e4:	f041 0120 	orr.w	r1, r1, #32
1a0032e8:	e7f1      	b.n	1a0032ce <Chip_Clock_EnableOpts+0xe>
1a0032ea:	3020      	adds	r0, #32
1a0032ec:	4b02      	ldr	r3, [pc, #8]	; (1a0032f8 <Chip_Clock_EnableOpts+0x38>)
1a0032ee:	f843 1030 	str.w	r1, [r3, r0, lsl #3]
1a0032f2:	4770      	bx	lr
1a0032f4:	40052000 	.word	0x40052000
1a0032f8:	40051000 	.word	0x40051000

1a0032fc <Chip_Clock_Enable>:
1a0032fc:	f5b0 7fa1 	cmp.w	r0, #322	; 0x142
1a003300:	d309      	bcc.n	1a003316 <Chip_Clock_Enable+0x1a>
1a003302:	4a09      	ldr	r2, [pc, #36]	; (1a003328 <Chip_Clock_Enable+0x2c>)
1a003304:	f5a0 7091 	sub.w	r0, r0, #290	; 0x122
1a003308:	f852 3030 	ldr.w	r3, [r2, r0, lsl #3]
1a00330c:	f043 0301 	orr.w	r3, r3, #1
1a003310:	f842 3030 	str.w	r3, [r2, r0, lsl #3]
1a003314:	4770      	bx	lr
1a003316:	4a05      	ldr	r2, [pc, #20]	; (1a00332c <Chip_Clock_Enable+0x30>)
1a003318:	3020      	adds	r0, #32
1a00331a:	f852 3030 	ldr.w	r3, [r2, r0, lsl #3]
1a00331e:	f043 0301 	orr.w	r3, r3, #1
1a003322:	f842 3030 	str.w	r3, [r2, r0, lsl #3]
1a003326:	4770      	bx	lr
1a003328:	40052000 	.word	0x40052000
1a00332c:	40051000 	.word	0x40051000

1a003330 <Chip_Clock_Disable>:
1a003330:	f5b0 7fa1 	cmp.w	r0, #322	; 0x142
1a003334:	d309      	bcc.n	1a00334a <Chip_Clock_Disable+0x1a>
1a003336:	4a09      	ldr	r2, [pc, #36]	; (1a00335c <Chip_Clock_Disable+0x2c>)
1a003338:	f5a0 7091 	sub.w	r0, r0, #290	; 0x122
1a00333c:	f852 3030 	ldr.w	r3, [r2, r0, lsl #3]
1a003340:	f023 0301 	bic.w	r3, r3, #1
1a003344:	f842 3030 	str.w	r3, [r2, r0, lsl #3]
1a003348:	4770      	bx	lr
1a00334a:	4a05      	ldr	r2, [pc, #20]	; (1a003360 <Chip_Clock_Disable+0x30>)
1a00334c:	3020      	adds	r0, #32
1a00334e:	f852 3030 	ldr.w	r3, [r2, r0, lsl #3]
1a003352:	f023 0301 	bic.w	r3, r3, #1
1a003356:	f842 3030 	str.w	r3, [r2, r0, lsl #3]
1a00335a:	4770      	bx	lr
1a00335c:	40052000 	.word	0x40052000
1a003360:	40051000 	.word	0x40051000

1a003364 <Chip_Clock_GetRate>:
1a003364:	b510      	push	{r4, lr}
1a003366:	f5b0 7fa1 	cmp.w	r0, #322	; 0x142
1a00336a:	d309      	bcc.n	1a003380 <Chip_Clock_GetRate+0x1c>
1a00336c:	f5a0 7391 	sub.w	r3, r0, #290	; 0x122
1a003370:	4a0d      	ldr	r2, [pc, #52]	; (1a0033a8 <Chip_Clock_GetRate+0x44>)
1a003372:	f852 4033 	ldr.w	r4, [r2, r3, lsl #3]
1a003376:	f014 0f01 	tst.w	r4, #1
1a00337a:	d107      	bne.n	1a00338c <Chip_Clock_GetRate+0x28>
1a00337c:	2000      	movs	r0, #0
1a00337e:	bd10      	pop	{r4, pc}
1a003380:	f100 0320 	add.w	r3, r0, #32
1a003384:	4a09      	ldr	r2, [pc, #36]	; (1a0033ac <Chip_Clock_GetRate+0x48>)
1a003386:	f852 4033 	ldr.w	r4, [r2, r3, lsl #3]
1a00338a:	e7f4      	b.n	1a003376 <Chip_Clock_GetRate+0x12>
1a00338c:	f7ff fe06 	bl	1a002f9c <Chip_Clock_FindBaseClock>
1a003390:	f7ff ff8f 	bl	1a0032b2 <Chip_Clock_GetBaseClocktHz>
1a003394:	f014 0fe0 	tst.w	r4, #224	; 0xe0
1a003398:	d103      	bne.n	1a0033a2 <Chip_Clock_GetRate+0x3e>
1a00339a:	2301      	movs	r3, #1
1a00339c:	fbb0 f0f3 	udiv	r0, r0, r3
1a0033a0:	e7ed      	b.n	1a00337e <Chip_Clock_GetRate+0x1a>
1a0033a2:	2302      	movs	r3, #2
1a0033a4:	e7fa      	b.n	1a00339c <Chip_Clock_GetRate+0x38>
1a0033a6:	bf00      	nop
1a0033a8:	40052000 	.word	0x40052000
1a0033ac:	40051000 	.word	0x40051000

1a0033b0 <Chip_UART_GetIndex>:
1a0033b0:	4b09      	ldr	r3, [pc, #36]	; (1a0033d8 <Chip_UART_GetIndex+0x28>)
1a0033b2:	4298      	cmp	r0, r3
1a0033b4:	d009      	beq.n	1a0033ca <Chip_UART_GetIndex+0x1a>
1a0033b6:	f503 5380 	add.w	r3, r3, #4096	; 0x1000
1a0033ba:	4298      	cmp	r0, r3
1a0033bc:	d007      	beq.n	1a0033ce <Chip_UART_GetIndex+0x1e>
1a0033be:	f5a3 2380 	sub.w	r3, r3, #262144	; 0x40000
1a0033c2:	4298      	cmp	r0, r3
1a0033c4:	d005      	beq.n	1a0033d2 <Chip_UART_GetIndex+0x22>
1a0033c6:	2000      	movs	r0, #0
1a0033c8:	4770      	bx	lr
1a0033ca:	2002      	movs	r0, #2
1a0033cc:	4770      	bx	lr
1a0033ce:	2003      	movs	r0, #3
1a0033d0:	4770      	bx	lr
1a0033d2:	2001      	movs	r0, #1
1a0033d4:	4770      	bx	lr
1a0033d6:	bf00      	nop
1a0033d8:	400c1000 	.word	0x400c1000

1a0033dc <Chip_UART_Init>:
1a0033dc:	b530      	push	{r4, r5, lr}
1a0033de:	b083      	sub	sp, #12
1a0033e0:	4604      	mov	r4, r0
1a0033e2:	f7ff ffe5 	bl	1a0033b0 <Chip_UART_GetIndex>
1a0033e6:	2301      	movs	r3, #1
1a0033e8:	461a      	mov	r2, r3
1a0033ea:	4619      	mov	r1, r3
1a0033ec:	4d0e      	ldr	r5, [pc, #56]	; (1a003428 <Chip_UART_Init+0x4c>)
1a0033ee:	f835 0010 	ldrh.w	r0, [r5, r0, lsl #1]
1a0033f2:	f7ff ff65 	bl	1a0032c0 <Chip_Clock_EnableOpts>
1a0033f6:	2307      	movs	r3, #7
1a0033f8:	60a3      	str	r3, [r4, #8]
1a0033fa:	2300      	movs	r3, #0
1a0033fc:	65e3      	str	r3, [r4, #92]	; 0x5c
1a0033fe:	6063      	str	r3, [r4, #4]
1a003400:	60e3      	str	r3, [r4, #12]
1a003402:	6223      	str	r3, [r4, #32]
1a003404:	64e3      	str	r3, [r4, #76]	; 0x4c
1a003406:	6563      	str	r3, [r4, #84]	; 0x54
1a003408:	6523      	str	r3, [r4, #80]	; 0x50
1a00340a:	4b08      	ldr	r3, [pc, #32]	; (1a00342c <Chip_UART_Init+0x50>)
1a00340c:	429c      	cmp	r4, r3
1a00340e:	d006      	beq.n	1a00341e <Chip_UART_Init+0x42>
1a003410:	2303      	movs	r3, #3
1a003412:	60e3      	str	r3, [r4, #12]
1a003414:	2310      	movs	r3, #16
1a003416:	62a3      	str	r3, [r4, #40]	; 0x28
1a003418:	9b01      	ldr	r3, [sp, #4]
1a00341a:	b003      	add	sp, #12
1a00341c:	bd30      	pop	{r4, r5, pc}
1a00341e:	2300      	movs	r3, #0
1a003420:	6123      	str	r3, [r4, #16]
1a003422:	69a3      	ldr	r3, [r4, #24]
1a003424:	9301      	str	r3, [sp, #4]
1a003426:	e7f3      	b.n	1a003410 <Chip_UART_Init+0x34>
1a003428:	1a007c9c 	.word	0x1a007c9c
1a00342c:	40082000 	.word	0x40082000

1a003430 <Chip_UART_SetBaud>:
1a003430:	b538      	push	{r3, r4, r5, lr}
1a003432:	4605      	mov	r5, r0
1a003434:	460c      	mov	r4, r1
1a003436:	f7ff ffbb 	bl	1a0033b0 <Chip_UART_GetIndex>
1a00343a:	4b0c      	ldr	r3, [pc, #48]	; (1a00346c <Chip_UART_SetBaud+0x3c>)
1a00343c:	f833 0010 	ldrh.w	r0, [r3, r0, lsl #1]
1a003440:	f7ff ff90 	bl	1a003364 <Chip_Clock_GetRate>
1a003444:	0123      	lsls	r3, r4, #4
1a003446:	fbb0 f3f3 	udiv	r3, r0, r3
1a00344a:	b2d9      	uxtb	r1, r3
1a00344c:	68ea      	ldr	r2, [r5, #12]
1a00344e:	f042 0280 	orr.w	r2, r2, #128	; 0x80
1a003452:	60ea      	str	r2, [r5, #12]
1a003454:	6029      	str	r1, [r5, #0]
1a003456:	f3c3 2207 	ubfx	r2, r3, #8, #8
1a00345a:	606a      	str	r2, [r5, #4]
1a00345c:	68ea      	ldr	r2, [r5, #12]
1a00345e:	f022 0280 	bic.w	r2, r2, #128	; 0x80
1a003462:	60ea      	str	r2, [r5, #12]
1a003464:	fbb0 f0f3 	udiv	r0, r0, r3
1a003468:	0900      	lsrs	r0, r0, #4
1a00346a:	bd38      	pop	{r3, r4, r5, pc}
1a00346c:	1a007c94 	.word	0x1a007c94

1a003470 <Chip_UART_SetBaudFDR>:
1a003470:	e92d 4ff0 	stmdb	sp!, {r4, r5, r6, r7, r8, r9, sl, fp, lr}
1a003474:	b083      	sub	sp, #12
1a003476:	9001      	str	r0, [sp, #4]
1a003478:	4688      	mov	r8, r1
1a00347a:	f7ff ff99 	bl	1a0033b0 <Chip_UART_GetIndex>
1a00347e:	4b32      	ldr	r3, [pc, #200]	; (1a003548 <Chip_UART_SetBaudFDR+0xd8>)
1a003480:	f833 0010 	ldrh.w	r0, [r3, r0, lsl #1]
1a003484:	f7ff ff6e 	bl	1a003364 <Chip_Clock_GetRate>
1a003488:	4606      	mov	r6, r0
1a00348a:	f04f 37ff 	mov.w	r7, #4294967295
1a00348e:	2401      	movs	r4, #1
1a003490:	f04f 0b00 	mov.w	fp, #0
1a003494:	46a2      	mov	sl, r4
1a003496:	46d9      	mov	r9, fp
1a003498:	e02a      	b.n	1a0034f0 <Chip_UART_SetBaudFDR+0x80>
1a00349a:	4242      	negs	r2, r0
1a00349c:	1c4b      	adds	r3, r1, #1
1a00349e:	e017      	b.n	1a0034d0 <Chip_UART_SetBaudFDR+0x60>
1a0034a0:	b30a      	cbz	r2, 1a0034e6 <Chip_UART_SetBaudFDR+0x76>
1a0034a2:	4617      	mov	r7, r2
1a0034a4:	46ab      	mov	fp, r5
1a0034a6:	46a2      	mov	sl, r4
1a0034a8:	4699      	mov	r9, r3
1a0034aa:	3501      	adds	r5, #1
1a0034ac:	42ac      	cmp	r4, r5
1a0034ae:	d91e      	bls.n	1a0034ee <Chip_UART_SetBaudFDR+0x7e>
1a0034b0:	0933      	lsrs	r3, r6, #4
1a0034b2:	0730      	lsls	r0, r6, #28
1a0034b4:	fba4 0100 	umull	r0, r1, r4, r0
1a0034b8:	fb04 1103 	mla	r1, r4, r3, r1
1a0034bc:	1962      	adds	r2, r4, r5
1a0034be:	fb08 f202 	mul.w	r2, r8, r2
1a0034c2:	2300      	movs	r3, #0
1a0034c4:	f000 fd1a 	bl	1a003efc <__aeabi_uldivmod>
1a0034c8:	4602      	mov	r2, r0
1a0034ca:	460b      	mov	r3, r1
1a0034cc:	2800      	cmp	r0, #0
1a0034ce:	dbe4      	blt.n	1a00349a <Chip_UART_SetBaudFDR+0x2a>
1a0034d0:	4297      	cmp	r7, r2
1a0034d2:	d3ea      	bcc.n	1a0034aa <Chip_UART_SetBaudFDR+0x3a>
1a0034d4:	2b00      	cmp	r3, #0
1a0034d6:	d0e8      	beq.n	1a0034aa <Chip_UART_SetBaudFDR+0x3a>
1a0034d8:	0c19      	lsrs	r1, r3, #16
1a0034da:	d1e6      	bne.n	1a0034aa <Chip_UART_SetBaudFDR+0x3a>
1a0034dc:	2b02      	cmp	r3, #2
1a0034de:	d8df      	bhi.n	1a0034a0 <Chip_UART_SetBaudFDR+0x30>
1a0034e0:	2d00      	cmp	r5, #0
1a0034e2:	d0dd      	beq.n	1a0034a0 <Chip_UART_SetBaudFDR+0x30>
1a0034e4:	e7e1      	b.n	1a0034aa <Chip_UART_SetBaudFDR+0x3a>
1a0034e6:	4617      	mov	r7, r2
1a0034e8:	46ab      	mov	fp, r5
1a0034ea:	46a2      	mov	sl, r4
1a0034ec:	4699      	mov	r9, r3
1a0034ee:	3401      	adds	r4, #1
1a0034f0:	b11f      	cbz	r7, 1a0034fa <Chip_UART_SetBaudFDR+0x8a>
1a0034f2:	2c0f      	cmp	r4, #15
1a0034f4:	d801      	bhi.n	1a0034fa <Chip_UART_SetBaudFDR+0x8a>
1a0034f6:	2500      	movs	r5, #0
1a0034f8:	e7d8      	b.n	1a0034ac <Chip_UART_SetBaudFDR+0x3c>
1a0034fa:	f1b9 0f00 	cmp.w	r9, #0
1a0034fe:	d01e      	beq.n	1a00353e <Chip_UART_SetBaudFDR+0xce>
1a003500:	9a01      	ldr	r2, [sp, #4]
1a003502:	4611      	mov	r1, r2
1a003504:	68d3      	ldr	r3, [r2, #12]
1a003506:	f043 0380 	orr.w	r3, r3, #128	; 0x80
1a00350a:	60d3      	str	r3, [r2, #12]
1a00350c:	fa5f f389 	uxtb.w	r3, r9
1a003510:	6013      	str	r3, [r2, #0]
1a003512:	f3c9 2307 	ubfx	r3, r9, #8, #8
1a003516:	6053      	str	r3, [r2, #4]
1a003518:	68d3      	ldr	r3, [r2, #12]
1a00351a:	f023 0380 	bic.w	r3, r3, #128	; 0x80
1a00351e:	60d3      	str	r3, [r2, #12]
1a003520:	ea4f 130a 	mov.w	r3, sl, lsl #4
1a003524:	b2db      	uxtb	r3, r3
1a003526:	f00b 020f 	and.w	r2, fp, #15
1a00352a:	4313      	orrs	r3, r2
1a00352c:	628b      	str	r3, [r1, #40]	; 0x28
1a00352e:	0933      	lsrs	r3, r6, #4
1a003530:	fb0a f303 	mul.w	r3, sl, r3
1a003534:	44da      	add	sl, fp
1a003536:	fb09 f90a 	mul.w	r9, r9, sl
1a00353a:	fbb3 f9f9 	udiv	r9, r3, r9
1a00353e:	4648      	mov	r0, r9
1a003540:	b003      	add	sp, #12
1a003542:	e8bd 8ff0 	ldmia.w	sp!, {r4, r5, r6, r7, r8, r9, sl, fp, pc}
1a003546:	bf00      	nop
1a003548:	1a007c94 	.word	0x1a007c94

1a00354c <ResetISR>:
1a00354c:	b510      	push	{r4, lr}
1a00354e:	b672      	cpsid	i
1a003550:	4b18      	ldr	r3, [pc, #96]	; (1a0035b4 <ResetISR+0x68>)
1a003552:	4a19      	ldr	r2, [pc, #100]	; (1a0035b8 <ResetISR+0x6c>)
1a003554:	601a      	str	r2, [r3, #0]
1a003556:	3304      	adds	r3, #4
1a003558:	4a18      	ldr	r2, [pc, #96]	; (1a0035bc <ResetISR+0x70>)
1a00355a:	601a      	str	r2, [r3, #0]
1a00355c:	2300      	movs	r3, #0
1a00355e:	e005      	b.n	1a00356c <ResetISR+0x20>
1a003560:	4a17      	ldr	r2, [pc, #92]	; (1a0035c0 <ResetISR+0x74>)
1a003562:	f04f 31ff 	mov.w	r1, #4294967295
1a003566:	f842 1023 	str.w	r1, [r2, r3, lsl #2]
1a00356a:	3301      	adds	r3, #1
1a00356c:	2b07      	cmp	r3, #7
1a00356e:	d9f7      	bls.n	1a003560 <ResetISR+0x14>
1a003570:	b662      	cpsie	i
1a003572:	f7ff f835 	bl	1a0025e0 <SystemInit>
1a003576:	4b13      	ldr	r3, [pc, #76]	; (1a0035c4 <ResetISR+0x78>)
1a003578:	e007      	b.n	1a00358a <ResetISR+0x3e>
1a00357a:	f103 040c 	add.w	r4, r3, #12
1a00357e:	689a      	ldr	r2, [r3, #8]
1a003580:	6859      	ldr	r1, [r3, #4]
1a003582:	6818      	ldr	r0, [r3, #0]
1a003584:	f7fc fe02 	bl	1a00018c <data_init>
1a003588:	4623      	mov	r3, r4
1a00358a:	4a0f      	ldr	r2, [pc, #60]	; (1a0035c8 <ResetISR+0x7c>)
1a00358c:	4293      	cmp	r3, r2
1a00358e:	d3f4      	bcc.n	1a00357a <ResetISR+0x2e>
1a003590:	e006      	b.n	1a0035a0 <ResetISR+0x54>
1a003592:	461c      	mov	r4, r3
1a003594:	6859      	ldr	r1, [r3, #4]
1a003596:	f854 0b08 	ldr.w	r0, [r4], #8
1a00359a:	f7fc fe06 	bl	1a0001aa <bss_init>
1a00359e:	4623      	mov	r3, r4
1a0035a0:	4a0a      	ldr	r2, [pc, #40]	; (1a0035cc <ResetISR+0x80>)
1a0035a2:	4293      	cmp	r3, r2
1a0035a4:	d3f5      	bcc.n	1a003592 <ResetISR+0x46>
1a0035a6:	f000 fe4b 	bl	1a004240 <__libc_init_array>
1a0035aa:	f7ff f95b 	bl	1a002864 <Board_Init>
1a0035ae:	f7fe f991 	bl	1a0018d4 <main>
1a0035b2:	e7fe      	b.n	1a0035b2 <ResetISR+0x66>
1a0035b4:	40053100 	.word	0x40053100
1a0035b8:	10df1000 	.word	0x10df1000
1a0035bc:	01dff7ff 	.word	0x01dff7ff
1a0035c0:	e000e280 	.word	0xe000e280
1a0035c4:	1a000114 	.word	0x1a000114
1a0035c8:	1a000150 	.word	0x1a000150
1a0035cc:	1a000178 	.word	0x1a000178

1a0035d0 <_init>:
1a0035d0:	4770      	bx	lr
1a0035d2:	Address 0x1a0035d2 is out of bounds.


1a0035d4 <__aeabi_drsub>:
1a0035d4:	f081 4100 	eor.w	r1, r1, #2147483648	; 0x80000000
1a0035d8:	e002      	b.n	1a0035e0 <__adddf3>
1a0035da:	bf00      	nop

1a0035dc <__aeabi_dsub>:
1a0035dc:	f083 4300 	eor.w	r3, r3, #2147483648	; 0x80000000

1a0035e0 <__adddf3>:
1a0035e0:	b530      	push	{r4, r5, lr}
1a0035e2:	ea4f 0441 	mov.w	r4, r1, lsl #1
1a0035e6:	ea4f 0543 	mov.w	r5, r3, lsl #1
1a0035ea:	ea94 0f05 	teq	r4, r5
1a0035ee:	bf08      	it	eq
1a0035f0:	ea90 0f02 	teqeq	r0, r2
1a0035f4:	bf1f      	itttt	ne
1a0035f6:	ea54 0c00 	orrsne.w	ip, r4, r0
1a0035fa:	ea55 0c02 	orrsne.w	ip, r5, r2
1a0035fe:	ea7f 5c64 	mvnsne.w	ip, r4, asr #21
1a003602:	ea7f 5c65 	mvnsne.w	ip, r5, asr #21
1a003606:	f000 80e2 	beq.w	1a0037ce <__adddf3+0x1ee>
1a00360a:	ea4f 5454 	mov.w	r4, r4, lsr #21
1a00360e:	ebd4 5555 	rsbs	r5, r4, r5, lsr #21
1a003612:	bfb8      	it	lt
1a003614:	426d      	neglt	r5, r5
1a003616:	dd0c      	ble.n	1a003632 <__adddf3+0x52>
1a003618:	442c      	add	r4, r5
1a00361a:	ea80 0202 	eor.w	r2, r0, r2
1a00361e:	ea81 0303 	eor.w	r3, r1, r3
1a003622:	ea82 0000 	eor.w	r0, r2, r0
1a003626:	ea83 0101 	eor.w	r1, r3, r1
1a00362a:	ea80 0202 	eor.w	r2, r0, r2
1a00362e:	ea81 0303 	eor.w	r3, r1, r3
1a003632:	2d36      	cmp	r5, #54	; 0x36
1a003634:	bf88      	it	hi
1a003636:	bd30      	pophi	{r4, r5, pc}
1a003638:	f011 4f00 	tst.w	r1, #2147483648	; 0x80000000
1a00363c:	ea4f 3101 	mov.w	r1, r1, lsl #12
1a003640:	f44f 1c80 	mov.w	ip, #1048576	; 0x100000
1a003644:	ea4c 3111 	orr.w	r1, ip, r1, lsr #12
1a003648:	d002      	beq.n	1a003650 <__adddf3+0x70>
1a00364a:	4240      	negs	r0, r0
1a00364c:	eb61 0141 	sbc.w	r1, r1, r1, lsl #1
1a003650:	f013 4f00 	tst.w	r3, #2147483648	; 0x80000000
1a003654:	ea4f 3303 	mov.w	r3, r3, lsl #12
1a003658:	ea4c 3313 	orr.w	r3, ip, r3, lsr #12
1a00365c:	d002      	beq.n	1a003664 <__adddf3+0x84>
1a00365e:	4252      	negs	r2, r2
1a003660:	eb63 0343 	sbc.w	r3, r3, r3, lsl #1
1a003664:	ea94 0f05 	teq	r4, r5
1a003668:	f000 80a7 	beq.w	1a0037ba <__adddf3+0x1da>
1a00366c:	f1a4 0401 	sub.w	r4, r4, #1
1a003670:	f1d5 0e20 	rsbs	lr, r5, #32
1a003674:	db0d      	blt.n	1a003692 <__adddf3+0xb2>
1a003676:	fa02 fc0e 	lsl.w	ip, r2, lr
1a00367a:	fa22 f205 	lsr.w	r2, r2, r5
1a00367e:	1880      	adds	r0, r0, r2
1a003680:	f141 0100 	adc.w	r1, r1, #0
1a003684:	fa03 f20e 	lsl.w	r2, r3, lr
1a003688:	1880      	adds	r0, r0, r2
1a00368a:	fa43 f305 	asr.w	r3, r3, r5
1a00368e:	4159      	adcs	r1, r3
1a003690:	e00e      	b.n	1a0036b0 <__adddf3+0xd0>
1a003692:	f1a5 0520 	sub.w	r5, r5, #32
1a003696:	f10e 0e20 	add.w	lr, lr, #32
1a00369a:	2a01      	cmp	r2, #1
1a00369c:	fa03 fc0e 	lsl.w	ip, r3, lr
1a0036a0:	bf28      	it	cs
1a0036a2:	f04c 0c02 	orrcs.w	ip, ip, #2
1a0036a6:	fa43 f305 	asr.w	r3, r3, r5
1a0036aa:	18c0      	adds	r0, r0, r3
1a0036ac:	eb51 71e3 	adcs.w	r1, r1, r3, asr #31
1a0036b0:	f001 4500 	and.w	r5, r1, #2147483648	; 0x80000000
1a0036b4:	d507      	bpl.n	1a0036c6 <__adddf3+0xe6>
1a0036b6:	f04f 0e00 	mov.w	lr, #0
1a0036ba:	f1dc 0c00 	rsbs	ip, ip, #0
1a0036be:	eb7e 0000 	sbcs.w	r0, lr, r0
1a0036c2:	eb6e 0101 	sbc.w	r1, lr, r1
1a0036c6:	f5b1 1f80 	cmp.w	r1, #1048576	; 0x100000
1a0036ca:	d31b      	bcc.n	1a003704 <__adddf3+0x124>
1a0036cc:	f5b1 1f00 	cmp.w	r1, #2097152	; 0x200000
1a0036d0:	d30c      	bcc.n	1a0036ec <__adddf3+0x10c>
1a0036d2:	0849      	lsrs	r1, r1, #1
1a0036d4:	ea5f 0030 	movs.w	r0, r0, rrx
1a0036d8:	ea4f 0c3c 	mov.w	ip, ip, rrx
1a0036dc:	f104 0401 	add.w	r4, r4, #1
1a0036e0:	ea4f 5244 	mov.w	r2, r4, lsl #21
1a0036e4:	f512 0f80 	cmn.w	r2, #4194304	; 0x400000
1a0036e8:	f080 809a 	bcs.w	1a003820 <__adddf3+0x240>
1a0036ec:	f1bc 4f00 	cmp.w	ip, #2147483648	; 0x80000000
1a0036f0:	bf08      	it	eq
1a0036f2:	ea5f 0c50 	movseq.w	ip, r0, lsr #1
1a0036f6:	f150 0000 	adcs.w	r0, r0, #0
1a0036fa:	eb41 5104 	adc.w	r1, r1, r4, lsl #20
1a0036fe:	ea41 0105 	orr.w	r1, r1, r5
1a003702:	bd30      	pop	{r4, r5, pc}
1a003704:	ea5f 0c4c 	movs.w	ip, ip, lsl #1
1a003708:	4140      	adcs	r0, r0
1a00370a:	eb41 0101 	adc.w	r1, r1, r1
1a00370e:	f411 1f80 	tst.w	r1, #1048576	; 0x100000
1a003712:	f1a4 0401 	sub.w	r4, r4, #1
1a003716:	d1e9      	bne.n	1a0036ec <__adddf3+0x10c>
1a003718:	f091 0f00 	teq	r1, #0
1a00371c:	bf04      	itt	eq
1a00371e:	4601      	moveq	r1, r0
1a003720:	2000      	moveq	r0, #0
1a003722:	fab1 f381 	clz	r3, r1
1a003726:	bf08      	it	eq
1a003728:	3320      	addeq	r3, #32
1a00372a:	f1a3 030b 	sub.w	r3, r3, #11
1a00372e:	f1b3 0220 	subs.w	r2, r3, #32
1a003732:	da0c      	bge.n	1a00374e <__adddf3+0x16e>
1a003734:	320c      	adds	r2, #12
1a003736:	dd08      	ble.n	1a00374a <__adddf3+0x16a>
1a003738:	f102 0c14 	add.w	ip, r2, #20
1a00373c:	f1c2 020c 	rsb	r2, r2, #12
1a003740:	fa01 f00c 	lsl.w	r0, r1, ip
1a003744:	fa21 f102 	lsr.w	r1, r1, r2
1a003748:	e00c      	b.n	1a003764 <__adddf3+0x184>
1a00374a:	f102 0214 	add.w	r2, r2, #20
1a00374e:	bfd8      	it	le
1a003750:	f1c2 0c20 	rsble	ip, r2, #32
1a003754:	fa01 f102 	lsl.w	r1, r1, r2
1a003758:	fa20 fc0c 	lsr.w	ip, r0, ip
1a00375c:	bfdc      	itt	le
1a00375e:	ea41 010c 	orrle.w	r1, r1, ip
1a003762:	4090      	lslle	r0, r2
1a003764:	1ae4      	subs	r4, r4, r3
1a003766:	bfa2      	ittt	ge
1a003768:	eb01 5104 	addge.w	r1, r1, r4, lsl #20
1a00376c:	4329      	orrge	r1, r5
1a00376e:	bd30      	popge	{r4, r5, pc}
1a003770:	ea6f 0404 	mvn.w	r4, r4
1a003774:	3c1f      	subs	r4, #31
1a003776:	da1c      	bge.n	1a0037b2 <__adddf3+0x1d2>
1a003778:	340c      	adds	r4, #12
1a00377a:	dc0e      	bgt.n	1a00379a <__adddf3+0x1ba>
1a00377c:	f104 0414 	add.w	r4, r4, #20
1a003780:	f1c4 0220 	rsb	r2, r4, #32
1a003784:	fa20 f004 	lsr.w	r0, r0, r4
1a003788:	fa01 f302 	lsl.w	r3, r1, r2
1a00378c:	ea40 0003 	orr.w	r0, r0, r3
1a003790:	fa21 f304 	lsr.w	r3, r1, r4
1a003794:	ea45 0103 	orr.w	r1, r5, r3
1a003798:	bd30      	pop	{r4, r5, pc}
1a00379a:	f1c4 040c 	rsb	r4, r4, #12
1a00379e:	f1c4 0220 	rsb	r2, r4, #32
1a0037a2:	fa20 f002 	lsr.w	r0, r0, r2
1a0037a6:	fa01 f304 	lsl.w	r3, r1, r4
1a0037aa:	ea40 0003 	orr.w	r0, r0, r3
1a0037ae:	4629      	mov	r1, r5
1a0037b0:	bd30      	pop	{r4, r5, pc}
1a0037b2:	fa21 f004 	lsr.w	r0, r1, r4
1a0037b6:	4629      	mov	r1, r5
1a0037b8:	bd30      	pop	{r4, r5, pc}
1a0037ba:	f094 0f00 	teq	r4, #0
1a0037be:	f483 1380 	eor.w	r3, r3, #1048576	; 0x100000
1a0037c2:	bf06      	itte	eq
1a0037c4:	f481 1180 	eoreq.w	r1, r1, #1048576	; 0x100000
1a0037c8:	3401      	addeq	r4, #1
1a0037ca:	3d01      	subne	r5, #1
1a0037cc:	e74e      	b.n	1a00366c <__adddf3+0x8c>
1a0037ce:	ea7f 5c64 	mvns.w	ip, r4, asr #21
1a0037d2:	bf18      	it	ne
1a0037d4:	ea7f 5c65 	mvnsne.w	ip, r5, asr #21
1a0037d8:	d029      	beq.n	1a00382e <__adddf3+0x24e>
1a0037da:	ea94 0f05 	teq	r4, r5
1a0037de:	bf08      	it	eq
1a0037e0:	ea90 0f02 	teqeq	r0, r2
1a0037e4:	d005      	beq.n	1a0037f2 <__adddf3+0x212>
1a0037e6:	ea54 0c00 	orrs.w	ip, r4, r0
1a0037ea:	bf04      	itt	eq
1a0037ec:	4619      	moveq	r1, r3
1a0037ee:	4610      	moveq	r0, r2
1a0037f0:	bd30      	pop	{r4, r5, pc}
1a0037f2:	ea91 0f03 	teq	r1, r3
1a0037f6:	bf1e      	ittt	ne
1a0037f8:	2100      	movne	r1, #0
1a0037fa:	2000      	movne	r0, #0
1a0037fc:	bd30      	popne	{r4, r5, pc}
1a0037fe:	ea5f 5c54 	movs.w	ip, r4, lsr #21
1a003802:	d105      	bne.n	1a003810 <__adddf3+0x230>
1a003804:	0040      	lsls	r0, r0, #1
1a003806:	4149      	adcs	r1, r1
1a003808:	bf28      	it	cs
1a00380a:	f041 4100 	orrcs.w	r1, r1, #2147483648	; 0x80000000
1a00380e:	bd30      	pop	{r4, r5, pc}
1a003810:	f514 0480 	adds.w	r4, r4, #4194304	; 0x400000
1a003814:	bf3c      	itt	cc
1a003816:	f501 1180 	addcc.w	r1, r1, #1048576	; 0x100000
1a00381a:	bd30      	popcc	{r4, r5, pc}
1a00381c:	f001 4500 	and.w	r5, r1, #2147483648	; 0x80000000
1a003820:	f045 41fe 	orr.w	r1, r5, #2130706432	; 0x7f000000
1a003824:	f441 0170 	orr.w	r1, r1, #15728640	; 0xf00000
1a003828:	f04f 0000 	mov.w	r0, #0
1a00382c:	bd30      	pop	{r4, r5, pc}
1a00382e:	ea7f 5c64 	mvns.w	ip, r4, asr #21
1a003832:	bf1a      	itte	ne
1a003834:	4619      	movne	r1, r3
1a003836:	4610      	movne	r0, r2
1a003838:	ea7f 5c65 	mvnseq.w	ip, r5, asr #21
1a00383c:	bf1c      	itt	ne
1a00383e:	460b      	movne	r3, r1
1a003840:	4602      	movne	r2, r0
1a003842:	ea50 3401 	orrs.w	r4, r0, r1, lsl #12
1a003846:	bf06      	itte	eq
1a003848:	ea52 3503 	orrseq.w	r5, r2, r3, lsl #12
1a00384c:	ea91 0f03 	teqeq	r1, r3
1a003850:	f441 2100 	orrne.w	r1, r1, #524288	; 0x80000
1a003854:	bd30      	pop	{r4, r5, pc}
1a003856:	bf00      	nop

1a003858 <__aeabi_ui2d>:
1a003858:	f090 0f00 	teq	r0, #0
1a00385c:	bf04      	itt	eq
1a00385e:	2100      	moveq	r1, #0
1a003860:	4770      	bxeq	lr
1a003862:	b530      	push	{r4, r5, lr}
1a003864:	f44f 6480 	mov.w	r4, #1024	; 0x400
1a003868:	f104 0432 	add.w	r4, r4, #50	; 0x32
1a00386c:	f04f 0500 	mov.w	r5, #0
1a003870:	f04f 0100 	mov.w	r1, #0
1a003874:	e750      	b.n	1a003718 <__adddf3+0x138>
1a003876:	bf00      	nop

1a003878 <__aeabi_i2d>:
1a003878:	f090 0f00 	teq	r0, #0
1a00387c:	bf04      	itt	eq
1a00387e:	2100      	moveq	r1, #0
1a003880:	4770      	bxeq	lr
1a003882:	b530      	push	{r4, r5, lr}
1a003884:	f44f 6480 	mov.w	r4, #1024	; 0x400
1a003888:	f104 0432 	add.w	r4, r4, #50	; 0x32
1a00388c:	f010 4500 	ands.w	r5, r0, #2147483648	; 0x80000000
1a003890:	bf48      	it	mi
1a003892:	4240      	negmi	r0, r0
1a003894:	f04f 0100 	mov.w	r1, #0
1a003898:	e73e      	b.n	1a003718 <__adddf3+0x138>
1a00389a:	bf00      	nop

1a00389c <__aeabi_f2d>:
1a00389c:	0042      	lsls	r2, r0, #1
1a00389e:	ea4f 01e2 	mov.w	r1, r2, asr #3
1a0038a2:	ea4f 0131 	mov.w	r1, r1, rrx
1a0038a6:	ea4f 7002 	mov.w	r0, r2, lsl #28
1a0038aa:	bf1f      	itttt	ne
1a0038ac:	f012 437f 	andsne.w	r3, r2, #4278190080	; 0xff000000
1a0038b0:	f093 4f7f 	teqne	r3, #4278190080	; 0xff000000
1a0038b4:	f081 5160 	eorne.w	r1, r1, #939524096	; 0x38000000
1a0038b8:	4770      	bxne	lr
1a0038ba:	f032 427f 	bics.w	r2, r2, #4278190080	; 0xff000000
1a0038be:	bf08      	it	eq
1a0038c0:	4770      	bxeq	lr
1a0038c2:	f093 4f7f 	teq	r3, #4278190080	; 0xff000000
1a0038c6:	bf04      	itt	eq
1a0038c8:	f441 2100 	orreq.w	r1, r1, #524288	; 0x80000
1a0038cc:	4770      	bxeq	lr
1a0038ce:	b530      	push	{r4, r5, lr}
1a0038d0:	f44f 7460 	mov.w	r4, #896	; 0x380
1a0038d4:	f001 4500 	and.w	r5, r1, #2147483648	; 0x80000000
1a0038d8:	f021 4100 	bic.w	r1, r1, #2147483648	; 0x80000000
1a0038dc:	e71c      	b.n	1a003718 <__adddf3+0x138>
1a0038de:	bf00      	nop

1a0038e0 <__aeabi_ul2d>:
1a0038e0:	ea50 0201 	orrs.w	r2, r0, r1
1a0038e4:	bf08      	it	eq
1a0038e6:	4770      	bxeq	lr
1a0038e8:	b530      	push	{r4, r5, lr}
1a0038ea:	f04f 0500 	mov.w	r5, #0
1a0038ee:	e00a      	b.n	1a003906 <__aeabi_l2d+0x16>

1a0038f0 <__aeabi_l2d>:
1a0038f0:	ea50 0201 	orrs.w	r2, r0, r1
1a0038f4:	bf08      	it	eq
1a0038f6:	4770      	bxeq	lr
1a0038f8:	b530      	push	{r4, r5, lr}
1a0038fa:	f011 4500 	ands.w	r5, r1, #2147483648	; 0x80000000
1a0038fe:	d502      	bpl.n	1a003906 <__aeabi_l2d+0x16>
1a003900:	4240      	negs	r0, r0
1a003902:	eb61 0141 	sbc.w	r1, r1, r1, lsl #1
1a003906:	f44f 6480 	mov.w	r4, #1024	; 0x400
1a00390a:	f104 0432 	add.w	r4, r4, #50	; 0x32
1a00390e:	ea5f 5c91 	movs.w	ip, r1, lsr #22
1a003912:	f43f aed8 	beq.w	1a0036c6 <__adddf3+0xe6>
1a003916:	f04f 0203 	mov.w	r2, #3
1a00391a:	ea5f 0cdc 	movs.w	ip, ip, lsr #3
1a00391e:	bf18      	it	ne
1a003920:	3203      	addne	r2, #3
1a003922:	ea5f 0cdc 	movs.w	ip, ip, lsr #3
1a003926:	bf18      	it	ne
1a003928:	3203      	addne	r2, #3
1a00392a:	eb02 02dc 	add.w	r2, r2, ip, lsr #3
1a00392e:	f1c2 0320 	rsb	r3, r2, #32
1a003932:	fa00 fc03 	lsl.w	ip, r0, r3
1a003936:	fa20 f002 	lsr.w	r0, r0, r2
1a00393a:	fa01 fe03 	lsl.w	lr, r1, r3
1a00393e:	ea40 000e 	orr.w	r0, r0, lr
1a003942:	fa21 f102 	lsr.w	r1, r1, r2
1a003946:	4414      	add	r4, r2
1a003948:	e6bd      	b.n	1a0036c6 <__adddf3+0xe6>
1a00394a:	bf00      	nop

1a00394c <__aeabi_dmul>:
1a00394c:	b570      	push	{r4, r5, r6, lr}
1a00394e:	f04f 0cff 	mov.w	ip, #255	; 0xff
1a003952:	f44c 6ce0 	orr.w	ip, ip, #1792	; 0x700
1a003956:	ea1c 5411 	ands.w	r4, ip, r1, lsr #20
1a00395a:	bf1d      	ittte	ne
1a00395c:	ea1c 5513 	andsne.w	r5, ip, r3, lsr #20
1a003960:	ea94 0f0c 	teqne	r4, ip
1a003964:	ea95 0f0c 	teqne	r5, ip
1a003968:	f000 f8de 	bleq	1a003b28 <__aeabi_dmul+0x1dc>
1a00396c:	442c      	add	r4, r5
1a00396e:	ea81 0603 	eor.w	r6, r1, r3
1a003972:	ea21 514c 	bic.w	r1, r1, ip, lsl #21
1a003976:	ea23 534c 	bic.w	r3, r3, ip, lsl #21
1a00397a:	ea50 3501 	orrs.w	r5, r0, r1, lsl #12
1a00397e:	bf18      	it	ne
1a003980:	ea52 3503 	orrsne.w	r5, r2, r3, lsl #12
1a003984:	f441 1180 	orr.w	r1, r1, #1048576	; 0x100000
1a003988:	f443 1380 	orr.w	r3, r3, #1048576	; 0x100000
1a00398c:	d038      	beq.n	1a003a00 <__aeabi_dmul+0xb4>
1a00398e:	fba0 ce02 	umull	ip, lr, r0, r2
1a003992:	f04f 0500 	mov.w	r5, #0
1a003996:	fbe1 e502 	umlal	lr, r5, r1, r2
1a00399a:	f006 4200 	and.w	r2, r6, #2147483648	; 0x80000000
1a00399e:	fbe0 e503 	umlal	lr, r5, r0, r3
1a0039a2:	f04f 0600 	mov.w	r6, #0
1a0039a6:	fbe1 5603 	umlal	r5, r6, r1, r3
1a0039aa:	f09c 0f00 	teq	ip, #0
1a0039ae:	bf18      	it	ne
1a0039b0:	f04e 0e01 	orrne.w	lr, lr, #1
1a0039b4:	f1a4 04ff 	sub.w	r4, r4, #255	; 0xff
1a0039b8:	f5b6 7f00 	cmp.w	r6, #512	; 0x200
1a0039bc:	f564 7440 	sbc.w	r4, r4, #768	; 0x300
1a0039c0:	d204      	bcs.n	1a0039cc <__aeabi_dmul+0x80>
1a0039c2:	ea5f 0e4e 	movs.w	lr, lr, lsl #1
1a0039c6:	416d      	adcs	r5, r5
1a0039c8:	eb46 0606 	adc.w	r6, r6, r6
1a0039cc:	ea42 21c6 	orr.w	r1, r2, r6, lsl #11
1a0039d0:	ea41 5155 	orr.w	r1, r1, r5, lsr #21
1a0039d4:	ea4f 20c5 	mov.w	r0, r5, lsl #11
1a0039d8:	ea40 505e 	orr.w	r0, r0, lr, lsr #21
1a0039dc:	ea4f 2ece 	mov.w	lr, lr, lsl #11
1a0039e0:	f1b4 0cfd 	subs.w	ip, r4, #253	; 0xfd
1a0039e4:	bf88      	it	hi
1a0039e6:	f5bc 6fe0 	cmphi.w	ip, #1792	; 0x700
1a0039ea:	d81e      	bhi.n	1a003a2a <__aeabi_dmul+0xde>
1a0039ec:	f1be 4f00 	cmp.w	lr, #2147483648	; 0x80000000
1a0039f0:	bf08      	it	eq
1a0039f2:	ea5f 0e50 	movseq.w	lr, r0, lsr #1
1a0039f6:	f150 0000 	adcs.w	r0, r0, #0
1a0039fa:	eb41 5104 	adc.w	r1, r1, r4, lsl #20
1a0039fe:	bd70      	pop	{r4, r5, r6, pc}
1a003a00:	f006 4600 	and.w	r6, r6, #2147483648	; 0x80000000
1a003a04:	ea46 0101 	orr.w	r1, r6, r1
1a003a08:	ea40 0002 	orr.w	r0, r0, r2
1a003a0c:	ea81 0103 	eor.w	r1, r1, r3
1a003a10:	ebb4 045c 	subs.w	r4, r4, ip, lsr #1
1a003a14:	bfc2      	ittt	gt
1a003a16:	ebd4 050c 	rsbsgt	r5, r4, ip
1a003a1a:	ea41 5104 	orrgt.w	r1, r1, r4, lsl #20
1a003a1e:	bd70      	popgt	{r4, r5, r6, pc}
1a003a20:	f441 1180 	orr.w	r1, r1, #1048576	; 0x100000
1a003a24:	f04f 0e00 	mov.w	lr, #0
1a003a28:	3c01      	subs	r4, #1
1a003a2a:	f300 80ab 	bgt.w	1a003b84 <__aeabi_dmul+0x238>
1a003a2e:	f114 0f36 	cmn.w	r4, #54	; 0x36
1a003a32:	bfde      	ittt	le
1a003a34:	2000      	movle	r0, #0
1a003a36:	f001 4100 	andle.w	r1, r1, #2147483648	; 0x80000000
1a003a3a:	bd70      	pople	{r4, r5, r6, pc}
1a003a3c:	f1c4 0400 	rsb	r4, r4, #0
1a003a40:	3c20      	subs	r4, #32
1a003a42:	da35      	bge.n	1a003ab0 <__aeabi_dmul+0x164>
1a003a44:	340c      	adds	r4, #12
1a003a46:	dc1b      	bgt.n	1a003a80 <__aeabi_dmul+0x134>
1a003a48:	f104 0414 	add.w	r4, r4, #20
1a003a4c:	f1c4 0520 	rsb	r5, r4, #32
1a003a50:	fa00 f305 	lsl.w	r3, r0, r5
1a003a54:	fa20 f004 	lsr.w	r0, r0, r4
1a003a58:	fa01 f205 	lsl.w	r2, r1, r5
1a003a5c:	ea40 0002 	orr.w	r0, r0, r2
1a003a60:	f001 4200 	and.w	r2, r1, #2147483648	; 0x80000000
1a003a64:	f021 4100 	bic.w	r1, r1, #2147483648	; 0x80000000
1a003a68:	eb10 70d3 	adds.w	r0, r0, r3, lsr #31
1a003a6c:	fa21 f604 	lsr.w	r6, r1, r4
1a003a70:	eb42 0106 	adc.w	r1, r2, r6
1a003a74:	ea5e 0e43 	orrs.w	lr, lr, r3, lsl #1
1a003a78:	bf08      	it	eq
1a003a7a:	ea20 70d3 	biceq.w	r0, r0, r3, lsr #31
1a003a7e:	bd70      	pop	{r4, r5, r6, pc}
1a003a80:	f1c4 040c 	rsb	r4, r4, #12
1a003a84:	f1c4 0520 	rsb	r5, r4, #32
1a003a88:	fa00 f304 	lsl.w	r3, r0, r4
1a003a8c:	fa20 f005 	lsr.w	r0, r0, r5
1a003a90:	fa01 f204 	lsl.w	r2, r1, r4
1a003a94:	ea40 0002 	orr.w	r0, r0, r2
1a003a98:	f001 4100 	and.w	r1, r1, #2147483648	; 0x80000000
1a003a9c:	eb10 70d3 	adds.w	r0, r0, r3, lsr #31
1a003aa0:	f141 0100 	adc.w	r1, r1, #0
1a003aa4:	ea5e 0e43 	orrs.w	lr, lr, r3, lsl #1
1a003aa8:	bf08      	it	eq
1a003aaa:	ea20 70d3 	biceq.w	r0, r0, r3, lsr #31
1a003aae:	bd70      	pop	{r4, r5, r6, pc}
1a003ab0:	f1c4 0520 	rsb	r5, r4, #32
1a003ab4:	fa00 f205 	lsl.w	r2, r0, r5
1a003ab8:	ea4e 0e02 	orr.w	lr, lr, r2
1a003abc:	fa20 f304 	lsr.w	r3, r0, r4
1a003ac0:	fa01 f205 	lsl.w	r2, r1, r5
1a003ac4:	ea43 0302 	orr.w	r3, r3, r2
1a003ac8:	fa21 f004 	lsr.w	r0, r1, r4
1a003acc:	f001 4100 	and.w	r1, r1, #2147483648	; 0x80000000
1a003ad0:	fa21 f204 	lsr.w	r2, r1, r4
1a003ad4:	ea20 0002 	bic.w	r0, r0, r2
1a003ad8:	eb00 70d3 	add.w	r0, r0, r3, lsr #31
1a003adc:	ea5e 0e43 	orrs.w	lr, lr, r3, lsl #1
1a003ae0:	bf08      	it	eq
1a003ae2:	ea20 70d3 	biceq.w	r0, r0, r3, lsr #31
1a003ae6:	bd70      	pop	{r4, r5, r6, pc}
1a003ae8:	f094 0f00 	teq	r4, #0
1a003aec:	d10f      	bne.n	1a003b0e <__aeabi_dmul+0x1c2>
1a003aee:	f001 4600 	and.w	r6, r1, #2147483648	; 0x80000000
1a003af2:	0040      	lsls	r0, r0, #1
1a003af4:	eb41 0101 	adc.w	r1, r1, r1
1a003af8:	f411 1f80 	tst.w	r1, #1048576	; 0x100000
1a003afc:	bf08      	it	eq
1a003afe:	3c01      	subeq	r4, #1
1a003b00:	d0f7      	beq.n	1a003af2 <__aeabi_dmul+0x1a6>
1a003b02:	ea41 0106 	orr.w	r1, r1, r6
1a003b06:	f095 0f00 	teq	r5, #0
1a003b0a:	bf18      	it	ne
1a003b0c:	4770      	bxne	lr
1a003b0e:	f003 4600 	and.w	r6, r3, #2147483648	; 0x80000000
1a003b12:	0052      	lsls	r2, r2, #1
1a003b14:	eb43 0303 	adc.w	r3, r3, r3
1a003b18:	f413 1f80 	tst.w	r3, #1048576	; 0x100000
1a003b1c:	bf08      	it	eq
1a003b1e:	3d01      	subeq	r5, #1
1a003b20:	d0f7      	beq.n	1a003b12 <__aeabi_dmul+0x1c6>
1a003b22:	ea43 0306 	orr.w	r3, r3, r6
1a003b26:	4770      	bx	lr
1a003b28:	ea94 0f0c 	teq	r4, ip
1a003b2c:	ea0c 5513 	and.w	r5, ip, r3, lsr #20
1a003b30:	bf18      	it	ne
1a003b32:	ea95 0f0c 	teqne	r5, ip
1a003b36:	d00c      	beq.n	1a003b52 <__aeabi_dmul+0x206>
1a003b38:	ea50 0641 	orrs.w	r6, r0, r1, lsl #1
1a003b3c:	bf18      	it	ne
1a003b3e:	ea52 0643 	orrsne.w	r6, r2, r3, lsl #1
1a003b42:	d1d1      	bne.n	1a003ae8 <__aeabi_dmul+0x19c>
1a003b44:	ea81 0103 	eor.w	r1, r1, r3
1a003b48:	f001 4100 	and.w	r1, r1, #2147483648	; 0x80000000
1a003b4c:	f04f 0000 	mov.w	r0, #0
1a003b50:	bd70      	pop	{r4, r5, r6, pc}
1a003b52:	ea50 0641 	orrs.w	r6, r0, r1, lsl #1
1a003b56:	bf06      	itte	eq
1a003b58:	4610      	moveq	r0, r2
1a003b5a:	4619      	moveq	r1, r3
1a003b5c:	ea52 0643 	orrsne.w	r6, r2, r3, lsl #1
1a003b60:	d019      	beq.n	1a003b96 <__aeabi_dmul+0x24a>
1a003b62:	ea94 0f0c 	teq	r4, ip
1a003b66:	d102      	bne.n	1a003b6e <__aeabi_dmul+0x222>
1a003b68:	ea50 3601 	orrs.w	r6, r0, r1, lsl #12
1a003b6c:	d113      	bne.n	1a003b96 <__aeabi_dmul+0x24a>
1a003b6e:	ea95 0f0c 	teq	r5, ip
1a003b72:	d105      	bne.n	1a003b80 <__aeabi_dmul+0x234>
1a003b74:	ea52 3603 	orrs.w	r6, r2, r3, lsl #12
1a003b78:	bf1c      	itt	ne
1a003b7a:	4610      	movne	r0, r2
1a003b7c:	4619      	movne	r1, r3
1a003b7e:	d10a      	bne.n	1a003b96 <__aeabi_dmul+0x24a>
1a003b80:	ea81 0103 	eor.w	r1, r1, r3
1a003b84:	f001 4100 	and.w	r1, r1, #2147483648	; 0x80000000
1a003b88:	f041 41fe 	orr.w	r1, r1, #2130706432	; 0x7f000000
1a003b8c:	f441 0170 	orr.w	r1, r1, #15728640	; 0xf00000
1a003b90:	f04f 0000 	mov.w	r0, #0
1a003b94:	bd70      	pop	{r4, r5, r6, pc}
1a003b96:	f041 41fe 	orr.w	r1, r1, #2130706432	; 0x7f000000
1a003b9a:	f441 0178 	orr.w	r1, r1, #16252928	; 0xf80000
1a003b9e:	bd70      	pop	{r4, r5, r6, pc}

1a003ba0 <__aeabi_ddiv>:
1a003ba0:	b570      	push	{r4, r5, r6, lr}
1a003ba2:	f04f 0cff 	mov.w	ip, #255	; 0xff
1a003ba6:	f44c 6ce0 	orr.w	ip, ip, #1792	; 0x700
1a003baa:	ea1c 5411 	ands.w	r4, ip, r1, lsr #20
1a003bae:	bf1d      	ittte	ne
1a003bb0:	ea1c 5513 	andsne.w	r5, ip, r3, lsr #20
1a003bb4:	ea94 0f0c 	teqne	r4, ip
1a003bb8:	ea95 0f0c 	teqne	r5, ip
1a003bbc:	f000 f8a7 	bleq	1a003d0e <__aeabi_ddiv+0x16e>
1a003bc0:	eba4 0405 	sub.w	r4, r4, r5
1a003bc4:	ea81 0e03 	eor.w	lr, r1, r3
1a003bc8:	ea52 3503 	orrs.w	r5, r2, r3, lsl #12
1a003bcc:	ea4f 3101 	mov.w	r1, r1, lsl #12
1a003bd0:	f000 8088 	beq.w	1a003ce4 <__aeabi_ddiv+0x144>
1a003bd4:	ea4f 3303 	mov.w	r3, r3, lsl #12
1a003bd8:	f04f 5580 	mov.w	r5, #268435456	; 0x10000000
1a003bdc:	ea45 1313 	orr.w	r3, r5, r3, lsr #4
1a003be0:	ea43 6312 	orr.w	r3, r3, r2, lsr #24
1a003be4:	ea4f 2202 	mov.w	r2, r2, lsl #8
1a003be8:	ea45 1511 	orr.w	r5, r5, r1, lsr #4
1a003bec:	ea45 6510 	orr.w	r5, r5, r0, lsr #24
1a003bf0:	ea4f 2600 	mov.w	r6, r0, lsl #8
1a003bf4:	f00e 4100 	and.w	r1, lr, #2147483648	; 0x80000000
1a003bf8:	429d      	cmp	r5, r3
1a003bfa:	bf08      	it	eq
1a003bfc:	4296      	cmpeq	r6, r2
1a003bfe:	f144 04fd 	adc.w	r4, r4, #253	; 0xfd
1a003c02:	f504 7440 	add.w	r4, r4, #768	; 0x300
1a003c06:	d202      	bcs.n	1a003c0e <__aeabi_ddiv+0x6e>
1a003c08:	085b      	lsrs	r3, r3, #1
1a003c0a:	ea4f 0232 	mov.w	r2, r2, rrx
1a003c0e:	1ab6      	subs	r6, r6, r2
1a003c10:	eb65 0503 	sbc.w	r5, r5, r3
1a003c14:	085b      	lsrs	r3, r3, #1
1a003c16:	ea4f 0232 	mov.w	r2, r2, rrx
1a003c1a:	f44f 1080 	mov.w	r0, #1048576	; 0x100000
1a003c1e:	f44f 2c00 	mov.w	ip, #524288	; 0x80000
1a003c22:	ebb6 0e02 	subs.w	lr, r6, r2
1a003c26:	eb75 0e03 	sbcs.w	lr, r5, r3
1a003c2a:	bf22      	ittt	cs
1a003c2c:	1ab6      	subcs	r6, r6, r2
1a003c2e:	4675      	movcs	r5, lr
1a003c30:	ea40 000c 	orrcs.w	r0, r0, ip
1a003c34:	085b      	lsrs	r3, r3, #1
1a003c36:	ea4f 0232 	mov.w	r2, r2, rrx
1a003c3a:	ebb6 0e02 	subs.w	lr, r6, r2
1a003c3e:	eb75 0e03 	sbcs.w	lr, r5, r3
1a003c42:	bf22      	ittt	cs
1a003c44:	1ab6      	subcs	r6, r6, r2
1a003c46:	4675      	movcs	r5, lr
1a003c48:	ea40 005c 	orrcs.w	r0, r0, ip, lsr #1
1a003c4c:	085b      	lsrs	r3, r3, #1
1a003c4e:	ea4f 0232 	mov.w	r2, r2, rrx
1a003c52:	ebb6 0e02 	subs.w	lr, r6, r2
1a003c56:	eb75 0e03 	sbcs.w	lr, r5, r3
1a003c5a:	bf22      	ittt	cs
1a003c5c:	1ab6      	subcs	r6, r6, r2
1a003c5e:	4675      	movcs	r5, lr
1a003c60:	ea40 009c 	orrcs.w	r0, r0, ip, lsr #2
1a003c64:	085b      	lsrs	r3, r3, #1
1a003c66:	ea4f 0232 	mov.w	r2, r2, rrx
1a003c6a:	ebb6 0e02 	subs.w	lr, r6, r2
1a003c6e:	eb75 0e03 	sbcs.w	lr, r5, r3
1a003c72:	bf22      	ittt	cs
1a003c74:	1ab6      	subcs	r6, r6, r2
1a003c76:	4675      	movcs	r5, lr
1a003c78:	ea40 00dc 	orrcs.w	r0, r0, ip, lsr #3
1a003c7c:	ea55 0e06 	orrs.w	lr, r5, r6
1a003c80:	d018      	beq.n	1a003cb4 <__aeabi_ddiv+0x114>
1a003c82:	ea4f 1505 	mov.w	r5, r5, lsl #4
1a003c86:	ea45 7516 	orr.w	r5, r5, r6, lsr #28
1a003c8a:	ea4f 1606 	mov.w	r6, r6, lsl #4
1a003c8e:	ea4f 03c3 	mov.w	r3, r3, lsl #3
1a003c92:	ea43 7352 	orr.w	r3, r3, r2, lsr #29
1a003c96:	ea4f 02c2 	mov.w	r2, r2, lsl #3
1a003c9a:	ea5f 1c1c 	movs.w	ip, ip, lsr #4
1a003c9e:	d1c0      	bne.n	1a003c22 <__aeabi_ddiv+0x82>
1a003ca0:	f411 1f80 	tst.w	r1, #1048576	; 0x100000
1a003ca4:	d10b      	bne.n	1a003cbe <__aeabi_ddiv+0x11e>
1a003ca6:	ea41 0100 	orr.w	r1, r1, r0
1a003caa:	f04f 0000 	mov.w	r0, #0
1a003cae:	f04f 4c00 	mov.w	ip, #2147483648	; 0x80000000
1a003cb2:	e7b6      	b.n	1a003c22 <__aeabi_ddiv+0x82>
1a003cb4:	f411 1f80 	tst.w	r1, #1048576	; 0x100000
1a003cb8:	bf04      	itt	eq
1a003cba:	4301      	orreq	r1, r0
1a003cbc:	2000      	moveq	r0, #0
1a003cbe:	f1b4 0cfd 	subs.w	ip, r4, #253	; 0xfd
1a003cc2:	bf88      	it	hi
1a003cc4:	f5bc 6fe0 	cmphi.w	ip, #1792	; 0x700
1a003cc8:	f63f aeaf 	bhi.w	1a003a2a <__aeabi_dmul+0xde>
1a003ccc:	ebb5 0c03 	subs.w	ip, r5, r3
1a003cd0:	bf04      	itt	eq
1a003cd2:	ebb6 0c02 	subseq.w	ip, r6, r2
1a003cd6:	ea5f 0c50 	movseq.w	ip, r0, lsr #1
1a003cda:	f150 0000 	adcs.w	r0, r0, #0
1a003cde:	eb41 5104 	adc.w	r1, r1, r4, lsl #20
1a003ce2:	bd70      	pop	{r4, r5, r6, pc}
1a003ce4:	f00e 4e00 	and.w	lr, lr, #2147483648	; 0x80000000
1a003ce8:	ea4e 3111 	orr.w	r1, lr, r1, lsr #12
1a003cec:	eb14 045c 	adds.w	r4, r4, ip, lsr #1
1a003cf0:	bfc2      	ittt	gt
1a003cf2:	ebd4 050c 	rsbsgt	r5, r4, ip
1a003cf6:	ea41 5104 	orrgt.w	r1, r1, r4, lsl #20
1a003cfa:	bd70      	popgt	{r4, r5, r6, pc}
1a003cfc:	f441 1180 	orr.w	r1, r1, #1048576	; 0x100000
1a003d00:	f04f 0e00 	mov.w	lr, #0
1a003d04:	3c01      	subs	r4, #1
1a003d06:	e690      	b.n	1a003a2a <__aeabi_dmul+0xde>
1a003d08:	ea45 0e06 	orr.w	lr, r5, r6
1a003d0c:	e68d      	b.n	1a003a2a <__aeabi_dmul+0xde>
1a003d0e:	ea0c 5513 	and.w	r5, ip, r3, lsr #20
1a003d12:	ea94 0f0c 	teq	r4, ip
1a003d16:	bf08      	it	eq
1a003d18:	ea95 0f0c 	teqeq	r5, ip
1a003d1c:	f43f af3b 	beq.w	1a003b96 <__aeabi_dmul+0x24a>
1a003d20:	ea94 0f0c 	teq	r4, ip
1a003d24:	d10a      	bne.n	1a003d3c <__aeabi_ddiv+0x19c>
1a003d26:	ea50 3401 	orrs.w	r4, r0, r1, lsl #12
1a003d2a:	f47f af34 	bne.w	1a003b96 <__aeabi_dmul+0x24a>
1a003d2e:	ea95 0f0c 	teq	r5, ip
1a003d32:	f47f af25 	bne.w	1a003b80 <__aeabi_dmul+0x234>
1a003d36:	4610      	mov	r0, r2
1a003d38:	4619      	mov	r1, r3
1a003d3a:	e72c      	b.n	1a003b96 <__aeabi_dmul+0x24a>
1a003d3c:	ea95 0f0c 	teq	r5, ip
1a003d40:	d106      	bne.n	1a003d50 <__aeabi_ddiv+0x1b0>
1a003d42:	ea52 3503 	orrs.w	r5, r2, r3, lsl #12
1a003d46:	f43f aefd 	beq.w	1a003b44 <__aeabi_dmul+0x1f8>
1a003d4a:	4610      	mov	r0, r2
1a003d4c:	4619      	mov	r1, r3
1a003d4e:	e722      	b.n	1a003b96 <__aeabi_dmul+0x24a>
1a003d50:	ea50 0641 	orrs.w	r6, r0, r1, lsl #1
1a003d54:	bf18      	it	ne
1a003d56:	ea52 0643 	orrsne.w	r6, r2, r3, lsl #1
1a003d5a:	f47f aec5 	bne.w	1a003ae8 <__aeabi_dmul+0x19c>
1a003d5e:	ea50 0441 	orrs.w	r4, r0, r1, lsl #1
1a003d62:	f47f af0d 	bne.w	1a003b80 <__aeabi_dmul+0x234>
1a003d66:	ea52 0543 	orrs.w	r5, r2, r3, lsl #1
1a003d6a:	f47f aeeb 	bne.w	1a003b44 <__aeabi_dmul+0x1f8>
1a003d6e:	e712      	b.n	1a003b96 <__aeabi_dmul+0x24a>

1a003d70 <__gedf2>:
1a003d70:	f04f 3cff 	mov.w	ip, #4294967295
1a003d74:	e006      	b.n	1a003d84 <__cmpdf2+0x4>
1a003d76:	bf00      	nop

1a003d78 <__ledf2>:
1a003d78:	f04f 0c01 	mov.w	ip, #1
1a003d7c:	e002      	b.n	1a003d84 <__cmpdf2+0x4>
1a003d7e:	bf00      	nop

1a003d80 <__cmpdf2>:
1a003d80:	f04f 0c01 	mov.w	ip, #1
1a003d84:	f84d cd04 	str.w	ip, [sp, #-4]!
1a003d88:	ea4f 0c41 	mov.w	ip, r1, lsl #1
1a003d8c:	ea7f 5c6c 	mvns.w	ip, ip, asr #21
1a003d90:	ea4f 0c43 	mov.w	ip, r3, lsl #1
1a003d94:	bf18      	it	ne
1a003d96:	ea7f 5c6c 	mvnsne.w	ip, ip, asr #21
1a003d9a:	d01b      	beq.n	1a003dd4 <__cmpdf2+0x54>
1a003d9c:	b001      	add	sp, #4
1a003d9e:	ea50 0c41 	orrs.w	ip, r0, r1, lsl #1
1a003da2:	bf0c      	ite	eq
1a003da4:	ea52 0c43 	orrseq.w	ip, r2, r3, lsl #1
1a003da8:	ea91 0f03 	teqne	r1, r3
1a003dac:	bf02      	ittt	eq
1a003dae:	ea90 0f02 	teqeq	r0, r2
1a003db2:	2000      	moveq	r0, #0
1a003db4:	4770      	bxeq	lr
1a003db6:	f110 0f00 	cmn.w	r0, #0
1a003dba:	ea91 0f03 	teq	r1, r3
1a003dbe:	bf58      	it	pl
1a003dc0:	4299      	cmppl	r1, r3
1a003dc2:	bf08      	it	eq
1a003dc4:	4290      	cmpeq	r0, r2
1a003dc6:	bf2c      	ite	cs
1a003dc8:	17d8      	asrcs	r0, r3, #31
1a003dca:	ea6f 70e3 	mvncc.w	r0, r3, asr #31
1a003dce:	f040 0001 	orr.w	r0, r0, #1
1a003dd2:	4770      	bx	lr
1a003dd4:	ea4f 0c41 	mov.w	ip, r1, lsl #1
1a003dd8:	ea7f 5c6c 	mvns.w	ip, ip, asr #21
1a003ddc:	d102      	bne.n	1a003de4 <__cmpdf2+0x64>
1a003dde:	ea50 3c01 	orrs.w	ip, r0, r1, lsl #12
1a003de2:	d107      	bne.n	1a003df4 <__cmpdf2+0x74>
1a003de4:	ea4f 0c43 	mov.w	ip, r3, lsl #1
1a003de8:	ea7f 5c6c 	mvns.w	ip, ip, asr #21
1a003dec:	d1d6      	bne.n	1a003d9c <__cmpdf2+0x1c>
1a003dee:	ea52 3c03 	orrs.w	ip, r2, r3, lsl #12
1a003df2:	d0d3      	beq.n	1a003d9c <__cmpdf2+0x1c>
1a003df4:	f85d 0b04 	ldr.w	r0, [sp], #4
1a003df8:	4770      	bx	lr
1a003dfa:	bf00      	nop

1a003dfc <__aeabi_cdrcmple>:
1a003dfc:	4684      	mov	ip, r0
1a003dfe:	4610      	mov	r0, r2
1a003e00:	4662      	mov	r2, ip
1a003e02:	468c      	mov	ip, r1
1a003e04:	4619      	mov	r1, r3
1a003e06:	4663      	mov	r3, ip
1a003e08:	e000      	b.n	1a003e0c <__aeabi_cdcmpeq>
1a003e0a:	bf00      	nop

1a003e0c <__aeabi_cdcmpeq>:
1a003e0c:	b501      	push	{r0, lr}
1a003e0e:	f7ff ffb7 	bl	1a003d80 <__cmpdf2>
1a003e12:	2800      	cmp	r0, #0
1a003e14:	bf48      	it	mi
1a003e16:	f110 0f00 	cmnmi.w	r0, #0
1a003e1a:	bd01      	pop	{r0, pc}

1a003e1c <__aeabi_dcmpeq>:
1a003e1c:	f84d ed08 	str.w	lr, [sp, #-8]!
1a003e20:	f7ff fff4 	bl	1a003e0c <__aeabi_cdcmpeq>
1a003e24:	bf0c      	ite	eq
1a003e26:	2001      	moveq	r0, #1
1a003e28:	2000      	movne	r0, #0
1a003e2a:	f85d fb08 	ldr.w	pc, [sp], #8
1a003e2e:	bf00      	nop

1a003e30 <__aeabi_dcmplt>:
1a003e30:	f84d ed08 	str.w	lr, [sp, #-8]!
1a003e34:	f7ff ffea 	bl	1a003e0c <__aeabi_cdcmpeq>
1a003e38:	bf34      	ite	cc
1a003e3a:	2001      	movcc	r0, #1
1a003e3c:	2000      	movcs	r0, #0
1a003e3e:	f85d fb08 	ldr.w	pc, [sp], #8
1a003e42:	bf00      	nop

1a003e44 <__aeabi_dcmple>:
1a003e44:	f84d ed08 	str.w	lr, [sp, #-8]!
1a003e48:	f7ff ffe0 	bl	1a003e0c <__aeabi_cdcmpeq>
1a003e4c:	bf94      	ite	ls
1a003e4e:	2001      	movls	r0, #1
1a003e50:	2000      	movhi	r0, #0
1a003e52:	f85d fb08 	ldr.w	pc, [sp], #8
1a003e56:	bf00      	nop

1a003e58 <__aeabi_dcmpge>:
1a003e58:	f84d ed08 	str.w	lr, [sp, #-8]!
1a003e5c:	f7ff ffce 	bl	1a003dfc <__aeabi_cdrcmple>
1a003e60:	bf94      	ite	ls
1a003e62:	2001      	movls	r0, #1
1a003e64:	2000      	movhi	r0, #0
1a003e66:	f85d fb08 	ldr.w	pc, [sp], #8
1a003e6a:	bf00      	nop

1a003e6c <__aeabi_dcmpgt>:
1a003e6c:	f84d ed08 	str.w	lr, [sp, #-8]!
1a003e70:	f7ff ffc4 	bl	1a003dfc <__aeabi_cdrcmple>
1a003e74:	bf34      	ite	cc
1a003e76:	2001      	movcc	r0, #1
1a003e78:	2000      	movcs	r0, #0
1a003e7a:	f85d fb08 	ldr.w	pc, [sp], #8
1a003e7e:	bf00      	nop

1a003e80 <__aeabi_dcmpun>:
1a003e80:	ea4f 0c41 	mov.w	ip, r1, lsl #1
1a003e84:	ea7f 5c6c 	mvns.w	ip, ip, asr #21
1a003e88:	d102      	bne.n	1a003e90 <__aeabi_dcmpun+0x10>
1a003e8a:	ea50 3c01 	orrs.w	ip, r0, r1, lsl #12
1a003e8e:	d10a      	bne.n	1a003ea6 <__aeabi_dcmpun+0x26>
1a003e90:	ea4f 0c43 	mov.w	ip, r3, lsl #1
1a003e94:	ea7f 5c6c 	mvns.w	ip, ip, asr #21
1a003e98:	d102      	bne.n	1a003ea0 <__aeabi_dcmpun+0x20>
1a003e9a:	ea52 3c03 	orrs.w	ip, r2, r3, lsl #12
1a003e9e:	d102      	bne.n	1a003ea6 <__aeabi_dcmpun+0x26>
1a003ea0:	f04f 0000 	mov.w	r0, #0
1a003ea4:	4770      	bx	lr
1a003ea6:	f04f 0001 	mov.w	r0, #1
1a003eaa:	4770      	bx	lr

1a003eac <__aeabi_d2iz>:
1a003eac:	ea4f 0241 	mov.w	r2, r1, lsl #1
1a003eb0:	f512 1200 	adds.w	r2, r2, #2097152	; 0x200000
1a003eb4:	d215      	bcs.n	1a003ee2 <__aeabi_d2iz+0x36>
1a003eb6:	d511      	bpl.n	1a003edc <__aeabi_d2iz+0x30>
1a003eb8:	f46f 7378 	mvn.w	r3, #992	; 0x3e0
1a003ebc:	ebb3 5262 	subs.w	r2, r3, r2, asr #21
1a003ec0:	d912      	bls.n	1a003ee8 <__aeabi_d2iz+0x3c>
1a003ec2:	ea4f 23c1 	mov.w	r3, r1, lsl #11
1a003ec6:	f043 4300 	orr.w	r3, r3, #2147483648	; 0x80000000
1a003eca:	ea43 5350 	orr.w	r3, r3, r0, lsr #21
1a003ece:	f011 4f00 	tst.w	r1, #2147483648	; 0x80000000
1a003ed2:	fa23 f002 	lsr.w	r0, r3, r2
1a003ed6:	bf18      	it	ne
1a003ed8:	4240      	negne	r0, r0
1a003eda:	4770      	bx	lr
1a003edc:	f04f 0000 	mov.w	r0, #0
1a003ee0:	4770      	bx	lr
1a003ee2:	ea50 3001 	orrs.w	r0, r0, r1, lsl #12
1a003ee6:	d105      	bne.n	1a003ef4 <__aeabi_d2iz+0x48>
1a003ee8:	f011 4000 	ands.w	r0, r1, #2147483648	; 0x80000000
1a003eec:	bf08      	it	eq
1a003eee:	f06f 4000 	mvneq.w	r0, #2147483648	; 0x80000000
1a003ef2:	4770      	bx	lr
1a003ef4:	f04f 0000 	mov.w	r0, #0
1a003ef8:	4770      	bx	lr
1a003efa:	bf00      	nop

1a003efc <__aeabi_uldivmod>:
1a003efc:	b953      	cbnz	r3, 1a003f14 <__aeabi_uldivmod+0x18>
1a003efe:	b94a      	cbnz	r2, 1a003f14 <__aeabi_uldivmod+0x18>
1a003f00:	2900      	cmp	r1, #0
1a003f02:	bf08      	it	eq
1a003f04:	2800      	cmpeq	r0, #0
1a003f06:	bf1c      	itt	ne
1a003f08:	f04f 31ff 	movne.w	r1, #4294967295
1a003f0c:	f04f 30ff 	movne.w	r0, #4294967295
1a003f10:	f000 b974 	b.w	1a0041fc <__aeabi_idiv0>
1a003f14:	f1ad 0c08 	sub.w	ip, sp, #8
1a003f18:	e96d ce04 	strd	ip, lr, [sp, #-16]!
1a003f1c:	f000 f806 	bl	1a003f2c <__udivmoddi4>
1a003f20:	f8dd e004 	ldr.w	lr, [sp, #4]
1a003f24:	e9dd 2302 	ldrd	r2, r3, [sp, #8]
1a003f28:	b004      	add	sp, #16
1a003f2a:	4770      	bx	lr

1a003f2c <__udivmoddi4>:
1a003f2c:	e92d 47f0 	stmdb	sp!, {r4, r5, r6, r7, r8, r9, sl, lr}
1a003f30:	9e08      	ldr	r6, [sp, #32]
1a003f32:	4604      	mov	r4, r0
1a003f34:	4688      	mov	r8, r1
1a003f36:	2b00      	cmp	r3, #0
1a003f38:	f040 8085 	bne.w	1a004046 <__udivmoddi4+0x11a>
1a003f3c:	428a      	cmp	r2, r1
1a003f3e:	4615      	mov	r5, r2
1a003f40:	d948      	bls.n	1a003fd4 <__udivmoddi4+0xa8>
1a003f42:	fab2 f282 	clz	r2, r2
1a003f46:	b14a      	cbz	r2, 1a003f5c <__udivmoddi4+0x30>
1a003f48:	f1c2 0720 	rsb	r7, r2, #32
1a003f4c:	fa01 f302 	lsl.w	r3, r1, r2
1a003f50:	fa20 f707 	lsr.w	r7, r0, r7
1a003f54:	4095      	lsls	r5, r2
1a003f56:	ea47 0803 	orr.w	r8, r7, r3
1a003f5a:	4094      	lsls	r4, r2
1a003f5c:	ea4f 4e15 	mov.w	lr, r5, lsr #16
1a003f60:	0c23      	lsrs	r3, r4, #16
1a003f62:	fbb8 f7fe 	udiv	r7, r8, lr
1a003f66:	fa1f fc85 	uxth.w	ip, r5
1a003f6a:	fb0e 8817 	mls	r8, lr, r7, r8
1a003f6e:	ea43 4308 	orr.w	r3, r3, r8, lsl #16
1a003f72:	fb07 f10c 	mul.w	r1, r7, ip
1a003f76:	4299      	cmp	r1, r3
1a003f78:	d909      	bls.n	1a003f8e <__udivmoddi4+0x62>
1a003f7a:	18eb      	adds	r3, r5, r3
1a003f7c:	f107 30ff 	add.w	r0, r7, #4294967295
1a003f80:	f080 80e3 	bcs.w	1a00414a <__udivmoddi4+0x21e>
1a003f84:	4299      	cmp	r1, r3
1a003f86:	f240 80e0 	bls.w	1a00414a <__udivmoddi4+0x21e>
1a003f8a:	3f02      	subs	r7, #2
1a003f8c:	442b      	add	r3, r5
1a003f8e:	1a5b      	subs	r3, r3, r1
1a003f90:	b2a4      	uxth	r4, r4
1a003f92:	fbb3 f0fe 	udiv	r0, r3, lr
1a003f96:	fb0e 3310 	mls	r3, lr, r0, r3
1a003f9a:	ea44 4403 	orr.w	r4, r4, r3, lsl #16
1a003f9e:	fb00 fc0c 	mul.w	ip, r0, ip
1a003fa2:	45a4      	cmp	ip, r4
1a003fa4:	d909      	bls.n	1a003fba <__udivmoddi4+0x8e>
1a003fa6:	192c      	adds	r4, r5, r4
1a003fa8:	f100 33ff 	add.w	r3, r0, #4294967295
1a003fac:	f080 80cb 	bcs.w	1a004146 <__udivmoddi4+0x21a>
1a003fb0:	45a4      	cmp	ip, r4
1a003fb2:	f240 80c8 	bls.w	1a004146 <__udivmoddi4+0x21a>
1a003fb6:	3802      	subs	r0, #2
1a003fb8:	442c      	add	r4, r5
1a003fba:	ea40 4007 	orr.w	r0, r0, r7, lsl #16
1a003fbe:	eba4 040c 	sub.w	r4, r4, ip
1a003fc2:	2700      	movs	r7, #0
1a003fc4:	b11e      	cbz	r6, 1a003fce <__udivmoddi4+0xa2>
1a003fc6:	40d4      	lsrs	r4, r2
1a003fc8:	2300      	movs	r3, #0
1a003fca:	e9c6 4300 	strd	r4, r3, [r6]
1a003fce:	4639      	mov	r1, r7
1a003fd0:	e8bd 87f0 	ldmia.w	sp!, {r4, r5, r6, r7, r8, r9, sl, pc}
1a003fd4:	2a00      	cmp	r2, #0
1a003fd6:	d053      	beq.n	1a004080 <__udivmoddi4+0x154>
1a003fd8:	fab2 f282 	clz	r2, r2
1a003fdc:	2a00      	cmp	r2, #0
1a003fde:	f040 80b6 	bne.w	1a00414e <__udivmoddi4+0x222>
1a003fe2:	1b49      	subs	r1, r1, r5
1a003fe4:	ea4f 4e15 	mov.w	lr, r5, lsr #16
1a003fe8:	fa1f f885 	uxth.w	r8, r5
1a003fec:	2701      	movs	r7, #1
1a003fee:	fbb1 fcfe 	udiv	ip, r1, lr
1a003ff2:	0c23      	lsrs	r3, r4, #16
1a003ff4:	fb0e 111c 	mls	r1, lr, ip, r1
1a003ff8:	ea43 4301 	orr.w	r3, r3, r1, lsl #16
1a003ffc:	fb08 f10c 	mul.w	r1, r8, ip
1a004000:	4299      	cmp	r1, r3
1a004002:	d907      	bls.n	1a004014 <__udivmoddi4+0xe8>
1a004004:	18eb      	adds	r3, r5, r3
1a004006:	f10c 30ff 	add.w	r0, ip, #4294967295
1a00400a:	d202      	bcs.n	1a004012 <__udivmoddi4+0xe6>
1a00400c:	4299      	cmp	r1, r3
1a00400e:	f200 80ec 	bhi.w	1a0041ea <__udivmoddi4+0x2be>
1a004012:	4684      	mov	ip, r0
1a004014:	1a59      	subs	r1, r3, r1
1a004016:	b2a3      	uxth	r3, r4
1a004018:	fbb1 f0fe 	udiv	r0, r1, lr
1a00401c:	fb0e 1410 	mls	r4, lr, r0, r1
1a004020:	ea43 4404 	orr.w	r4, r3, r4, lsl #16
1a004024:	fb08 f800 	mul.w	r8, r8, r0
1a004028:	45a0      	cmp	r8, r4
1a00402a:	d907      	bls.n	1a00403c <__udivmoddi4+0x110>
1a00402c:	192c      	adds	r4, r5, r4
1a00402e:	f100 33ff 	add.w	r3, r0, #4294967295
1a004032:	d202      	bcs.n	1a00403a <__udivmoddi4+0x10e>
1a004034:	45a0      	cmp	r8, r4
1a004036:	f200 80dc 	bhi.w	1a0041f2 <__udivmoddi4+0x2c6>
1a00403a:	4618      	mov	r0, r3
1a00403c:	eba4 0408 	sub.w	r4, r4, r8
1a004040:	ea40 400c 	orr.w	r0, r0, ip, lsl #16
1a004044:	e7be      	b.n	1a003fc4 <__udivmoddi4+0x98>
1a004046:	428b      	cmp	r3, r1
1a004048:	d908      	bls.n	1a00405c <__udivmoddi4+0x130>
1a00404a:	2e00      	cmp	r6, #0
1a00404c:	d078      	beq.n	1a004140 <__udivmoddi4+0x214>
1a00404e:	2700      	movs	r7, #0
1a004050:	e9c6 0100 	strd	r0, r1, [r6]
1a004054:	4638      	mov	r0, r7
1a004056:	4639      	mov	r1, r7
1a004058:	e8bd 87f0 	ldmia.w	sp!, {r4, r5, r6, r7, r8, r9, sl, pc}
1a00405c:	fab3 f783 	clz	r7, r3
1a004060:	b97f      	cbnz	r7, 1a004082 <__udivmoddi4+0x156>
1a004062:	428b      	cmp	r3, r1
1a004064:	d302      	bcc.n	1a00406c <__udivmoddi4+0x140>
1a004066:	4282      	cmp	r2, r0
1a004068:	f200 80bd 	bhi.w	1a0041e6 <__udivmoddi4+0x2ba>
1a00406c:	1a84      	subs	r4, r0, r2
1a00406e:	eb61 0303 	sbc.w	r3, r1, r3
1a004072:	2001      	movs	r0, #1
1a004074:	4698      	mov	r8, r3
1a004076:	2e00      	cmp	r6, #0
1a004078:	d0a9      	beq.n	1a003fce <__udivmoddi4+0xa2>
1a00407a:	e9c6 4800 	strd	r4, r8, [r6]
1a00407e:	e7a6      	b.n	1a003fce <__udivmoddi4+0xa2>
1a004080:	deff      	udf	#255	; 0xff
1a004082:	f1c7 0520 	rsb	r5, r7, #32
1a004086:	40bb      	lsls	r3, r7
1a004088:	fa22 fc05 	lsr.w	ip, r2, r5
1a00408c:	ea4c 0c03 	orr.w	ip, ip, r3
1a004090:	fa01 f407 	lsl.w	r4, r1, r7
1a004094:	fa20 f805 	lsr.w	r8, r0, r5
1a004098:	fa21 f305 	lsr.w	r3, r1, r5
1a00409c:	ea4f 4e1c 	mov.w	lr, ip, lsr #16
1a0040a0:	ea48 0404 	orr.w	r4, r8, r4
1a0040a4:	fbb3 f9fe 	udiv	r9, r3, lr
1a0040a8:	0c21      	lsrs	r1, r4, #16
1a0040aa:	fb0e 3319 	mls	r3, lr, r9, r3
1a0040ae:	fa1f f88c 	uxth.w	r8, ip
1a0040b2:	ea41 4303 	orr.w	r3, r1, r3, lsl #16
1a0040b6:	fb09 fa08 	mul.w	sl, r9, r8
1a0040ba:	459a      	cmp	sl, r3
1a0040bc:	fa02 f207 	lsl.w	r2, r2, r7
1a0040c0:	fa00 f107 	lsl.w	r1, r0, r7
1a0040c4:	d90b      	bls.n	1a0040de <__udivmoddi4+0x1b2>
1a0040c6:	eb1c 0303 	adds.w	r3, ip, r3
1a0040ca:	f109 30ff 	add.w	r0, r9, #4294967295
1a0040ce:	f080 8088 	bcs.w	1a0041e2 <__udivmoddi4+0x2b6>
1a0040d2:	459a      	cmp	sl, r3
1a0040d4:	f240 8085 	bls.w	1a0041e2 <__udivmoddi4+0x2b6>
1a0040d8:	f1a9 0902 	sub.w	r9, r9, #2
1a0040dc:	4463      	add	r3, ip
1a0040de:	eba3 030a 	sub.w	r3, r3, sl
1a0040e2:	b2a4      	uxth	r4, r4
1a0040e4:	fbb3 f0fe 	udiv	r0, r3, lr
1a0040e8:	fb0e 3310 	mls	r3, lr, r0, r3
1a0040ec:	ea44 4403 	orr.w	r4, r4, r3, lsl #16
1a0040f0:	fb00 f808 	mul.w	r8, r0, r8
1a0040f4:	45a0      	cmp	r8, r4
1a0040f6:	d908      	bls.n	1a00410a <__udivmoddi4+0x1de>
1a0040f8:	eb1c 0404 	adds.w	r4, ip, r4
1a0040fc:	f100 33ff 	add.w	r3, r0, #4294967295
1a004100:	d26b      	bcs.n	1a0041da <__udivmoddi4+0x2ae>
1a004102:	45a0      	cmp	r8, r4
1a004104:	d969      	bls.n	1a0041da <__udivmoddi4+0x2ae>
1a004106:	3802      	subs	r0, #2
1a004108:	4464      	add	r4, ip
1a00410a:	ea40 4009 	orr.w	r0, r0, r9, lsl #16
1a00410e:	eba4 0408 	sub.w	r4, r4, r8
1a004112:	fba0 8902 	umull	r8, r9, r0, r2
1a004116:	454c      	cmp	r4, r9
1a004118:	46c6      	mov	lr, r8
1a00411a:	464b      	mov	r3, r9
1a00411c:	d354      	bcc.n	1a0041c8 <__udivmoddi4+0x29c>
1a00411e:	d051      	beq.n	1a0041c4 <__udivmoddi4+0x298>
1a004120:	2e00      	cmp	r6, #0
1a004122:	d069      	beq.n	1a0041f8 <__udivmoddi4+0x2cc>
1a004124:	ebb1 020e 	subs.w	r2, r1, lr
1a004128:	eb64 0403 	sbc.w	r4, r4, r3
1a00412c:	fa04 f505 	lsl.w	r5, r4, r5
1a004130:	fa22 f307 	lsr.w	r3, r2, r7
1a004134:	40fc      	lsrs	r4, r7
1a004136:	431d      	orrs	r5, r3
1a004138:	e9c6 5400 	strd	r5, r4, [r6]
1a00413c:	2700      	movs	r7, #0
1a00413e:	e746      	b.n	1a003fce <__udivmoddi4+0xa2>
1a004140:	4637      	mov	r7, r6
1a004142:	4630      	mov	r0, r6
1a004144:	e743      	b.n	1a003fce <__udivmoddi4+0xa2>
1a004146:	4618      	mov	r0, r3
1a004148:	e737      	b.n	1a003fba <__udivmoddi4+0x8e>
1a00414a:	4607      	mov	r7, r0
1a00414c:	e71f      	b.n	1a003f8e <__udivmoddi4+0x62>
1a00414e:	f1c2 0320 	rsb	r3, r2, #32
1a004152:	fa20 f703 	lsr.w	r7, r0, r3
1a004156:	4095      	lsls	r5, r2
1a004158:	fa01 f002 	lsl.w	r0, r1, r2
1a00415c:	fa21 f303 	lsr.w	r3, r1, r3
1a004160:	ea4f 4e15 	mov.w	lr, r5, lsr #16
1a004164:	4338      	orrs	r0, r7
1a004166:	0c01      	lsrs	r1, r0, #16
1a004168:	fbb3 f7fe 	udiv	r7, r3, lr
1a00416c:	fa1f f885 	uxth.w	r8, r5
1a004170:	fb0e 3317 	mls	r3, lr, r7, r3
1a004174:	ea41 4103 	orr.w	r1, r1, r3, lsl #16
1a004178:	fb07 f308 	mul.w	r3, r7, r8
1a00417c:	428b      	cmp	r3, r1
1a00417e:	fa04 f402 	lsl.w	r4, r4, r2
1a004182:	d907      	bls.n	1a004194 <__udivmoddi4+0x268>
1a004184:	1869      	adds	r1, r5, r1
1a004186:	f107 3cff 	add.w	ip, r7, #4294967295
1a00418a:	d228      	bcs.n	1a0041de <__udivmoddi4+0x2b2>
1a00418c:	428b      	cmp	r3, r1
1a00418e:	d926      	bls.n	1a0041de <__udivmoddi4+0x2b2>
1a004190:	3f02      	subs	r7, #2
1a004192:	4429      	add	r1, r5
1a004194:	1acb      	subs	r3, r1, r3
1a004196:	b281      	uxth	r1, r0
1a004198:	fbb3 f0fe 	udiv	r0, r3, lr
1a00419c:	fb0e 3310 	mls	r3, lr, r0, r3
1a0041a0:	ea41 4103 	orr.w	r1, r1, r3, lsl #16
1a0041a4:	fb00 f308 	mul.w	r3, r0, r8
1a0041a8:	428b      	cmp	r3, r1
1a0041aa:	d907      	bls.n	1a0041bc <__udivmoddi4+0x290>
1a0041ac:	1869      	adds	r1, r5, r1
1a0041ae:	f100 3cff 	add.w	ip, r0, #4294967295
1a0041b2:	d210      	bcs.n	1a0041d6 <__udivmoddi4+0x2aa>
1a0041b4:	428b      	cmp	r3, r1
1a0041b6:	d90e      	bls.n	1a0041d6 <__udivmoddi4+0x2aa>
1a0041b8:	3802      	subs	r0, #2
1a0041ba:	4429      	add	r1, r5
1a0041bc:	1ac9      	subs	r1, r1, r3
1a0041be:	ea40 4707 	orr.w	r7, r0, r7, lsl #16
1a0041c2:	e714      	b.n	1a003fee <__udivmoddi4+0xc2>
1a0041c4:	4541      	cmp	r1, r8
1a0041c6:	d2ab      	bcs.n	1a004120 <__udivmoddi4+0x1f4>
1a0041c8:	ebb8 0e02 	subs.w	lr, r8, r2
1a0041cc:	eb69 020c 	sbc.w	r2, r9, ip
1a0041d0:	3801      	subs	r0, #1
1a0041d2:	4613      	mov	r3, r2
1a0041d4:	e7a4      	b.n	1a004120 <__udivmoddi4+0x1f4>
1a0041d6:	4660      	mov	r0, ip
1a0041d8:	e7f0      	b.n	1a0041bc <__udivmoddi4+0x290>
1a0041da:	4618      	mov	r0, r3
1a0041dc:	e795      	b.n	1a00410a <__udivmoddi4+0x1de>
1a0041de:	4667      	mov	r7, ip
1a0041e0:	e7d8      	b.n	1a004194 <__udivmoddi4+0x268>
1a0041e2:	4681      	mov	r9, r0
1a0041e4:	e77b      	b.n	1a0040de <__udivmoddi4+0x1b2>
1a0041e6:	4638      	mov	r0, r7
1a0041e8:	e745      	b.n	1a004076 <__udivmoddi4+0x14a>
1a0041ea:	f1ac 0c02 	sub.w	ip, ip, #2
1a0041ee:	442b      	add	r3, r5
1a0041f0:	e710      	b.n	1a004014 <__udivmoddi4+0xe8>
1a0041f2:	3802      	subs	r0, #2
1a0041f4:	442c      	add	r4, r5
1a0041f6:	e721      	b.n	1a00403c <__udivmoddi4+0x110>
1a0041f8:	4637      	mov	r7, r6
1a0041fa:	e6e8      	b.n	1a003fce <__udivmoddi4+0xa2>

1a0041fc <__aeabi_idiv0>:
1a0041fc:	4770      	bx	lr
1a0041fe:	bf00      	nop

1a004200 <__aeabi_d2uiz>:
1a004200:	004a      	lsls	r2, r1, #1
1a004202:	d211      	bcs.n	1a004228 <__aeabi_d2uiz+0x28>
1a004204:	f512 1200 	adds.w	r2, r2, #2097152	; 0x200000
1a004208:	d211      	bcs.n	1a00422e <__aeabi_d2uiz+0x2e>
1a00420a:	d50d      	bpl.n	1a004228 <__aeabi_d2uiz+0x28>
1a00420c:	f46f 7378 	mvn.w	r3, #992	; 0x3e0
1a004210:	ebb3 5262 	subs.w	r2, r3, r2, asr #21
1a004214:	d40e      	bmi.n	1a004234 <__aeabi_d2uiz+0x34>
1a004216:	ea4f 23c1 	mov.w	r3, r1, lsl #11
1a00421a:	f043 4300 	orr.w	r3, r3, #2147483648	; 0x80000000
1a00421e:	ea43 5350 	orr.w	r3, r3, r0, lsr #21
1a004222:	fa23 f002 	lsr.w	r0, r3, r2
1a004226:	4770      	bx	lr
1a004228:	f04f 0000 	mov.w	r0, #0
1a00422c:	4770      	bx	lr
1a00422e:	ea50 3001 	orrs.w	r0, r0, r1, lsl #12
1a004232:	d102      	bne.n	1a00423a <__aeabi_d2uiz+0x3a>
1a004234:	f04f 30ff 	mov.w	r0, #4294967295
1a004238:	4770      	bx	lr
1a00423a:	f04f 0000 	mov.w	r0, #0
1a00423e:	4770      	bx	lr

1a004240 <__libc_init_array>:
1a004240:	b570      	push	{r4, r5, r6, lr}
1a004242:	4d0d      	ldr	r5, [pc, #52]	; (1a004278 <__libc_init_array+0x38>)
1a004244:	4c0d      	ldr	r4, [pc, #52]	; (1a00427c <__libc_init_array+0x3c>)
1a004246:	1b64      	subs	r4, r4, r5
1a004248:	10a4      	asrs	r4, r4, #2
1a00424a:	2600      	movs	r6, #0
1a00424c:	42a6      	cmp	r6, r4
1a00424e:	d109      	bne.n	1a004264 <__libc_init_array+0x24>
1a004250:	4d0b      	ldr	r5, [pc, #44]	; (1a004280 <__libc_init_array+0x40>)
1a004252:	4c0c      	ldr	r4, [pc, #48]	; (1a004284 <__libc_init_array+0x44>)
1a004254:	f7ff f9bc 	bl	1a0035d0 <_init>
1a004258:	1b64      	subs	r4, r4, r5
1a00425a:	10a4      	asrs	r4, r4, #2
1a00425c:	2600      	movs	r6, #0
1a00425e:	42a6      	cmp	r6, r4
1a004260:	d105      	bne.n	1a00426e <__libc_init_array+0x2e>
1a004262:	bd70      	pop	{r4, r5, r6, pc}
1a004264:	f855 3b04 	ldr.w	r3, [r5], #4
1a004268:	4798      	blx	r3
1a00426a:	3601      	adds	r6, #1
1a00426c:	e7ee      	b.n	1a00424c <__libc_init_array+0xc>
1a00426e:	f855 3b04 	ldr.w	r3, [r5], #4
1a004272:	4798      	blx	r3
1a004274:	3601      	adds	r6, #1
1a004276:	e7f2      	b.n	1a00425e <__libc_init_array+0x1e>
1a004278:	1a007fe0 	.word	0x1a007fe0
1a00427c:	1a007fe0 	.word	0x1a007fe0
1a004280:	1a007fe0 	.word	0x1a007fe0
1a004284:	1a007fe0 	.word	0x1a007fe0

1a004288 <malloc>:
1a004288:	4b02      	ldr	r3, [pc, #8]	; (1a004294 <malloc+0xc>)
1a00428a:	4601      	mov	r1, r0
1a00428c:	6818      	ldr	r0, [r3, #0]
1a00428e:	f000 b86f 	b.w	1a004370 <_malloc_r>
1a004292:	bf00      	nop
1a004294:	100000e8 	.word	0x100000e8

1a004298 <free>:
1a004298:	4b02      	ldr	r3, [pc, #8]	; (1a0042a4 <free+0xc>)
1a00429a:	4601      	mov	r1, r0
1a00429c:	6818      	ldr	r0, [r3, #0]
1a00429e:	f000 b819 	b.w	1a0042d4 <_free_r>
1a0042a2:	bf00      	nop
1a0042a4:	100000e8 	.word	0x100000e8

1a0042a8 <memcpy>:
1a0042a8:	440a      	add	r2, r1
1a0042aa:	4291      	cmp	r1, r2
1a0042ac:	f100 33ff 	add.w	r3, r0, #4294967295
1a0042b0:	d100      	bne.n	1a0042b4 <memcpy+0xc>
1a0042b2:	4770      	bx	lr
1a0042b4:	b510      	push	{r4, lr}
1a0042b6:	f811 4b01 	ldrb.w	r4, [r1], #1
1a0042ba:	f803 4f01 	strb.w	r4, [r3, #1]!
1a0042be:	4291      	cmp	r1, r2
1a0042c0:	d1f9      	bne.n	1a0042b6 <memcpy+0xe>
1a0042c2:	bd10      	pop	{r4, pc}

1a0042c4 <memset>:
1a0042c4:	4402      	add	r2, r0
1a0042c6:	4603      	mov	r3, r0
1a0042c8:	4293      	cmp	r3, r2
1a0042ca:	d100      	bne.n	1a0042ce <memset+0xa>
1a0042cc:	4770      	bx	lr
1a0042ce:	f803 1b01 	strb.w	r1, [r3], #1
1a0042d2:	e7f9      	b.n	1a0042c8 <memset+0x4>

1a0042d4 <_free_r>:
1a0042d4:	b538      	push	{r3, r4, r5, lr}
1a0042d6:	4605      	mov	r5, r0
1a0042d8:	2900      	cmp	r1, #0
1a0042da:	d045      	beq.n	1a004368 <_free_r+0x94>
1a0042dc:	f851 3c04 	ldr.w	r3, [r1, #-4]
1a0042e0:	1f0c      	subs	r4, r1, #4
1a0042e2:	2b00      	cmp	r3, #0
1a0042e4:	bfb8      	it	lt
1a0042e6:	18e4      	addlt	r4, r4, r3
1a0042e8:	f001 fd80 	bl	1a005dec <__malloc_lock>
1a0042ec:	4a1f      	ldr	r2, [pc, #124]	; (1a00436c <_free_r+0x98>)
1a0042ee:	6813      	ldr	r3, [r2, #0]
1a0042f0:	4610      	mov	r0, r2
1a0042f2:	b933      	cbnz	r3, 1a004302 <_free_r+0x2e>
1a0042f4:	6063      	str	r3, [r4, #4]
1a0042f6:	6014      	str	r4, [r2, #0]
1a0042f8:	4628      	mov	r0, r5
1a0042fa:	e8bd 4038 	ldmia.w	sp!, {r3, r4, r5, lr}
1a0042fe:	f001 bd7b 	b.w	1a005df8 <__malloc_unlock>
1a004302:	42a3      	cmp	r3, r4
1a004304:	d90c      	bls.n	1a004320 <_free_r+0x4c>
1a004306:	6821      	ldr	r1, [r4, #0]
1a004308:	1862      	adds	r2, r4, r1
1a00430a:	4293      	cmp	r3, r2
1a00430c:	bf04      	itt	eq
1a00430e:	681a      	ldreq	r2, [r3, #0]
1a004310:	685b      	ldreq	r3, [r3, #4]
1a004312:	6063      	str	r3, [r4, #4]
1a004314:	bf04      	itt	eq
1a004316:	1852      	addeq	r2, r2, r1
1a004318:	6022      	streq	r2, [r4, #0]
1a00431a:	6004      	str	r4, [r0, #0]
1a00431c:	e7ec      	b.n	1a0042f8 <_free_r+0x24>
1a00431e:	4613      	mov	r3, r2
1a004320:	685a      	ldr	r2, [r3, #4]
1a004322:	b10a      	cbz	r2, 1a004328 <_free_r+0x54>
1a004324:	42a2      	cmp	r2, r4
1a004326:	d9fa      	bls.n	1a00431e <_free_r+0x4a>
1a004328:	6819      	ldr	r1, [r3, #0]
1a00432a:	1858      	adds	r0, r3, r1
1a00432c:	42a0      	cmp	r0, r4
1a00432e:	d10b      	bne.n	1a004348 <_free_r+0x74>
1a004330:	6820      	ldr	r0, [r4, #0]
1a004332:	4401      	add	r1, r0
1a004334:	1858      	adds	r0, r3, r1
1a004336:	4282      	cmp	r2, r0
1a004338:	6019      	str	r1, [r3, #0]
1a00433a:	d1dd      	bne.n	1a0042f8 <_free_r+0x24>
1a00433c:	6810      	ldr	r0, [r2, #0]
1a00433e:	6852      	ldr	r2, [r2, #4]
1a004340:	605a      	str	r2, [r3, #4]
1a004342:	4401      	add	r1, r0
1a004344:	6019      	str	r1, [r3, #0]
1a004346:	e7d7      	b.n	1a0042f8 <_free_r+0x24>
1a004348:	d902      	bls.n	1a004350 <_free_r+0x7c>
1a00434a:	230c      	movs	r3, #12
1a00434c:	602b      	str	r3, [r5, #0]
1a00434e:	e7d3      	b.n	1a0042f8 <_free_r+0x24>
1a004350:	6820      	ldr	r0, [r4, #0]
1a004352:	1821      	adds	r1, r4, r0
1a004354:	428a      	cmp	r2, r1
1a004356:	bf04      	itt	eq
1a004358:	6811      	ldreq	r1, [r2, #0]
1a00435a:	6852      	ldreq	r2, [r2, #4]
1a00435c:	6062      	str	r2, [r4, #4]
1a00435e:	bf04      	itt	eq
1a004360:	1809      	addeq	r1, r1, r0
1a004362:	6021      	streq	r1, [r4, #0]
1a004364:	605c      	str	r4, [r3, #4]
1a004366:	e7c7      	b.n	1a0042f8 <_free_r+0x24>
1a004368:	bd38      	pop	{r3, r4, r5, pc}
1a00436a:	bf00      	nop
1a00436c:	10000304 	.word	0x10000304

1a004370 <_malloc_r>:
1a004370:	b5f8      	push	{r3, r4, r5, r6, r7, lr}
1a004372:	1ccd      	adds	r5, r1, #3
1a004374:	f025 0503 	bic.w	r5, r5, #3
1a004378:	3508      	adds	r5, #8
1a00437a:	2d0c      	cmp	r5, #12
1a00437c:	bf38      	it	cc
1a00437e:	250c      	movcc	r5, #12
1a004380:	2d00      	cmp	r5, #0
1a004382:	4606      	mov	r6, r0
1a004384:	db01      	blt.n	1a00438a <_malloc_r+0x1a>
1a004386:	42a9      	cmp	r1, r5
1a004388:	d903      	bls.n	1a004392 <_malloc_r+0x22>
1a00438a:	230c      	movs	r3, #12
1a00438c:	6033      	str	r3, [r6, #0]
1a00438e:	2000      	movs	r0, #0
1a004390:	bdf8      	pop	{r3, r4, r5, r6, r7, pc}
1a004392:	f001 fd2b 	bl	1a005dec <__malloc_lock>
1a004396:	4921      	ldr	r1, [pc, #132]	; (1a00441c <_malloc_r+0xac>)
1a004398:	680a      	ldr	r2, [r1, #0]
1a00439a:	4614      	mov	r4, r2
1a00439c:	b99c      	cbnz	r4, 1a0043c6 <_malloc_r+0x56>
1a00439e:	4f20      	ldr	r7, [pc, #128]	; (1a004420 <_malloc_r+0xb0>)
1a0043a0:	683b      	ldr	r3, [r7, #0]
1a0043a2:	b923      	cbnz	r3, 1a0043ae <_malloc_r+0x3e>
1a0043a4:	4621      	mov	r1, r4
1a0043a6:	4630      	mov	r0, r6
1a0043a8:	f7fe f966 	bl	1a002678 <_sbrk_r>
1a0043ac:	6038      	str	r0, [r7, #0]
1a0043ae:	4629      	mov	r1, r5
1a0043b0:	4630      	mov	r0, r6
1a0043b2:	f7fe f961 	bl	1a002678 <_sbrk_r>
1a0043b6:	1c43      	adds	r3, r0, #1
1a0043b8:	d123      	bne.n	1a004402 <_malloc_r+0x92>
1a0043ba:	230c      	movs	r3, #12
1a0043bc:	6033      	str	r3, [r6, #0]
1a0043be:	4630      	mov	r0, r6
1a0043c0:	f001 fd1a 	bl	1a005df8 <__malloc_unlock>
1a0043c4:	e7e3      	b.n	1a00438e <_malloc_r+0x1e>
1a0043c6:	6823      	ldr	r3, [r4, #0]
1a0043c8:	1b5b      	subs	r3, r3, r5
1a0043ca:	d417      	bmi.n	1a0043fc <_malloc_r+0x8c>
1a0043cc:	2b0b      	cmp	r3, #11
1a0043ce:	d903      	bls.n	1a0043d8 <_malloc_r+0x68>
1a0043d0:	6023      	str	r3, [r4, #0]
1a0043d2:	441c      	add	r4, r3
1a0043d4:	6025      	str	r5, [r4, #0]
1a0043d6:	e004      	b.n	1a0043e2 <_malloc_r+0x72>
1a0043d8:	6863      	ldr	r3, [r4, #4]
1a0043da:	42a2      	cmp	r2, r4
1a0043dc:	bf0c      	ite	eq
1a0043de:	600b      	streq	r3, [r1, #0]
1a0043e0:	6053      	strne	r3, [r2, #4]
1a0043e2:	4630      	mov	r0, r6
1a0043e4:	f001 fd08 	bl	1a005df8 <__malloc_unlock>
1a0043e8:	f104 000b 	add.w	r0, r4, #11
1a0043ec:	1d23      	adds	r3, r4, #4
1a0043ee:	f020 0007 	bic.w	r0, r0, #7
1a0043f2:	1ac2      	subs	r2, r0, r3
1a0043f4:	d0cc      	beq.n	1a004390 <_malloc_r+0x20>
1a0043f6:	1a1b      	subs	r3, r3, r0
1a0043f8:	50a3      	str	r3, [r4, r2]
1a0043fa:	e7c9      	b.n	1a004390 <_malloc_r+0x20>
1a0043fc:	4622      	mov	r2, r4
1a0043fe:	6864      	ldr	r4, [r4, #4]
1a004400:	e7cc      	b.n	1a00439c <_malloc_r+0x2c>
1a004402:	1cc4      	adds	r4, r0, #3
1a004404:	f024 0403 	bic.w	r4, r4, #3
1a004408:	42a0      	cmp	r0, r4
1a00440a:	d0e3      	beq.n	1a0043d4 <_malloc_r+0x64>
1a00440c:	1a21      	subs	r1, r4, r0
1a00440e:	4630      	mov	r0, r6
1a004410:	f7fe f932 	bl	1a002678 <_sbrk_r>
1a004414:	3001      	adds	r0, #1
1a004416:	d1dd      	bne.n	1a0043d4 <_malloc_r+0x64>
1a004418:	e7cf      	b.n	1a0043ba <_malloc_r+0x4a>
1a00441a:	bf00      	nop
1a00441c:	10000304 	.word	0x10000304
1a004420:	10000308 	.word	0x10000308

1a004424 <iprintf>:
1a004424:	b40f      	push	{r0, r1, r2, r3}
1a004426:	4b0a      	ldr	r3, [pc, #40]	; (1a004450 <iprintf+0x2c>)
1a004428:	b513      	push	{r0, r1, r4, lr}
1a00442a:	681c      	ldr	r4, [r3, #0]
1a00442c:	b124      	cbz	r4, 1a004438 <iprintf+0x14>
1a00442e:	69a3      	ldr	r3, [r4, #24]
1a004430:	b913      	cbnz	r3, 1a004438 <iprintf+0x14>
1a004432:	4620      	mov	r0, r4
1a004434:	f001 f89a 	bl	1a00556c <__sinit>
1a004438:	ab05      	add	r3, sp, #20
1a00443a:	9a04      	ldr	r2, [sp, #16]
1a00443c:	68a1      	ldr	r1, [r4, #8]
1a00443e:	9301      	str	r3, [sp, #4]
1a004440:	4620      	mov	r0, r4
1a004442:	f002 fc2b 	bl	1a006c9c <_vfiprintf_r>
1a004446:	b002      	add	sp, #8
1a004448:	e8bd 4010 	ldmia.w	sp!, {r4, lr}
1a00444c:	b004      	add	sp, #16
1a00444e:	4770      	bx	lr
1a004450:	100000e8 	.word	0x100000e8

1a004454 <realloc>:
1a004454:	4b02      	ldr	r3, [pc, #8]	; (1a004460 <realloc+0xc>)
1a004456:	460a      	mov	r2, r1
1a004458:	4601      	mov	r1, r0
1a00445a:	6818      	ldr	r0, [r3, #0]
1a00445c:	f002 b8d8 	b.w	1a006610 <_realloc_r>
1a004460:	100000e8 	.word	0x100000e8

1a004464 <siprintf>:
1a004464:	b40e      	push	{r1, r2, r3}
1a004466:	b500      	push	{lr}
1a004468:	b09c      	sub	sp, #112	; 0x70
1a00446a:	ab1d      	add	r3, sp, #116	; 0x74
1a00446c:	9002      	str	r0, [sp, #8]
1a00446e:	9006      	str	r0, [sp, #24]
1a004470:	f06f 4100 	mvn.w	r1, #2147483648	; 0x80000000
1a004474:	4809      	ldr	r0, [pc, #36]	; (1a00449c <siprintf+0x38>)
1a004476:	9107      	str	r1, [sp, #28]
1a004478:	9104      	str	r1, [sp, #16]
1a00447a:	4909      	ldr	r1, [pc, #36]	; (1a0044a0 <siprintf+0x3c>)
1a00447c:	f853 2b04 	ldr.w	r2, [r3], #4
1a004480:	9105      	str	r1, [sp, #20]
1a004482:	6800      	ldr	r0, [r0, #0]
1a004484:	9301      	str	r3, [sp, #4]
1a004486:	a902      	add	r1, sp, #8
1a004488:	f002 f944 	bl	1a006714 <_svfiprintf_r>
1a00448c:	9b02      	ldr	r3, [sp, #8]
1a00448e:	2200      	movs	r2, #0
1a004490:	701a      	strb	r2, [r3, #0]
1a004492:	b01c      	add	sp, #112	; 0x70
1a004494:	f85d eb04 	ldr.w	lr, [sp], #4
1a004498:	b003      	add	sp, #12
1a00449a:	4770      	bx	lr
1a00449c:	100000e8 	.word	0x100000e8
1a0044a0:	ffff0208 	.word	0xffff0208

1a0044a4 <siscanf>:
1a0044a4:	b40e      	push	{r1, r2, r3}
1a0044a6:	b530      	push	{r4, r5, lr}
1a0044a8:	b09c      	sub	sp, #112	; 0x70
1a0044aa:	ac1f      	add	r4, sp, #124	; 0x7c
1a0044ac:	f44f 7201 	mov.w	r2, #516	; 0x204
1a0044b0:	f854 5b04 	ldr.w	r5, [r4], #4
1a0044b4:	f8ad 2014 	strh.w	r2, [sp, #20]
1a0044b8:	9002      	str	r0, [sp, #8]
1a0044ba:	9006      	str	r0, [sp, #24]
1a0044bc:	f000 f86b 	bl	1a004596 <strlen>
1a0044c0:	4b0b      	ldr	r3, [pc, #44]	; (1a0044f0 <siscanf+0x4c>)
1a0044c2:	9003      	str	r0, [sp, #12]
1a0044c4:	9007      	str	r0, [sp, #28]
1a0044c6:	930b      	str	r3, [sp, #44]	; 0x2c
1a0044c8:	480a      	ldr	r0, [pc, #40]	; (1a0044f4 <siscanf+0x50>)
1a0044ca:	9401      	str	r4, [sp, #4]
1a0044cc:	2300      	movs	r3, #0
1a0044ce:	930f      	str	r3, [sp, #60]	; 0x3c
1a0044d0:	9314      	str	r3, [sp, #80]	; 0x50
1a0044d2:	f64f 73ff 	movw	r3, #65535	; 0xffff
1a0044d6:	f8ad 3016 	strh.w	r3, [sp, #22]
1a0044da:	462a      	mov	r2, r5
1a0044dc:	4623      	mov	r3, r4
1a0044de:	a902      	add	r1, sp, #8
1a0044e0:	6800      	ldr	r0, [r0, #0]
1a0044e2:	f002 fa69 	bl	1a0069b8 <__ssvfiscanf_r>
1a0044e6:	b01c      	add	sp, #112	; 0x70
1a0044e8:	e8bd 4030 	ldmia.w	sp!, {r4, r5, lr}
1a0044ec:	b003      	add	sp, #12
1a0044ee:	4770      	bx	lr
1a0044f0:	1a00451b 	.word	0x1a00451b
1a0044f4:	100000e8 	.word	0x100000e8

1a0044f8 <__sread>:
1a0044f8:	b510      	push	{r4, lr}
1a0044fa:	460c      	mov	r4, r1
1a0044fc:	f9b1 100e 	ldrsh.w	r1, [r1, #14]
1a004500:	f7fe f894 	bl	1a00262c <_read_r>
1a004504:	2800      	cmp	r0, #0
1a004506:	bfab      	itete	ge
1a004508:	6d63      	ldrge	r3, [r4, #84]	; 0x54
1a00450a:	89a3      	ldrhlt	r3, [r4, #12]
1a00450c:	181b      	addge	r3, r3, r0
1a00450e:	f423 5380 	biclt.w	r3, r3, #4096	; 0x1000
1a004512:	bfac      	ite	ge
1a004514:	6563      	strge	r3, [r4, #84]	; 0x54
1a004516:	81a3      	strhlt	r3, [r4, #12]
1a004518:	bd10      	pop	{r4, pc}

1a00451a <__seofread>:
1a00451a:	2000      	movs	r0, #0
1a00451c:	4770      	bx	lr

1a00451e <__swrite>:
1a00451e:	e92d 41f0 	stmdb	sp!, {r4, r5, r6, r7, r8, lr}
1a004522:	461f      	mov	r7, r3
1a004524:	898b      	ldrh	r3, [r1, #12]
1a004526:	05db      	lsls	r3, r3, #23
1a004528:	4605      	mov	r5, r0
1a00452a:	460c      	mov	r4, r1
1a00452c:	4616      	mov	r6, r2
1a00452e:	d505      	bpl.n	1a00453c <__swrite+0x1e>
1a004530:	2302      	movs	r3, #2
1a004532:	2200      	movs	r2, #0
1a004534:	f9b1 100e 	ldrsh.w	r1, [r1, #14]
1a004538:	f7fe f873 	bl	1a002622 <_lseek_r>
1a00453c:	89a3      	ldrh	r3, [r4, #12]
1a00453e:	f9b4 100e 	ldrsh.w	r1, [r4, #14]
1a004542:	f423 5380 	bic.w	r3, r3, #4096	; 0x1000
1a004546:	81a3      	strh	r3, [r4, #12]
1a004548:	4632      	mov	r2, r6
1a00454a:	463b      	mov	r3, r7
1a00454c:	4628      	mov	r0, r5
1a00454e:	e8bd 41f0 	ldmia.w	sp!, {r4, r5, r6, r7, r8, lr}
1a004552:	f7fe b8a1 	b.w	1a002698 <_write_r>

1a004556 <__sseek>:
1a004556:	b510      	push	{r4, lr}
1a004558:	460c      	mov	r4, r1
1a00455a:	f9b1 100e 	ldrsh.w	r1, [r1, #14]
1a00455e:	f7fe f860 	bl	1a002622 <_lseek_r>
1a004562:	1c43      	adds	r3, r0, #1
1a004564:	89a3      	ldrh	r3, [r4, #12]
1a004566:	bf15      	itete	ne
1a004568:	6560      	strne	r0, [r4, #84]	; 0x54
1a00456a:	f423 5380 	biceq.w	r3, r3, #4096	; 0x1000
1a00456e:	f443 5380 	orrne.w	r3, r3, #4096	; 0x1000
1a004572:	81a3      	strheq	r3, [r4, #12]
1a004574:	bf18      	it	ne
1a004576:	81a3      	strhne	r3, [r4, #12]
1a004578:	bd10      	pop	{r4, pc}

1a00457a <__sclose>:
1a00457a:	f9b1 100e 	ldrsh.w	r1, [r1, #14]
1a00457e:	f7fe b83d 	b.w	1a0025fc <_close_r>

1a004582 <strcmp>:
1a004582:	f810 2b01 	ldrb.w	r2, [r0], #1
1a004586:	f811 3b01 	ldrb.w	r3, [r1], #1
1a00458a:	2a01      	cmp	r2, #1
1a00458c:	bf28      	it	cs
1a00458e:	429a      	cmpcs	r2, r3
1a004590:	d0f7      	beq.n	1a004582 <strcmp>
1a004592:	1ad0      	subs	r0, r2, r3
1a004594:	4770      	bx	lr

1a004596 <strlen>:
1a004596:	4603      	mov	r3, r0
1a004598:	f813 2b01 	ldrb.w	r2, [r3], #1
1a00459c:	2a00      	cmp	r2, #0
1a00459e:	d1fb      	bne.n	1a004598 <strlen+0x2>
1a0045a0:	1a18      	subs	r0, r3, r0
1a0045a2:	3801      	subs	r0, #1
1a0045a4:	4770      	bx	lr

1a0045a6 <strncmp>:
1a0045a6:	b510      	push	{r4, lr}
1a0045a8:	b16a      	cbz	r2, 1a0045c6 <strncmp+0x20>
1a0045aa:	3901      	subs	r1, #1
1a0045ac:	1884      	adds	r4, r0, r2
1a0045ae:	f810 3b01 	ldrb.w	r3, [r0], #1
1a0045b2:	f811 2f01 	ldrb.w	r2, [r1, #1]!
1a0045b6:	4293      	cmp	r3, r2
1a0045b8:	d103      	bne.n	1a0045c2 <strncmp+0x1c>
1a0045ba:	42a0      	cmp	r0, r4
1a0045bc:	d001      	beq.n	1a0045c2 <strncmp+0x1c>
1a0045be:	2b00      	cmp	r3, #0
1a0045c0:	d1f5      	bne.n	1a0045ae <strncmp+0x8>
1a0045c2:	1a98      	subs	r0, r3, r2
1a0045c4:	bd10      	pop	{r4, pc}
1a0045c6:	4610      	mov	r0, r2
1a0045c8:	e7fc      	b.n	1a0045c4 <strncmp+0x1e>

1a0045ca <sulp>:
1a0045ca:	b570      	push	{r4, r5, r6, lr}
1a0045cc:	4604      	mov	r4, r0
1a0045ce:	460d      	mov	r5, r1
1a0045d0:	ec45 4b10 	vmov	d0, r4, r5
1a0045d4:	4616      	mov	r6, r2
1a0045d6:	f001 fedb 	bl	1a006390 <__ulp>
1a0045da:	ec51 0b10 	vmov	r0, r1, d0
1a0045de:	b17e      	cbz	r6, 1a004600 <sulp+0x36>
1a0045e0:	f3c5 530a 	ubfx	r3, r5, #20, #11
1a0045e4:	f1c3 036b 	rsb	r3, r3, #107	; 0x6b
1a0045e8:	2b00      	cmp	r3, #0
1a0045ea:	dd09      	ble.n	1a004600 <sulp+0x36>
1a0045ec:	051b      	lsls	r3, r3, #20
1a0045ee:	f103 557f 	add.w	r5, r3, #1069547520	; 0x3fc00000
1a0045f2:	2400      	movs	r4, #0
1a0045f4:	f505 1540 	add.w	r5, r5, #3145728	; 0x300000
1a0045f8:	4622      	mov	r2, r4
1a0045fa:	462b      	mov	r3, r5
1a0045fc:	f7ff f9a6 	bl	1a00394c <__aeabi_dmul>
1a004600:	bd70      	pop	{r4, r5, r6, pc}
1a004602:	ffff ffff 			; <UNDEFINED> instruction: 0xffffffff
1a004606:	Address 0x1a004606 is out of bounds.


1a004608 <_strtod_l>:
1a004608:	e92d 4ff0 	stmdb	sp!, {r4, r5, r6, r7, r8, r9, sl, fp, lr}
1a00460c:	b0a1      	sub	sp, #132	; 0x84
1a00460e:	461f      	mov	r7, r3
1a004610:	2300      	movs	r3, #0
1a004612:	931c      	str	r3, [sp, #112]	; 0x70
1a004614:	4b9b      	ldr	r3, [pc, #620]	; (1a004884 <_strtod_l+0x27c>)
1a004616:	9004      	str	r0, [sp, #16]
1a004618:	681b      	ldr	r3, [r3, #0]
1a00461a:	9217      	str	r2, [sp, #92]	; 0x5c
1a00461c:	4618      	mov	r0, r3
1a00461e:	460e      	mov	r6, r1
1a004620:	9305      	str	r3, [sp, #20]
1a004622:	f7ff ffb8 	bl	1a004596 <strlen>
1a004626:	f04f 0a00 	mov.w	sl, #0
1a00462a:	4604      	mov	r4, r0
1a00462c:	f04f 0b00 	mov.w	fp, #0
1a004630:	961b      	str	r6, [sp, #108]	; 0x6c
1a004632:	9a1b      	ldr	r2, [sp, #108]	; 0x6c
1a004634:	7813      	ldrb	r3, [r2, #0]
1a004636:	2b0d      	cmp	r3, #13
1a004638:	d832      	bhi.n	1a0046a0 <_strtod_l+0x98>
1a00463a:	2b09      	cmp	r3, #9
1a00463c:	d236      	bcs.n	1a0046ac <_strtod_l+0xa4>
1a00463e:	2b00      	cmp	r3, #0
1a004640:	d03e      	beq.n	1a0046c0 <_strtod_l+0xb8>
1a004642:	2300      	movs	r3, #0
1a004644:	930c      	str	r3, [sp, #48]	; 0x30
1a004646:	9d1b      	ldr	r5, [sp, #108]	; 0x6c
1a004648:	782b      	ldrb	r3, [r5, #0]
1a00464a:	2b30      	cmp	r3, #48	; 0x30
1a00464c:	f040 80a9 	bne.w	1a0047a2 <_strtod_l+0x19a>
1a004650:	786b      	ldrb	r3, [r5, #1]
1a004652:	2b58      	cmp	r3, #88	; 0x58
1a004654:	d001      	beq.n	1a00465a <_strtod_l+0x52>
1a004656:	2b78      	cmp	r3, #120	; 0x78
1a004658:	d167      	bne.n	1a00472a <_strtod_l+0x122>
1a00465a:	9b0c      	ldr	r3, [sp, #48]	; 0x30
1a00465c:	9301      	str	r3, [sp, #4]
1a00465e:	ab1c      	add	r3, sp, #112	; 0x70
1a004660:	9300      	str	r3, [sp, #0]
1a004662:	9702      	str	r7, [sp, #8]
1a004664:	ab1d      	add	r3, sp, #116	; 0x74
1a004666:	4a88      	ldr	r2, [pc, #544]	; (1a004888 <_strtod_l+0x280>)
1a004668:	9804      	ldr	r0, [sp, #16]
1a00466a:	a91b      	add	r1, sp, #108	; 0x6c
1a00466c:	f001 f86a 	bl	1a005744 <__gethex>
1a004670:	f010 0407 	ands.w	r4, r0, #7
1a004674:	4606      	mov	r6, r0
1a004676:	d005      	beq.n	1a004684 <_strtod_l+0x7c>
1a004678:	2c06      	cmp	r4, #6
1a00467a:	d12b      	bne.n	1a0046d4 <_strtod_l+0xcc>
1a00467c:	3501      	adds	r5, #1
1a00467e:	2300      	movs	r3, #0
1a004680:	951b      	str	r5, [sp, #108]	; 0x6c
1a004682:	930c      	str	r3, [sp, #48]	; 0x30
1a004684:	9b17      	ldr	r3, [sp, #92]	; 0x5c
1a004686:	2b00      	cmp	r3, #0
1a004688:	f040 8576 	bne.w	1a005178 <_strtod_l+0xb70>
1a00468c:	9b0c      	ldr	r3, [sp, #48]	; 0x30
1a00468e:	b1e3      	cbz	r3, 1a0046ca <_strtod_l+0xc2>
1a004690:	4652      	mov	r2, sl
1a004692:	f10b 4300 	add.w	r3, fp, #2147483648	; 0x80000000
1a004696:	ec43 2b10 	vmov	d0, r2, r3
1a00469a:	b021      	add	sp, #132	; 0x84
1a00469c:	e8bd 8ff0 	ldmia.w	sp!, {r4, r5, r6, r7, r8, r9, sl, fp, pc}
1a0046a0:	2b2b      	cmp	r3, #43	; 0x2b
1a0046a2:	d006      	beq.n	1a0046b2 <_strtod_l+0xaa>
1a0046a4:	2b2d      	cmp	r3, #45	; 0x2d
1a0046a6:	d013      	beq.n	1a0046d0 <_strtod_l+0xc8>
1a0046a8:	2b20      	cmp	r3, #32
1a0046aa:	d1ca      	bne.n	1a004642 <_strtod_l+0x3a>
1a0046ac:	3201      	adds	r2, #1
1a0046ae:	921b      	str	r2, [sp, #108]	; 0x6c
1a0046b0:	e7bf      	b.n	1a004632 <_strtod_l+0x2a>
1a0046b2:	2300      	movs	r3, #0
1a0046b4:	930c      	str	r3, [sp, #48]	; 0x30
1a0046b6:	1c53      	adds	r3, r2, #1
1a0046b8:	931b      	str	r3, [sp, #108]	; 0x6c
1a0046ba:	7853      	ldrb	r3, [r2, #1]
1a0046bc:	2b00      	cmp	r3, #0
1a0046be:	d1c2      	bne.n	1a004646 <_strtod_l+0x3e>
1a0046c0:	9b17      	ldr	r3, [sp, #92]	; 0x5c
1a0046c2:	961b      	str	r6, [sp, #108]	; 0x6c
1a0046c4:	2b00      	cmp	r3, #0
1a0046c6:	f040 8555 	bne.w	1a005174 <_strtod_l+0xb6c>
1a0046ca:	4652      	mov	r2, sl
1a0046cc:	465b      	mov	r3, fp
1a0046ce:	e7e2      	b.n	1a004696 <_strtod_l+0x8e>
1a0046d0:	2301      	movs	r3, #1
1a0046d2:	e7ef      	b.n	1a0046b4 <_strtod_l+0xac>
1a0046d4:	9a1c      	ldr	r2, [sp, #112]	; 0x70
1a0046d6:	b13a      	cbz	r2, 1a0046e8 <_strtod_l+0xe0>
1a0046d8:	2135      	movs	r1, #53	; 0x35
1a0046da:	a81e      	add	r0, sp, #120	; 0x78
1a0046dc:	f001 ff4f 	bl	1a00657e <__copybits>
1a0046e0:	991c      	ldr	r1, [sp, #112]	; 0x70
1a0046e2:	9804      	ldr	r0, [sp, #16]
1a0046e4:	f001 fbc2 	bl	1a005e6c <_Bfree>
1a0046e8:	3c01      	subs	r4, #1
1a0046ea:	2c04      	cmp	r4, #4
1a0046ec:	d806      	bhi.n	1a0046fc <_strtod_l+0xf4>
1a0046ee:	e8df f004 	tbb	[pc, r4]
1a0046f2:	030a      	.short	0x030a
1a0046f4:	1714      	.short	0x1714
1a0046f6:	0a          	.byte	0x0a
1a0046f7:	00          	.byte	0x00
1a0046f8:	e9dd ab1e 	ldrd	sl, fp, [sp, #120]	; 0x78
1a0046fc:	0731      	lsls	r1, r6, #28
1a0046fe:	d5c1      	bpl.n	1a004684 <_strtod_l+0x7c>
1a004700:	f04b 4b00 	orr.w	fp, fp, #2147483648	; 0x80000000
1a004704:	e7be      	b.n	1a004684 <_strtod_l+0x7c>
1a004706:	e9dd a31e 	ldrd	sl, r3, [sp, #120]	; 0x78
1a00470a:	9a1d      	ldr	r2, [sp, #116]	; 0x74
1a00470c:	f423 1380 	bic.w	r3, r3, #1048576	; 0x100000
1a004710:	f202 4233 	addw	r2, r2, #1075	; 0x433
1a004714:	ea43 5b02 	orr.w	fp, r3, r2, lsl #20
1a004718:	e7f0      	b.n	1a0046fc <_strtod_l+0xf4>
1a00471a:	f8df b170 	ldr.w	fp, [pc, #368]	; 1a00488c <_strtod_l+0x284>
1a00471e:	e7ed      	b.n	1a0046fc <_strtod_l+0xf4>
1a004720:	f06f 4b00 	mvn.w	fp, #2147483648	; 0x80000000
1a004724:	f04f 3aff 	mov.w	sl, #4294967295
1a004728:	e7e8      	b.n	1a0046fc <_strtod_l+0xf4>
1a00472a:	9b1b      	ldr	r3, [sp, #108]	; 0x6c
1a00472c:	1c5a      	adds	r2, r3, #1
1a00472e:	921b      	str	r2, [sp, #108]	; 0x6c
1a004730:	785b      	ldrb	r3, [r3, #1]
1a004732:	2b30      	cmp	r3, #48	; 0x30
1a004734:	d0f9      	beq.n	1a00472a <_strtod_l+0x122>
1a004736:	2b00      	cmp	r3, #0
1a004738:	d0a4      	beq.n	1a004684 <_strtod_l+0x7c>
1a00473a:	2301      	movs	r3, #1
1a00473c:	f04f 0900 	mov.w	r9, #0
1a004740:	9306      	str	r3, [sp, #24]
1a004742:	9b1b      	ldr	r3, [sp, #108]	; 0x6c
1a004744:	9309      	str	r3, [sp, #36]	; 0x24
1a004746:	f8cd 901c 	str.w	r9, [sp, #28]
1a00474a:	46c8      	mov	r8, r9
1a00474c:	220a      	movs	r2, #10
1a00474e:	981b      	ldr	r0, [sp, #108]	; 0x6c
1a004750:	7805      	ldrb	r5, [r0, #0]
1a004752:	f1a5 0330 	sub.w	r3, r5, #48	; 0x30
1a004756:	b2d9      	uxtb	r1, r3
1a004758:	2909      	cmp	r1, #9
1a00475a:	d924      	bls.n	1a0047a6 <_strtod_l+0x19e>
1a00475c:	4622      	mov	r2, r4
1a00475e:	9905      	ldr	r1, [sp, #20]
1a004760:	f7ff ff21 	bl	1a0045a6 <strncmp>
1a004764:	b378      	cbz	r0, 1a0047c6 <_strtod_l+0x1be>
1a004766:	2000      	movs	r0, #0
1a004768:	462b      	mov	r3, r5
1a00476a:	4644      	mov	r4, r8
1a00476c:	9005      	str	r0, [sp, #20]
1a00476e:	4602      	mov	r2, r0
1a004770:	2b65      	cmp	r3, #101	; 0x65
1a004772:	d001      	beq.n	1a004778 <_strtod_l+0x170>
1a004774:	2b45      	cmp	r3, #69	; 0x45
1a004776:	d112      	bne.n	1a00479e <_strtod_l+0x196>
1a004778:	b91c      	cbnz	r4, 1a004782 <_strtod_l+0x17a>
1a00477a:	9b06      	ldr	r3, [sp, #24]
1a00477c:	4303      	orrs	r3, r0
1a00477e:	d09f      	beq.n	1a0046c0 <_strtod_l+0xb8>
1a004780:	2400      	movs	r4, #0
1a004782:	9e1b      	ldr	r6, [sp, #108]	; 0x6c
1a004784:	1c73      	adds	r3, r6, #1
1a004786:	931b      	str	r3, [sp, #108]	; 0x6c
1a004788:	7873      	ldrb	r3, [r6, #1]
1a00478a:	2b2b      	cmp	r3, #43	; 0x2b
1a00478c:	d072      	beq.n	1a004874 <_strtod_l+0x26c>
1a00478e:	2b2d      	cmp	r3, #45	; 0x2d
1a004790:	d075      	beq.n	1a00487e <_strtod_l+0x276>
1a004792:	2700      	movs	r7, #0
1a004794:	f1a3 0130 	sub.w	r1, r3, #48	; 0x30
1a004798:	2909      	cmp	r1, #9
1a00479a:	d97d      	bls.n	1a004898 <_strtod_l+0x290>
1a00479c:	961b      	str	r6, [sp, #108]	; 0x6c
1a00479e:	2500      	movs	r5, #0
1a0047a0:	e09a      	b.n	1a0048d8 <_strtod_l+0x2d0>
1a0047a2:	2300      	movs	r3, #0
1a0047a4:	e7ca      	b.n	1a00473c <_strtod_l+0x134>
1a0047a6:	f1b8 0f08 	cmp.w	r8, #8
1a0047aa:	bfd8      	it	le
1a0047ac:	9907      	ldrle	r1, [sp, #28]
1a0047ae:	f100 0001 	add.w	r0, r0, #1
1a0047b2:	bfda      	itte	le
1a0047b4:	fb02 3301 	mlale	r3, r2, r1, r3
1a0047b8:	9307      	strle	r3, [sp, #28]
1a0047ba:	fb02 3909 	mlagt	r9, r2, r9, r3
1a0047be:	f108 0801 	add.w	r8, r8, #1
1a0047c2:	901b      	str	r0, [sp, #108]	; 0x6c
1a0047c4:	e7c3      	b.n	1a00474e <_strtod_l+0x146>
1a0047c6:	9b1b      	ldr	r3, [sp, #108]	; 0x6c
1a0047c8:	191a      	adds	r2, r3, r4
1a0047ca:	921b      	str	r2, [sp, #108]	; 0x6c
1a0047cc:	5d1b      	ldrb	r3, [r3, r4]
1a0047ce:	f1b8 0f00 	cmp.w	r8, #0
1a0047d2:	d036      	beq.n	1a004842 <_strtod_l+0x23a>
1a0047d4:	9005      	str	r0, [sp, #20]
1a0047d6:	4644      	mov	r4, r8
1a0047d8:	f1a3 0230 	sub.w	r2, r3, #48	; 0x30
1a0047dc:	2a09      	cmp	r2, #9
1a0047de:	d912      	bls.n	1a004806 <_strtod_l+0x1fe>
1a0047e0:	2201      	movs	r2, #1
1a0047e2:	e7c5      	b.n	1a004770 <_strtod_l+0x168>
1a0047e4:	9b1b      	ldr	r3, [sp, #108]	; 0x6c
1a0047e6:	1c5a      	adds	r2, r3, #1
1a0047e8:	921b      	str	r2, [sp, #108]	; 0x6c
1a0047ea:	785b      	ldrb	r3, [r3, #1]
1a0047ec:	3001      	adds	r0, #1
1a0047ee:	2b30      	cmp	r3, #48	; 0x30
1a0047f0:	d0f8      	beq.n	1a0047e4 <_strtod_l+0x1dc>
1a0047f2:	f1a3 0231 	sub.w	r2, r3, #49	; 0x31
1a0047f6:	2a08      	cmp	r2, #8
1a0047f8:	f200 84c3 	bhi.w	1a005182 <_strtod_l+0xb7a>
1a0047fc:	9a1b      	ldr	r2, [sp, #108]	; 0x6c
1a0047fe:	9005      	str	r0, [sp, #20]
1a004800:	2000      	movs	r0, #0
1a004802:	9209      	str	r2, [sp, #36]	; 0x24
1a004804:	4604      	mov	r4, r0
1a004806:	3b30      	subs	r3, #48	; 0x30
1a004808:	f100 0201 	add.w	r2, r0, #1
1a00480c:	d013      	beq.n	1a004836 <_strtod_l+0x22e>
1a00480e:	9905      	ldr	r1, [sp, #20]
1a004810:	4411      	add	r1, r2
1a004812:	9105      	str	r1, [sp, #20]
1a004814:	4622      	mov	r2, r4
1a004816:	1905      	adds	r5, r0, r4
1a004818:	210a      	movs	r1, #10
1a00481a:	42aa      	cmp	r2, r5
1a00481c:	d113      	bne.n	1a004846 <_strtod_l+0x23e>
1a00481e:	1822      	adds	r2, r4, r0
1a004820:	2a08      	cmp	r2, #8
1a004822:	f104 0401 	add.w	r4, r4, #1
1a004826:	4404      	add	r4, r0
1a004828:	dc1a      	bgt.n	1a004860 <_strtod_l+0x258>
1a00482a:	9907      	ldr	r1, [sp, #28]
1a00482c:	220a      	movs	r2, #10
1a00482e:	fb02 3301 	mla	r3, r2, r1, r3
1a004832:	9307      	str	r3, [sp, #28]
1a004834:	2200      	movs	r2, #0
1a004836:	9b1b      	ldr	r3, [sp, #108]	; 0x6c
1a004838:	1c59      	adds	r1, r3, #1
1a00483a:	911b      	str	r1, [sp, #108]	; 0x6c
1a00483c:	785b      	ldrb	r3, [r3, #1]
1a00483e:	4610      	mov	r0, r2
1a004840:	e7ca      	b.n	1a0047d8 <_strtod_l+0x1d0>
1a004842:	4640      	mov	r0, r8
1a004844:	e7d3      	b.n	1a0047ee <_strtod_l+0x1e6>
1a004846:	2a08      	cmp	r2, #8
1a004848:	dc04      	bgt.n	1a004854 <_strtod_l+0x24c>
1a00484a:	9f07      	ldr	r7, [sp, #28]
1a00484c:	434f      	muls	r7, r1
1a00484e:	9707      	str	r7, [sp, #28]
1a004850:	3201      	adds	r2, #1
1a004852:	e7e2      	b.n	1a00481a <_strtod_l+0x212>
1a004854:	1c57      	adds	r7, r2, #1
1a004856:	2f10      	cmp	r7, #16
1a004858:	bfd8      	it	le
1a00485a:	fb01 f909 	mulle.w	r9, r1, r9
1a00485e:	e7f7      	b.n	1a004850 <_strtod_l+0x248>
1a004860:	2c10      	cmp	r4, #16
1a004862:	bfdc      	itt	le
1a004864:	220a      	movle	r2, #10
1a004866:	fb02 3909 	mlale	r9, r2, r9, r3
1a00486a:	e7e3      	b.n	1a004834 <_strtod_l+0x22c>
1a00486c:	2300      	movs	r3, #0
1a00486e:	9305      	str	r3, [sp, #20]
1a004870:	2201      	movs	r2, #1
1a004872:	e782      	b.n	1a00477a <_strtod_l+0x172>
1a004874:	2700      	movs	r7, #0
1a004876:	1cb3      	adds	r3, r6, #2
1a004878:	931b      	str	r3, [sp, #108]	; 0x6c
1a00487a:	78b3      	ldrb	r3, [r6, #2]
1a00487c:	e78a      	b.n	1a004794 <_strtod_l+0x18c>
1a00487e:	2701      	movs	r7, #1
1a004880:	e7f9      	b.n	1a004876 <_strtod_l+0x26e>
1a004882:	bf00      	nop
1a004884:	1a007e6c 	.word	0x1a007e6c
1a004888:	1a007db4 	.word	0x1a007db4
1a00488c:	7ff00000 	.word	0x7ff00000
1a004890:	9b1b      	ldr	r3, [sp, #108]	; 0x6c
1a004892:	1c59      	adds	r1, r3, #1
1a004894:	911b      	str	r1, [sp, #108]	; 0x6c
1a004896:	785b      	ldrb	r3, [r3, #1]
1a004898:	2b30      	cmp	r3, #48	; 0x30
1a00489a:	d0f9      	beq.n	1a004890 <_strtod_l+0x288>
1a00489c:	f1a3 0131 	sub.w	r1, r3, #49	; 0x31
1a0048a0:	2908      	cmp	r1, #8
1a0048a2:	f63f af7c 	bhi.w	1a00479e <_strtod_l+0x196>
1a0048a6:	f1a3 0c30 	sub.w	ip, r3, #48	; 0x30
1a0048aa:	9b1b      	ldr	r3, [sp, #108]	; 0x6c
1a0048ac:	9308      	str	r3, [sp, #32]
1a0048ae:	f04f 0e0a 	mov.w	lr, #10
1a0048b2:	9b1b      	ldr	r3, [sp, #108]	; 0x6c
1a0048b4:	1c59      	adds	r1, r3, #1
1a0048b6:	911b      	str	r1, [sp, #108]	; 0x6c
1a0048b8:	785b      	ldrb	r3, [r3, #1]
1a0048ba:	f1a3 0530 	sub.w	r5, r3, #48	; 0x30
1a0048be:	2d09      	cmp	r5, #9
1a0048c0:	d92e      	bls.n	1a004920 <_strtod_l+0x318>
1a0048c2:	9d08      	ldr	r5, [sp, #32]
1a0048c4:	1b49      	subs	r1, r1, r5
1a0048c6:	2908      	cmp	r1, #8
1a0048c8:	f644 651f 	movw	r5, #19999	; 0x4e1f
1a0048cc:	dc02      	bgt.n	1a0048d4 <_strtod_l+0x2cc>
1a0048ce:	4565      	cmp	r5, ip
1a0048d0:	bfa8      	it	ge
1a0048d2:	4665      	movge	r5, ip
1a0048d4:	b107      	cbz	r7, 1a0048d8 <_strtod_l+0x2d0>
1a0048d6:	426d      	negs	r5, r5
1a0048d8:	2c00      	cmp	r4, #0
1a0048da:	d14b      	bne.n	1a004974 <_strtod_l+0x36c>
1a0048dc:	9906      	ldr	r1, [sp, #24]
1a0048de:	4301      	orrs	r1, r0
1a0048e0:	f47f aed0 	bne.w	1a004684 <_strtod_l+0x7c>
1a0048e4:	2a00      	cmp	r2, #0
1a0048e6:	f47f aeeb 	bne.w	1a0046c0 <_strtod_l+0xb8>
1a0048ea:	2b4e      	cmp	r3, #78	; 0x4e
1a0048ec:	d022      	beq.n	1a004934 <_strtod_l+0x32c>
1a0048ee:	dc1c      	bgt.n	1a00492a <_strtod_l+0x322>
1a0048f0:	2b49      	cmp	r3, #73	; 0x49
1a0048f2:	f47f aee5 	bne.w	1a0046c0 <_strtod_l+0xb8>
1a0048f6:	499a      	ldr	r1, [pc, #616]	; (1a004b60 <_strtod_l+0x558>)
1a0048f8:	a81b      	add	r0, sp, #108	; 0x6c
1a0048fa:	f001 f959 	bl	1a005bb0 <__match>
1a0048fe:	2800      	cmp	r0, #0
1a004900:	f43f aede 	beq.w	1a0046c0 <_strtod_l+0xb8>
1a004904:	9b1b      	ldr	r3, [sp, #108]	; 0x6c
1a004906:	4997      	ldr	r1, [pc, #604]	; (1a004b64 <_strtod_l+0x55c>)
1a004908:	3b01      	subs	r3, #1
1a00490a:	a81b      	add	r0, sp, #108	; 0x6c
1a00490c:	931b      	str	r3, [sp, #108]	; 0x6c
1a00490e:	f001 f94f 	bl	1a005bb0 <__match>
1a004912:	b910      	cbnz	r0, 1a00491a <_strtod_l+0x312>
1a004914:	9b1b      	ldr	r3, [sp, #108]	; 0x6c
1a004916:	3301      	adds	r3, #1
1a004918:	931b      	str	r3, [sp, #108]	; 0x6c
1a00491a:	f8df b260 	ldr.w	fp, [pc, #608]	; 1a004b7c <_strtod_l+0x574>
1a00491e:	e6b1      	b.n	1a004684 <_strtod_l+0x7c>
1a004920:	fb0e 3c0c 	mla	ip, lr, ip, r3
1a004924:	f1ac 0c30 	sub.w	ip, ip, #48	; 0x30
1a004928:	e7c3      	b.n	1a0048b2 <_strtod_l+0x2aa>
1a00492a:	2b69      	cmp	r3, #105	; 0x69
1a00492c:	d0e3      	beq.n	1a0048f6 <_strtod_l+0x2ee>
1a00492e:	2b6e      	cmp	r3, #110	; 0x6e
1a004930:	f47f aec6 	bne.w	1a0046c0 <_strtod_l+0xb8>
1a004934:	498c      	ldr	r1, [pc, #560]	; (1a004b68 <_strtod_l+0x560>)
1a004936:	a81b      	add	r0, sp, #108	; 0x6c
1a004938:	f001 f93a 	bl	1a005bb0 <__match>
1a00493c:	2800      	cmp	r0, #0
1a00493e:	f43f aebf 	beq.w	1a0046c0 <_strtod_l+0xb8>
1a004942:	9b1b      	ldr	r3, [sp, #108]	; 0x6c
1a004944:	781b      	ldrb	r3, [r3, #0]
1a004946:	2b28      	cmp	r3, #40	; 0x28
1a004948:	d10e      	bne.n	1a004968 <_strtod_l+0x360>
1a00494a:	aa1e      	add	r2, sp, #120	; 0x78
1a00494c:	4987      	ldr	r1, [pc, #540]	; (1a004b6c <_strtod_l+0x564>)
1a00494e:	a81b      	add	r0, sp, #108	; 0x6c
1a004950:	f001 f942 	bl	1a005bd8 <__hexnan>
1a004954:	2805      	cmp	r0, #5
1a004956:	d107      	bne.n	1a004968 <_strtod_l+0x360>
1a004958:	9b1f      	ldr	r3, [sp, #124]	; 0x7c
1a00495a:	f8dd a078 	ldr.w	sl, [sp, #120]	; 0x78
1a00495e:	f043 4bff 	orr.w	fp, r3, #2139095040	; 0x7f800000
1a004962:	f44b 0be0 	orr.w	fp, fp, #7340032	; 0x700000
1a004966:	e68d      	b.n	1a004684 <_strtod_l+0x7c>
1a004968:	4881      	ldr	r0, [pc, #516]	; (1a004b70 <_strtod_l+0x568>)
1a00496a:	f002 fd95 	bl	1a007498 <nan>
1a00496e:	ec5b ab10 	vmov	sl, fp, d0
1a004972:	e687      	b.n	1a004684 <_strtod_l+0x7c>
1a004974:	9b05      	ldr	r3, [sp, #20]
1a004976:	9807      	ldr	r0, [sp, #28]
1a004978:	1aeb      	subs	r3, r5, r3
1a00497a:	f1b8 0f00 	cmp.w	r8, #0
1a00497e:	bf08      	it	eq
1a004980:	46a0      	moveq	r8, r4
1a004982:	2c10      	cmp	r4, #16
1a004984:	9308      	str	r3, [sp, #32]
1a004986:	4626      	mov	r6, r4
1a004988:	bfa8      	it	ge
1a00498a:	2610      	movge	r6, #16
1a00498c:	f7fe ff64 	bl	1a003858 <__aeabi_ui2d>
1a004990:	2c09      	cmp	r4, #9
1a004992:	4682      	mov	sl, r0
1a004994:	468b      	mov	fp, r1
1a004996:	dd13      	ble.n	1a0049c0 <_strtod_l+0x3b8>
1a004998:	4b76      	ldr	r3, [pc, #472]	; (1a004b74 <_strtod_l+0x56c>)
1a00499a:	eb03 03c6 	add.w	r3, r3, r6, lsl #3
1a00499e:	e953 2312 	ldrd	r2, r3, [r3, #-72]	; 0x48
1a0049a2:	f7fe ffd3 	bl	1a00394c <__aeabi_dmul>
1a0049a6:	4682      	mov	sl, r0
1a0049a8:	4648      	mov	r0, r9
1a0049aa:	468b      	mov	fp, r1
1a0049ac:	f7fe ff54 	bl	1a003858 <__aeabi_ui2d>
1a0049b0:	4602      	mov	r2, r0
1a0049b2:	460b      	mov	r3, r1
1a0049b4:	4650      	mov	r0, sl
1a0049b6:	4659      	mov	r1, fp
1a0049b8:	f7fe fe12 	bl	1a0035e0 <__adddf3>
1a0049bc:	4682      	mov	sl, r0
1a0049be:	468b      	mov	fp, r1
1a0049c0:	2c0f      	cmp	r4, #15
1a0049c2:	dc38      	bgt.n	1a004a36 <_strtod_l+0x42e>
1a0049c4:	9b08      	ldr	r3, [sp, #32]
1a0049c6:	2b00      	cmp	r3, #0
1a0049c8:	f43f ae5c 	beq.w	1a004684 <_strtod_l+0x7c>
1a0049cc:	dd24      	ble.n	1a004a18 <_strtod_l+0x410>
1a0049ce:	2b16      	cmp	r3, #22
1a0049d0:	dc0b      	bgt.n	1a0049ea <_strtod_l+0x3e2>
1a0049d2:	4c68      	ldr	r4, [pc, #416]	; (1a004b74 <_strtod_l+0x56c>)
1a0049d4:	eb04 04c3 	add.w	r4, r4, r3, lsl #3
1a0049d8:	e9d4 0100 	ldrd	r0, r1, [r4]
1a0049dc:	4652      	mov	r2, sl
1a0049de:	465b      	mov	r3, fp
1a0049e0:	f7fe ffb4 	bl	1a00394c <__aeabi_dmul>
1a0049e4:	4682      	mov	sl, r0
1a0049e6:	468b      	mov	fp, r1
1a0049e8:	e64c      	b.n	1a004684 <_strtod_l+0x7c>
1a0049ea:	9a08      	ldr	r2, [sp, #32]
1a0049ec:	f1c4 0325 	rsb	r3, r4, #37	; 0x25
1a0049f0:	4293      	cmp	r3, r2
1a0049f2:	db20      	blt.n	1a004a36 <_strtod_l+0x42e>
1a0049f4:	4d5f      	ldr	r5, [pc, #380]	; (1a004b74 <_strtod_l+0x56c>)
1a0049f6:	f1c4 040f 	rsb	r4, r4, #15
1a0049fa:	eb05 01c4 	add.w	r1, r5, r4, lsl #3
1a0049fe:	4652      	mov	r2, sl
1a004a00:	465b      	mov	r3, fp
1a004a02:	e9d1 0100 	ldrd	r0, r1, [r1]
1a004a06:	f7fe ffa1 	bl	1a00394c <__aeabi_dmul>
1a004a0a:	9b08      	ldr	r3, [sp, #32]
1a004a0c:	1b1c      	subs	r4, r3, r4
1a004a0e:	eb05 05c4 	add.w	r5, r5, r4, lsl #3
1a004a12:	e9d5 2300 	ldrd	r2, r3, [r5]
1a004a16:	e7e3      	b.n	1a0049e0 <_strtod_l+0x3d8>
1a004a18:	9b08      	ldr	r3, [sp, #32]
1a004a1a:	3316      	adds	r3, #22
1a004a1c:	db0b      	blt.n	1a004a36 <_strtod_l+0x42e>
1a004a1e:	9b05      	ldr	r3, [sp, #20]
1a004a20:	4a54      	ldr	r2, [pc, #336]	; (1a004b74 <_strtod_l+0x56c>)
1a004a22:	1b5d      	subs	r5, r3, r5
1a004a24:	eb02 05c5 	add.w	r5, r2, r5, lsl #3
1a004a28:	e9d5 2300 	ldrd	r2, r3, [r5]
1a004a2c:	4650      	mov	r0, sl
1a004a2e:	4659      	mov	r1, fp
1a004a30:	f7ff f8b6 	bl	1a003ba0 <__aeabi_ddiv>
1a004a34:	e7d6      	b.n	1a0049e4 <_strtod_l+0x3dc>
1a004a36:	9b08      	ldr	r3, [sp, #32]
1a004a38:	1ba6      	subs	r6, r4, r6
1a004a3a:	441e      	add	r6, r3
1a004a3c:	2e00      	cmp	r6, #0
1a004a3e:	dd6e      	ble.n	1a004b1e <_strtod_l+0x516>
1a004a40:	f016 030f 	ands.w	r3, r6, #15
1a004a44:	d00a      	beq.n	1a004a5c <_strtod_l+0x454>
1a004a46:	494b      	ldr	r1, [pc, #300]	; (1a004b74 <_strtod_l+0x56c>)
1a004a48:	eb01 01c3 	add.w	r1, r1, r3, lsl #3
1a004a4c:	4652      	mov	r2, sl
1a004a4e:	465b      	mov	r3, fp
1a004a50:	e9d1 0100 	ldrd	r0, r1, [r1]
1a004a54:	f7fe ff7a 	bl	1a00394c <__aeabi_dmul>
1a004a58:	4682      	mov	sl, r0
1a004a5a:	468b      	mov	fp, r1
1a004a5c:	f036 060f 	bics.w	r6, r6, #15
1a004a60:	d04e      	beq.n	1a004b00 <_strtod_l+0x4f8>
1a004a62:	f5b6 7f9a 	cmp.w	r6, #308	; 0x134
1a004a66:	dd23      	ble.n	1a004ab0 <_strtod_l+0x4a8>
1a004a68:	2400      	movs	r4, #0
1a004a6a:	9405      	str	r4, [sp, #20]
1a004a6c:	9409      	str	r4, [sp, #36]	; 0x24
1a004a6e:	9407      	str	r4, [sp, #28]
1a004a70:	9a04      	ldr	r2, [sp, #16]
1a004a72:	f8df b108 	ldr.w	fp, [pc, #264]	; 1a004b7c <_strtod_l+0x574>
1a004a76:	2322      	movs	r3, #34	; 0x22
1a004a78:	6013      	str	r3, [r2, #0]
1a004a7a:	f04f 0a00 	mov.w	sl, #0
1a004a7e:	9b09      	ldr	r3, [sp, #36]	; 0x24
1a004a80:	2b00      	cmp	r3, #0
1a004a82:	f43f adff 	beq.w	1a004684 <_strtod_l+0x7c>
1a004a86:	991c      	ldr	r1, [sp, #112]	; 0x70
1a004a88:	9804      	ldr	r0, [sp, #16]
1a004a8a:	f001 f9ef 	bl	1a005e6c <_Bfree>
1a004a8e:	9907      	ldr	r1, [sp, #28]
1a004a90:	9804      	ldr	r0, [sp, #16]
1a004a92:	f001 f9eb 	bl	1a005e6c <_Bfree>
1a004a96:	e9dd 0104 	ldrd	r0, r1, [sp, #16]
1a004a9a:	f001 f9e7 	bl	1a005e6c <_Bfree>
1a004a9e:	9909      	ldr	r1, [sp, #36]	; 0x24
1a004aa0:	9804      	ldr	r0, [sp, #16]
1a004aa2:	f001 f9e3 	bl	1a005e6c <_Bfree>
1a004aa6:	4621      	mov	r1, r4
1a004aa8:	9804      	ldr	r0, [sp, #16]
1a004aaa:	f001 f9df 	bl	1a005e6c <_Bfree>
1a004aae:	e5e9      	b.n	1a004684 <_strtod_l+0x7c>
1a004ab0:	2300      	movs	r3, #0
1a004ab2:	f8df 90c4 	ldr.w	r9, [pc, #196]	; 1a004b78 <_strtod_l+0x570>
1a004ab6:	1136      	asrs	r6, r6, #4
1a004ab8:	4650      	mov	r0, sl
1a004aba:	4659      	mov	r1, fp
1a004abc:	461f      	mov	r7, r3
1a004abe:	2e01      	cmp	r6, #1
1a004ac0:	dc21      	bgt.n	1a004b06 <_strtod_l+0x4fe>
1a004ac2:	b10b      	cbz	r3, 1a004ac8 <_strtod_l+0x4c0>
1a004ac4:	4682      	mov	sl, r0
1a004ac6:	468b      	mov	fp, r1
1a004ac8:	4b2b      	ldr	r3, [pc, #172]	; (1a004b78 <_strtod_l+0x570>)
1a004aca:	f1ab 7b54 	sub.w	fp, fp, #55574528	; 0x3500000
1a004ace:	eb03 07c7 	add.w	r7, r3, r7, lsl #3
1a004ad2:	4652      	mov	r2, sl
1a004ad4:	465b      	mov	r3, fp
1a004ad6:	e9d7 0100 	ldrd	r0, r1, [r7]
1a004ada:	f7fe ff37 	bl	1a00394c <__aeabi_dmul>
1a004ade:	4b27      	ldr	r3, [pc, #156]	; (1a004b7c <_strtod_l+0x574>)
1a004ae0:	460a      	mov	r2, r1
1a004ae2:	400b      	ands	r3, r1
1a004ae4:	4926      	ldr	r1, [pc, #152]	; (1a004b80 <_strtod_l+0x578>)
1a004ae6:	428b      	cmp	r3, r1
1a004ae8:	4682      	mov	sl, r0
1a004aea:	d8bd      	bhi.n	1a004a68 <_strtod_l+0x460>
1a004aec:	f5a1 1180 	sub.w	r1, r1, #1048576	; 0x100000
1a004af0:	428b      	cmp	r3, r1
1a004af2:	bf86      	itte	hi
1a004af4:	f8df b08c 	ldrhi.w	fp, [pc, #140]	; 1a004b84 <_strtod_l+0x57c>
1a004af8:	f04f 3aff 	movhi.w	sl, #4294967295
1a004afc:	f102 7b54 	addls.w	fp, r2, #55574528	; 0x3500000
1a004b00:	2300      	movs	r3, #0
1a004b02:	9306      	str	r3, [sp, #24]
1a004b04:	e079      	b.n	1a004bfa <_strtod_l+0x5f2>
1a004b06:	07f2      	lsls	r2, r6, #31
1a004b08:	d506      	bpl.n	1a004b18 <_strtod_l+0x510>
1a004b0a:	eb09 03c7 	add.w	r3, r9, r7, lsl #3
1a004b0e:	e9d3 2300 	ldrd	r2, r3, [r3]
1a004b12:	f7fe ff1b 	bl	1a00394c <__aeabi_dmul>
1a004b16:	2301      	movs	r3, #1
1a004b18:	3701      	adds	r7, #1
1a004b1a:	1076      	asrs	r6, r6, #1
1a004b1c:	e7cf      	b.n	1a004abe <_strtod_l+0x4b6>
1a004b1e:	d0ef      	beq.n	1a004b00 <_strtod_l+0x4f8>
1a004b20:	4276      	negs	r6, r6
1a004b22:	f016 020f 	ands.w	r2, r6, #15
1a004b26:	d00a      	beq.n	1a004b3e <_strtod_l+0x536>
1a004b28:	4b12      	ldr	r3, [pc, #72]	; (1a004b74 <_strtod_l+0x56c>)
1a004b2a:	eb03 03c2 	add.w	r3, r3, r2, lsl #3
1a004b2e:	4650      	mov	r0, sl
1a004b30:	4659      	mov	r1, fp
1a004b32:	e9d3 2300 	ldrd	r2, r3, [r3]
1a004b36:	f7ff f833 	bl	1a003ba0 <__aeabi_ddiv>
1a004b3a:	4682      	mov	sl, r0
1a004b3c:	468b      	mov	fp, r1
1a004b3e:	1136      	asrs	r6, r6, #4
1a004b40:	d0de      	beq.n	1a004b00 <_strtod_l+0x4f8>
1a004b42:	2e1f      	cmp	r6, #31
1a004b44:	dd20      	ble.n	1a004b88 <_strtod_l+0x580>
1a004b46:	2400      	movs	r4, #0
1a004b48:	9405      	str	r4, [sp, #20]
1a004b4a:	9409      	str	r4, [sp, #36]	; 0x24
1a004b4c:	9407      	str	r4, [sp, #28]
1a004b4e:	9a04      	ldr	r2, [sp, #16]
1a004b50:	2322      	movs	r3, #34	; 0x22
1a004b52:	f04f 0a00 	mov.w	sl, #0
1a004b56:	f04f 0b00 	mov.w	fp, #0
1a004b5a:	6013      	str	r3, [r2, #0]
1a004b5c:	e78f      	b.n	1a004a7e <_strtod_l+0x476>
1a004b5e:	bf00      	nop
1a004b60:	1a007da5 	.word	0x1a007da5
1a004b64:	1a007da8 	.word	0x1a007da8
1a004b68:	1a007dae 	.word	0x1a007dae
1a004b6c:	1a007dc8 	.word	0x1a007dc8
1a004b70:	1a007f89 	.word	0x1a007f89
1a004b74:	1a007eb0 	.word	0x1a007eb0
1a004b78:	1a007e88 	.word	0x1a007e88
1a004b7c:	7ff00000 	.word	0x7ff00000
1a004b80:	7ca00000 	.word	0x7ca00000
1a004b84:	7fefffff 	.word	0x7fefffff
1a004b88:	f016 0310 	ands.w	r3, r6, #16
1a004b8c:	bf18      	it	ne
1a004b8e:	236a      	movne	r3, #106	; 0x6a
1a004b90:	4fae      	ldr	r7, [pc, #696]	; (1a004e4c <_strtod_l+0x844>)
1a004b92:	9306      	str	r3, [sp, #24]
1a004b94:	4650      	mov	r0, sl
1a004b96:	4659      	mov	r1, fp
1a004b98:	2300      	movs	r3, #0
1a004b9a:	07f2      	lsls	r2, r6, #31
1a004b9c:	d504      	bpl.n	1a004ba8 <_strtod_l+0x5a0>
1a004b9e:	e9d7 2300 	ldrd	r2, r3, [r7]
1a004ba2:	f7fe fed3 	bl	1a00394c <__aeabi_dmul>
1a004ba6:	2301      	movs	r3, #1
1a004ba8:	1076      	asrs	r6, r6, #1
1a004baa:	f107 0708 	add.w	r7, r7, #8
1a004bae:	d1f4      	bne.n	1a004b9a <_strtod_l+0x592>
1a004bb0:	b10b      	cbz	r3, 1a004bb6 <_strtod_l+0x5ae>
1a004bb2:	4682      	mov	sl, r0
1a004bb4:	468b      	mov	fp, r1
1a004bb6:	9b06      	ldr	r3, [sp, #24]
1a004bb8:	b1bb      	cbz	r3, 1a004bea <_strtod_l+0x5e2>
1a004bba:	f3cb 530a 	ubfx	r3, fp, #20, #11
1a004bbe:	f1c3 036b 	rsb	r3, r3, #107	; 0x6b
1a004bc2:	2b00      	cmp	r3, #0
1a004bc4:	4659      	mov	r1, fp
1a004bc6:	dd10      	ble.n	1a004bea <_strtod_l+0x5e2>
1a004bc8:	2b1f      	cmp	r3, #31
1a004bca:	f340 8129 	ble.w	1a004e20 <_strtod_l+0x818>
1a004bce:	2b34      	cmp	r3, #52	; 0x34
1a004bd0:	bfde      	ittt	le
1a004bd2:	3b20      	suble	r3, #32
1a004bd4:	f04f 32ff 	movle.w	r2, #4294967295
1a004bd8:	fa02 f303 	lslle.w	r3, r2, r3
1a004bdc:	f04f 0a00 	mov.w	sl, #0
1a004be0:	bfcc      	ite	gt
1a004be2:	f04f 7b5c 	movgt.w	fp, #57671680	; 0x3700000
1a004be6:	ea03 0b01 	andle.w	fp, r3, r1
1a004bea:	2200      	movs	r2, #0
1a004bec:	2300      	movs	r3, #0
1a004bee:	4650      	mov	r0, sl
1a004bf0:	4659      	mov	r1, fp
1a004bf2:	f7ff f913 	bl	1a003e1c <__aeabi_dcmpeq>
1a004bf6:	2800      	cmp	r0, #0
1a004bf8:	d1a5      	bne.n	1a004b46 <_strtod_l+0x53e>
1a004bfa:	9b07      	ldr	r3, [sp, #28]
1a004bfc:	9300      	str	r3, [sp, #0]
1a004bfe:	4642      	mov	r2, r8
1a004c00:	4623      	mov	r3, r4
1a004c02:	9909      	ldr	r1, [sp, #36]	; 0x24
1a004c04:	9804      	ldr	r0, [sp, #16]
1a004c06:	f001 f983 	bl	1a005f10 <__s2b>
1a004c0a:	9009      	str	r0, [sp, #36]	; 0x24
1a004c0c:	2800      	cmp	r0, #0
1a004c0e:	f43f af2b 	beq.w	1a004a68 <_strtod_l+0x460>
1a004c12:	9b05      	ldr	r3, [sp, #20]
1a004c14:	1b5d      	subs	r5, r3, r5
1a004c16:	9b08      	ldr	r3, [sp, #32]
1a004c18:	2b00      	cmp	r3, #0
1a004c1a:	bfb4      	ite	lt
1a004c1c:	462b      	movlt	r3, r5
1a004c1e:	2300      	movge	r3, #0
1a004c20:	930e      	str	r3, [sp, #56]	; 0x38
1a004c22:	9b08      	ldr	r3, [sp, #32]
1a004c24:	2400      	movs	r4, #0
1a004c26:	ea23 73e3 	bic.w	r3, r3, r3, asr #31
1a004c2a:	9316      	str	r3, [sp, #88]	; 0x58
1a004c2c:	9405      	str	r4, [sp, #20]
1a004c2e:	9b09      	ldr	r3, [sp, #36]	; 0x24
1a004c30:	9804      	ldr	r0, [sp, #16]
1a004c32:	6859      	ldr	r1, [r3, #4]
1a004c34:	f001 f8e6 	bl	1a005e04 <_Balloc>
1a004c38:	9007      	str	r0, [sp, #28]
1a004c3a:	2800      	cmp	r0, #0
1a004c3c:	f43f af18 	beq.w	1a004a70 <_strtod_l+0x468>
1a004c40:	9b09      	ldr	r3, [sp, #36]	; 0x24
1a004c42:	691a      	ldr	r2, [r3, #16]
1a004c44:	3202      	adds	r2, #2
1a004c46:	f103 010c 	add.w	r1, r3, #12
1a004c4a:	0092      	lsls	r2, r2, #2
1a004c4c:	300c      	adds	r0, #12
1a004c4e:	f7ff fb2b 	bl	1a0042a8 <memcpy>
1a004c52:	aa1e      	add	r2, sp, #120	; 0x78
1a004c54:	a91d      	add	r1, sp, #116	; 0x74
1a004c56:	ec4b ab10 	vmov	d0, sl, fp
1a004c5a:	9804      	ldr	r0, [sp, #16]
1a004c5c:	e9cd ab0a 	strd	sl, fp, [sp, #40]	; 0x28
1a004c60:	f001 fc0c 	bl	1a00647c <__d2b>
1a004c64:	901c      	str	r0, [sp, #112]	; 0x70
1a004c66:	2800      	cmp	r0, #0
1a004c68:	f43f af02 	beq.w	1a004a70 <_strtod_l+0x468>
1a004c6c:	2101      	movs	r1, #1
1a004c6e:	9804      	ldr	r0, [sp, #16]
1a004c70:	f001 f9dc 	bl	1a00602c <__i2b>
1a004c74:	9005      	str	r0, [sp, #20]
1a004c76:	4603      	mov	r3, r0
1a004c78:	2800      	cmp	r0, #0
1a004c7a:	f43f aef9 	beq.w	1a004a70 <_strtod_l+0x468>
1a004c7e:	9e1d      	ldr	r6, [sp, #116]	; 0x74
1a004c80:	9a1e      	ldr	r2, [sp, #120]	; 0x78
1a004c82:	2e00      	cmp	r6, #0
1a004c84:	bfab      	itete	ge
1a004c86:	9b0e      	ldrge	r3, [sp, #56]	; 0x38
1a004c88:	9b16      	ldrlt	r3, [sp, #88]	; 0x58
1a004c8a:	9d16      	ldrge	r5, [sp, #88]	; 0x58
1a004c8c:	9f0e      	ldrlt	r7, [sp, #56]	; 0x38
1a004c8e:	bfac      	ite	ge
1a004c90:	18f7      	addge	r7, r6, r3
1a004c92:	1b9d      	sublt	r5, r3, r6
1a004c94:	9b06      	ldr	r3, [sp, #24]
1a004c96:	1af6      	subs	r6, r6, r3
1a004c98:	4416      	add	r6, r2
1a004c9a:	4b6d      	ldr	r3, [pc, #436]	; (1a004e50 <_strtod_l+0x848>)
1a004c9c:	3e01      	subs	r6, #1
1a004c9e:	429e      	cmp	r6, r3
1a004ca0:	f1c2 0236 	rsb	r2, r2, #54	; 0x36
1a004ca4:	f280 80c3 	bge.w	1a004e2e <_strtod_l+0x826>
1a004ca8:	1b9b      	subs	r3, r3, r6
1a004caa:	2b1f      	cmp	r3, #31
1a004cac:	bfc2      	ittt	gt
1a004cae:	f1c6 467f 	rsbgt	r6, r6, #4278190080	; 0xff000000
1a004cb2:	f506 067f 	addgt.w	r6, r6, #16711680	; 0xff0000
1a004cb6:	f506 467b 	addgt.w	r6, r6, #64256	; 0xfb00
1a004cba:	f04f 0801 	mov.w	r8, #1
1a004cbe:	bfc8      	it	gt
1a004cc0:	36e2      	addgt	r6, #226	; 0xe2
1a004cc2:	eba2 0203 	sub.w	r2, r2, r3
1a004cc6:	bfda      	itte	le
1a004cc8:	fa08 f803 	lslle.w	r8, r8, r3
1a004ccc:	2600      	movle	r6, #0
1a004cce:	fa08 f606 	lslgt.w	r6, r8, r6
1a004cd2:	eb07 0902 	add.w	r9, r7, r2
1a004cd6:	9b06      	ldr	r3, [sp, #24]
1a004cd8:	454f      	cmp	r7, r9
1a004cda:	4415      	add	r5, r2
1a004cdc:	441d      	add	r5, r3
1a004cde:	463b      	mov	r3, r7
1a004ce0:	bfa8      	it	ge
1a004ce2:	464b      	movge	r3, r9
1a004ce4:	42ab      	cmp	r3, r5
1a004ce6:	bfa8      	it	ge
1a004ce8:	462b      	movge	r3, r5
1a004cea:	2b00      	cmp	r3, #0
1a004cec:	bfc2      	ittt	gt
1a004cee:	eba9 0903 	subgt.w	r9, r9, r3
1a004cf2:	1aed      	subgt	r5, r5, r3
1a004cf4:	1aff      	subgt	r7, r7, r3
1a004cf6:	9b0e      	ldr	r3, [sp, #56]	; 0x38
1a004cf8:	2b00      	cmp	r3, #0
1a004cfa:	dd17      	ble.n	1a004d2c <_strtod_l+0x724>
1a004cfc:	461a      	mov	r2, r3
1a004cfe:	e9dd 0104 	ldrd	r0, r1, [sp, #16]
1a004d02:	f001 fa2d 	bl	1a006160 <__pow5mult>
1a004d06:	9005      	str	r0, [sp, #20]
1a004d08:	2800      	cmp	r0, #0
1a004d0a:	f43f aeb1 	beq.w	1a004a70 <_strtod_l+0x468>
1a004d0e:	4601      	mov	r1, r0
1a004d10:	9a1c      	ldr	r2, [sp, #112]	; 0x70
1a004d12:	9804      	ldr	r0, [sp, #16]
1a004d14:	f001 f993 	bl	1a00603e <__multiply>
1a004d18:	900d      	str	r0, [sp, #52]	; 0x34
1a004d1a:	2800      	cmp	r0, #0
1a004d1c:	f43f aea8 	beq.w	1a004a70 <_strtod_l+0x468>
1a004d20:	991c      	ldr	r1, [sp, #112]	; 0x70
1a004d22:	9804      	ldr	r0, [sp, #16]
1a004d24:	f001 f8a2 	bl	1a005e6c <_Bfree>
1a004d28:	9b0d      	ldr	r3, [sp, #52]	; 0x34
1a004d2a:	931c      	str	r3, [sp, #112]	; 0x70
1a004d2c:	f1b9 0f00 	cmp.w	r9, #0
1a004d30:	f300 8081 	bgt.w	1a004e36 <_strtod_l+0x82e>
1a004d34:	9b08      	ldr	r3, [sp, #32]
1a004d36:	2b00      	cmp	r3, #0
1a004d38:	dd08      	ble.n	1a004d4c <_strtod_l+0x744>
1a004d3a:	9a16      	ldr	r2, [sp, #88]	; 0x58
1a004d3c:	9907      	ldr	r1, [sp, #28]
1a004d3e:	9804      	ldr	r0, [sp, #16]
1a004d40:	f001 fa0e 	bl	1a006160 <__pow5mult>
1a004d44:	9007      	str	r0, [sp, #28]
1a004d46:	2800      	cmp	r0, #0
1a004d48:	f43f ae92 	beq.w	1a004a70 <_strtod_l+0x468>
1a004d4c:	2d00      	cmp	r5, #0
1a004d4e:	dd08      	ble.n	1a004d62 <_strtod_l+0x75a>
1a004d50:	462a      	mov	r2, r5
1a004d52:	9907      	ldr	r1, [sp, #28]
1a004d54:	9804      	ldr	r0, [sp, #16]
1a004d56:	f001 fa51 	bl	1a0061fc <__lshift>
1a004d5a:	9007      	str	r0, [sp, #28]
1a004d5c:	2800      	cmp	r0, #0
1a004d5e:	f43f ae87 	beq.w	1a004a70 <_strtod_l+0x468>
1a004d62:	2f00      	cmp	r7, #0
1a004d64:	dd08      	ble.n	1a004d78 <_strtod_l+0x770>
1a004d66:	463a      	mov	r2, r7
1a004d68:	e9dd 0104 	ldrd	r0, r1, [sp, #16]
1a004d6c:	f001 fa46 	bl	1a0061fc <__lshift>
1a004d70:	9005      	str	r0, [sp, #20]
1a004d72:	2800      	cmp	r0, #0
1a004d74:	f43f ae7c 	beq.w	1a004a70 <_strtod_l+0x468>
1a004d78:	9a07      	ldr	r2, [sp, #28]
1a004d7a:	991c      	ldr	r1, [sp, #112]	; 0x70
1a004d7c:	9804      	ldr	r0, [sp, #16]
1a004d7e:	f001 faaa 	bl	1a0062d6 <__mdiff>
1a004d82:	4604      	mov	r4, r0
1a004d84:	2800      	cmp	r0, #0
1a004d86:	f43f ae73 	beq.w	1a004a70 <_strtod_l+0x468>
1a004d8a:	68c3      	ldr	r3, [r0, #12]
1a004d8c:	930d      	str	r3, [sp, #52]	; 0x34
1a004d8e:	2300      	movs	r3, #0
1a004d90:	60c3      	str	r3, [r0, #12]
1a004d92:	9905      	ldr	r1, [sp, #20]
1a004d94:	f001 fa85 	bl	1a0062a2 <__mcmp>
1a004d98:	2800      	cmp	r0, #0
1a004d9a:	da5f      	bge.n	1a004e5c <_strtod_l+0x854>
1a004d9c:	9b0d      	ldr	r3, [sp, #52]	; 0x34
1a004d9e:	ea53 030a 	orrs.w	r3, r3, sl
1a004da2:	f040 8081 	bne.w	1a004ea8 <_strtod_l+0x8a0>
1a004da6:	f3cb 0313 	ubfx	r3, fp, #0, #20
1a004daa:	2b00      	cmp	r3, #0
1a004dac:	d17c      	bne.n	1a004ea8 <_strtod_l+0x8a0>
1a004dae:	f02b 4300 	bic.w	r3, fp, #2147483648	; 0x80000000
1a004db2:	0d1b      	lsrs	r3, r3, #20
1a004db4:	051b      	lsls	r3, r3, #20
1a004db6:	f1b3 6fd6 	cmp.w	r3, #112197632	; 0x6b00000
1a004dba:	d975      	bls.n	1a004ea8 <_strtod_l+0x8a0>
1a004dbc:	6963      	ldr	r3, [r4, #20]
1a004dbe:	b913      	cbnz	r3, 1a004dc6 <_strtod_l+0x7be>
1a004dc0:	6923      	ldr	r3, [r4, #16]
1a004dc2:	2b01      	cmp	r3, #1
1a004dc4:	dd70      	ble.n	1a004ea8 <_strtod_l+0x8a0>
1a004dc6:	4621      	mov	r1, r4
1a004dc8:	2201      	movs	r2, #1
1a004dca:	9804      	ldr	r0, [sp, #16]
1a004dcc:	f001 fa16 	bl	1a0061fc <__lshift>
1a004dd0:	9905      	ldr	r1, [sp, #20]
1a004dd2:	4604      	mov	r4, r0
1a004dd4:	f001 fa65 	bl	1a0062a2 <__mcmp>
1a004dd8:	2800      	cmp	r0, #0
1a004dda:	dd65      	ble.n	1a004ea8 <_strtod_l+0x8a0>
1a004ddc:	9906      	ldr	r1, [sp, #24]
1a004dde:	4a1d      	ldr	r2, [pc, #116]	; (1a004e54 <_strtod_l+0x84c>)
1a004de0:	465b      	mov	r3, fp
1a004de2:	2900      	cmp	r1, #0
1a004de4:	d07f      	beq.n	1a004ee6 <_strtod_l+0x8de>
1a004de6:	ea02 010b 	and.w	r1, r2, fp
1a004dea:	f1b1 6fd6 	cmp.w	r1, #112197632	; 0x6b00000
1a004dee:	dc7a      	bgt.n	1a004ee6 <_strtod_l+0x8de>
1a004df0:	f1b1 7f5c 	cmp.w	r1, #57671680	; 0x3700000
1a004df4:	f77f aeab 	ble.w	1a004b4e <_strtod_l+0x546>
1a004df8:	4a17      	ldr	r2, [pc, #92]	; (1a004e58 <_strtod_l+0x850>)
1a004dfa:	2300      	movs	r3, #0
1a004dfc:	e9cd 3214 	strd	r3, r2, [sp, #80]	; 0x50
1a004e00:	4650      	mov	r0, sl
1a004e02:	e9dd 2314 	ldrd	r2, r3, [sp, #80]	; 0x50
1a004e06:	4659      	mov	r1, fp
1a004e08:	f7fe fda0 	bl	1a00394c <__aeabi_dmul>
1a004e0c:	460b      	mov	r3, r1
1a004e0e:	4303      	orrs	r3, r0
1a004e10:	bf04      	itt	eq
1a004e12:	9a04      	ldreq	r2, [sp, #16]
1a004e14:	2322      	moveq	r3, #34	; 0x22
1a004e16:	4682      	mov	sl, r0
1a004e18:	468b      	mov	fp, r1
1a004e1a:	bf08      	it	eq
1a004e1c:	6013      	streq	r3, [r2, #0]
1a004e1e:	e632      	b.n	1a004a86 <_strtod_l+0x47e>
1a004e20:	f04f 32ff 	mov.w	r2, #4294967295
1a004e24:	fa02 f303 	lsl.w	r3, r2, r3
1a004e28:	ea03 0a0a 	and.w	sl, r3, sl
1a004e2c:	e6dd      	b.n	1a004bea <_strtod_l+0x5e2>
1a004e2e:	2600      	movs	r6, #0
1a004e30:	f04f 0801 	mov.w	r8, #1
1a004e34:	e74d      	b.n	1a004cd2 <_strtod_l+0x6ca>
1a004e36:	464a      	mov	r2, r9
1a004e38:	991c      	ldr	r1, [sp, #112]	; 0x70
1a004e3a:	9804      	ldr	r0, [sp, #16]
1a004e3c:	f001 f9de 	bl	1a0061fc <__lshift>
1a004e40:	901c      	str	r0, [sp, #112]	; 0x70
1a004e42:	2800      	cmp	r0, #0
1a004e44:	f47f af76 	bne.w	1a004d34 <_strtod_l+0x72c>
1a004e48:	e612      	b.n	1a004a70 <_strtod_l+0x468>
1a004e4a:	bf00      	nop
1a004e4c:	1a007de0 	.word	0x1a007de0
1a004e50:	fffffc02 	.word	0xfffffc02
1a004e54:	7ff00000 	.word	0x7ff00000
1a004e58:	39500000 	.word	0x39500000
1a004e5c:	465d      	mov	r5, fp
1a004e5e:	d160      	bne.n	1a004f22 <_strtod_l+0x91a>
1a004e60:	9a0d      	ldr	r2, [sp, #52]	; 0x34
1a004e62:	f3cb 0313 	ubfx	r3, fp, #0, #20
1a004e66:	b342      	cbz	r2, 1a004eba <_strtod_l+0x8b2>
1a004e68:	4ab7      	ldr	r2, [pc, #732]	; (1a005148 <_strtod_l+0xb40>)
1a004e6a:	4293      	cmp	r3, r2
1a004e6c:	d128      	bne.n	1a004ec0 <_strtod_l+0x8b8>
1a004e6e:	9b06      	ldr	r3, [sp, #24]
1a004e70:	4650      	mov	r0, sl
1a004e72:	b1eb      	cbz	r3, 1a004eb0 <_strtod_l+0x8a8>
1a004e74:	4ab5      	ldr	r2, [pc, #724]	; (1a00514c <_strtod_l+0xb44>)
1a004e76:	402a      	ands	r2, r5
1a004e78:	f1b2 6fd4 	cmp.w	r2, #111149056	; 0x6a00000
1a004e7c:	f04f 31ff 	mov.w	r1, #4294967295
1a004e80:	d819      	bhi.n	1a004eb6 <_strtod_l+0x8ae>
1a004e82:	0d12      	lsrs	r2, r2, #20
1a004e84:	f1c2 036b 	rsb	r3, r2, #107	; 0x6b
1a004e88:	fa01 f303 	lsl.w	r3, r1, r3
1a004e8c:	4298      	cmp	r0, r3
1a004e8e:	d117      	bne.n	1a004ec0 <_strtod_l+0x8b8>
1a004e90:	4baf      	ldr	r3, [pc, #700]	; (1a005150 <_strtod_l+0xb48>)
1a004e92:	429d      	cmp	r5, r3
1a004e94:	d102      	bne.n	1a004e9c <_strtod_l+0x894>
1a004e96:	3001      	adds	r0, #1
1a004e98:	f43f adea 	beq.w	1a004a70 <_strtod_l+0x468>
1a004e9c:	4bab      	ldr	r3, [pc, #684]	; (1a00514c <_strtod_l+0xb44>)
1a004e9e:	402b      	ands	r3, r5
1a004ea0:	f503 1b80 	add.w	fp, r3, #1048576	; 0x100000
1a004ea4:	f04f 0a00 	mov.w	sl, #0
1a004ea8:	9b06      	ldr	r3, [sp, #24]
1a004eaa:	2b00      	cmp	r3, #0
1a004eac:	d1a4      	bne.n	1a004df8 <_strtod_l+0x7f0>
1a004eae:	e5ea      	b.n	1a004a86 <_strtod_l+0x47e>
1a004eb0:	f04f 33ff 	mov.w	r3, #4294967295
1a004eb4:	e7ea      	b.n	1a004e8c <_strtod_l+0x884>
1a004eb6:	460b      	mov	r3, r1
1a004eb8:	e7e8      	b.n	1a004e8c <_strtod_l+0x884>
1a004eba:	ea53 030a 	orrs.w	r3, r3, sl
1a004ebe:	d08d      	beq.n	1a004ddc <_strtod_l+0x7d4>
1a004ec0:	b1de      	cbz	r6, 1a004efa <_strtod_l+0x8f2>
1a004ec2:	422e      	tst	r6, r5
1a004ec4:	d0f0      	beq.n	1a004ea8 <_strtod_l+0x8a0>
1a004ec6:	9b0d      	ldr	r3, [sp, #52]	; 0x34
1a004ec8:	9a06      	ldr	r2, [sp, #24]
1a004eca:	4650      	mov	r0, sl
1a004ecc:	4659      	mov	r1, fp
1a004ece:	b1bb      	cbz	r3, 1a004f00 <_strtod_l+0x8f8>
1a004ed0:	f7ff fb7b 	bl	1a0045ca <sulp>
1a004ed4:	4602      	mov	r2, r0
1a004ed6:	460b      	mov	r3, r1
1a004ed8:	e9dd 010a 	ldrd	r0, r1, [sp, #40]	; 0x28
1a004edc:	f7fe fb80 	bl	1a0035e0 <__adddf3>
1a004ee0:	4682      	mov	sl, r0
1a004ee2:	468b      	mov	fp, r1
1a004ee4:	e7e0      	b.n	1a004ea8 <_strtod_l+0x8a0>
1a004ee6:	4013      	ands	r3, r2
1a004ee8:	f5a3 1380 	sub.w	r3, r3, #1048576	; 0x100000
1a004eec:	ea6f 5b13 	mvn.w	fp, r3, lsr #20
1a004ef0:	ea6f 5b0b 	mvn.w	fp, fp, lsl #20
1a004ef4:	f04f 3aff 	mov.w	sl, #4294967295
1a004ef8:	e7d6      	b.n	1a004ea8 <_strtod_l+0x8a0>
1a004efa:	ea18 0f0a 	tst.w	r8, sl
1a004efe:	e7e1      	b.n	1a004ec4 <_strtod_l+0x8bc>
1a004f00:	f7ff fb63 	bl	1a0045ca <sulp>
1a004f04:	4602      	mov	r2, r0
1a004f06:	460b      	mov	r3, r1
1a004f08:	e9dd 010a 	ldrd	r0, r1, [sp, #40]	; 0x28
1a004f0c:	f7fe fb66 	bl	1a0035dc <__aeabi_dsub>
1a004f10:	2200      	movs	r2, #0
1a004f12:	2300      	movs	r3, #0
1a004f14:	4682      	mov	sl, r0
1a004f16:	468b      	mov	fp, r1
1a004f18:	f7fe ff80 	bl	1a003e1c <__aeabi_dcmpeq>
1a004f1c:	2800      	cmp	r0, #0
1a004f1e:	d0c3      	beq.n	1a004ea8 <_strtod_l+0x8a0>
1a004f20:	e615      	b.n	1a004b4e <_strtod_l+0x546>
1a004f22:	9905      	ldr	r1, [sp, #20]
1a004f24:	4620      	mov	r0, r4
1a004f26:	f001 faf7 	bl	1a006518 <__ratio>
1a004f2a:	ec57 6b10 	vmov	r6, r7, d0
1a004f2e:	2200      	movs	r2, #0
1a004f30:	f04f 4380 	mov.w	r3, #1073741824	; 0x40000000
1a004f34:	ee10 0a10 	vmov	r0, s0
1a004f38:	4639      	mov	r1, r7
1a004f3a:	f7fe ff83 	bl	1a003e44 <__aeabi_dcmple>
1a004f3e:	2800      	cmp	r0, #0
1a004f40:	d073      	beq.n	1a00502a <_strtod_l+0xa22>
1a004f42:	9b0d      	ldr	r3, [sp, #52]	; 0x34
1a004f44:	2b00      	cmp	r3, #0
1a004f46:	d046      	beq.n	1a004fd6 <_strtod_l+0x9ce>
1a004f48:	f8df 9208 	ldr.w	r9, [pc, #520]	; 1a005154 <_strtod_l+0xb4c>
1a004f4c:	f04f 0800 	mov.w	r8, #0
1a004f50:	4f80      	ldr	r7, [pc, #512]	; (1a005154 <_strtod_l+0xb4c>)
1a004f52:	2600      	movs	r6, #0
1a004f54:	4b7d      	ldr	r3, [pc, #500]	; (1a00514c <_strtod_l+0xb44>)
1a004f56:	402b      	ands	r3, r5
1a004f58:	930f      	str	r3, [sp, #60]	; 0x3c
1a004f5a:	9a0f      	ldr	r2, [sp, #60]	; 0x3c
1a004f5c:	4b7e      	ldr	r3, [pc, #504]	; (1a005158 <_strtod_l+0xb50>)
1a004f5e:	429a      	cmp	r2, r3
1a004f60:	f040 80ab 	bne.w	1a0050ba <_strtod_l+0xab2>
1a004f64:	e9dd 230a 	ldrd	r2, r3, [sp, #40]	; 0x28
1a004f68:	f1a5 7b54 	sub.w	fp, r5, #55574528	; 0x3500000
1a004f6c:	ec4b ab10 	vmov	d0, sl, fp
1a004f70:	e9cd 2314 	strd	r2, r3, [sp, #80]	; 0x50
1a004f74:	f001 fa0c 	bl	1a006390 <__ulp>
1a004f78:	4640      	mov	r0, r8
1a004f7a:	ec53 2b10 	vmov	r2, r3, d0
1a004f7e:	4649      	mov	r1, r9
1a004f80:	f7fe fce4 	bl	1a00394c <__aeabi_dmul>
1a004f84:	4652      	mov	r2, sl
1a004f86:	465b      	mov	r3, fp
1a004f88:	f7fe fb2a 	bl	1a0035e0 <__adddf3>
1a004f8c:	460b      	mov	r3, r1
1a004f8e:	496f      	ldr	r1, [pc, #444]	; (1a00514c <_strtod_l+0xb44>)
1a004f90:	4a72      	ldr	r2, [pc, #456]	; (1a00515c <_strtod_l+0xb54>)
1a004f92:	4019      	ands	r1, r3
1a004f94:	4291      	cmp	r1, r2
1a004f96:	4682      	mov	sl, r0
1a004f98:	d95b      	bls.n	1a005052 <_strtod_l+0xa4a>
1a004f9a:	9b0b      	ldr	r3, [sp, #44]	; 0x2c
1a004f9c:	f102 7254 	add.w	r2, r2, #55574528	; 0x3500000
1a004fa0:	4293      	cmp	r3, r2
1a004fa2:	d103      	bne.n	1a004fac <_strtod_l+0x9a4>
1a004fa4:	9b0a      	ldr	r3, [sp, #40]	; 0x28
1a004fa6:	3301      	adds	r3, #1
1a004fa8:	f43f ad62 	beq.w	1a004a70 <_strtod_l+0x468>
1a004fac:	f8df b1a0 	ldr.w	fp, [pc, #416]	; 1a005150 <_strtod_l+0xb48>
1a004fb0:	f04f 3aff 	mov.w	sl, #4294967295
1a004fb4:	991c      	ldr	r1, [sp, #112]	; 0x70
1a004fb6:	9804      	ldr	r0, [sp, #16]
1a004fb8:	f000 ff58 	bl	1a005e6c <_Bfree>
1a004fbc:	9907      	ldr	r1, [sp, #28]
1a004fbe:	9804      	ldr	r0, [sp, #16]
1a004fc0:	f000 ff54 	bl	1a005e6c <_Bfree>
1a004fc4:	e9dd 0104 	ldrd	r0, r1, [sp, #16]
1a004fc8:	f000 ff50 	bl	1a005e6c <_Bfree>
1a004fcc:	4621      	mov	r1, r4
1a004fce:	9804      	ldr	r0, [sp, #16]
1a004fd0:	f000 ff4c 	bl	1a005e6c <_Bfree>
1a004fd4:	e62b      	b.n	1a004c2e <_strtod_l+0x626>
1a004fd6:	f1ba 0f00 	cmp.w	sl, #0
1a004fda:	d118      	bne.n	1a00500e <_strtod_l+0xa06>
1a004fdc:	f3cb 0313 	ubfx	r3, fp, #0, #20
1a004fe0:	b9db      	cbnz	r3, 1a00501a <_strtod_l+0xa12>
1a004fe2:	2200      	movs	r2, #0
1a004fe4:	4b5b      	ldr	r3, [pc, #364]	; (1a005154 <_strtod_l+0xb4c>)
1a004fe6:	4630      	mov	r0, r6
1a004fe8:	4639      	mov	r1, r7
1a004fea:	f7fe ff21 	bl	1a003e30 <__aeabi_dcmplt>
1a004fee:	b9c8      	cbnz	r0, 1a005024 <_strtod_l+0xa1c>
1a004ff0:	4630      	mov	r0, r6
1a004ff2:	4639      	mov	r1, r7
1a004ff4:	2200      	movs	r2, #0
1a004ff6:	4b5a      	ldr	r3, [pc, #360]	; (1a005160 <_strtod_l+0xb58>)
1a004ff8:	f7fe fca8 	bl	1a00394c <__aeabi_dmul>
1a004ffc:	4606      	mov	r6, r0
1a004ffe:	460f      	mov	r7, r1
1a005000:	f107 4300 	add.w	r3, r7, #2147483648	; 0x80000000
1a005004:	9618      	str	r6, [sp, #96]	; 0x60
1a005006:	9319      	str	r3, [sp, #100]	; 0x64
1a005008:	e9dd 8918 	ldrd	r8, r9, [sp, #96]	; 0x60
1a00500c:	e7a2      	b.n	1a004f54 <_strtod_l+0x94c>
1a00500e:	f1ba 0f01 	cmp.w	sl, #1
1a005012:	d102      	bne.n	1a00501a <_strtod_l+0xa12>
1a005014:	2d00      	cmp	r5, #0
1a005016:	f43f ad9a 	beq.w	1a004b4e <_strtod_l+0x546>
1a00501a:	f04f 0800 	mov.w	r8, #0
1a00501e:	f8df 9144 	ldr.w	r9, [pc, #324]	; 1a005164 <_strtod_l+0xb5c>
1a005022:	e795      	b.n	1a004f50 <_strtod_l+0x948>
1a005024:	2600      	movs	r6, #0
1a005026:	4f4e      	ldr	r7, [pc, #312]	; (1a005160 <_strtod_l+0xb58>)
1a005028:	e7ea      	b.n	1a005000 <_strtod_l+0x9f8>
1a00502a:	4b4d      	ldr	r3, [pc, #308]	; (1a005160 <_strtod_l+0xb58>)
1a00502c:	4630      	mov	r0, r6
1a00502e:	4639      	mov	r1, r7
1a005030:	2200      	movs	r2, #0
1a005032:	f7fe fc8b 	bl	1a00394c <__aeabi_dmul>
1a005036:	9b0d      	ldr	r3, [sp, #52]	; 0x34
1a005038:	4606      	mov	r6, r0
1a00503a:	460f      	mov	r7, r1
1a00503c:	b933      	cbnz	r3, 1a00504c <_strtod_l+0xa44>
1a00503e:	f101 4300 	add.w	r3, r1, #2147483648	; 0x80000000
1a005042:	9010      	str	r0, [sp, #64]	; 0x40
1a005044:	9311      	str	r3, [sp, #68]	; 0x44
1a005046:	e9dd 8910 	ldrd	r8, r9, [sp, #64]	; 0x40
1a00504a:	e783      	b.n	1a004f54 <_strtod_l+0x94c>
1a00504c:	e9cd 6710 	strd	r6, r7, [sp, #64]	; 0x40
1a005050:	e7f9      	b.n	1a005046 <_strtod_l+0xa3e>
1a005052:	f103 7b54 	add.w	fp, r3, #55574528	; 0x3500000
1a005056:	9b06      	ldr	r3, [sp, #24]
1a005058:	2b00      	cmp	r3, #0
1a00505a:	d1ab      	bne.n	1a004fb4 <_strtod_l+0x9ac>
1a00505c:	f02b 4300 	bic.w	r3, fp, #2147483648	; 0x80000000
1a005060:	0d1b      	lsrs	r3, r3, #20
1a005062:	9a0f      	ldr	r2, [sp, #60]	; 0x3c
1a005064:	051b      	lsls	r3, r3, #20
1a005066:	429a      	cmp	r2, r3
1a005068:	d1a4      	bne.n	1a004fb4 <_strtod_l+0x9ac>
1a00506a:	4630      	mov	r0, r6
1a00506c:	4639      	mov	r1, r7
1a00506e:	f002 fbf9 	bl	1a007864 <__aeabi_d2lz>
1a005072:	f7fe fc3d 	bl	1a0038f0 <__aeabi_l2d>
1a005076:	4602      	mov	r2, r0
1a005078:	460b      	mov	r3, r1
1a00507a:	4630      	mov	r0, r6
1a00507c:	4639      	mov	r1, r7
1a00507e:	f7fe faad 	bl	1a0035dc <__aeabi_dsub>
1a005082:	f3cb 0313 	ubfx	r3, fp, #0, #20
1a005086:	9a0d      	ldr	r2, [sp, #52]	; 0x34
1a005088:	ea43 030a 	orr.w	r3, r3, sl
1a00508c:	4313      	orrs	r3, r2
1a00508e:	4606      	mov	r6, r0
1a005090:	460f      	mov	r7, r1
1a005092:	d069      	beq.n	1a005168 <_strtod_l+0xb60>
1a005094:	a326      	add	r3, pc, #152	; (adr r3, 1a005130 <_strtod_l+0xb28>)
1a005096:	e9d3 2300 	ldrd	r2, r3, [r3]
1a00509a:	f7fe fec9 	bl	1a003e30 <__aeabi_dcmplt>
1a00509e:	2800      	cmp	r0, #0
1a0050a0:	f47f acf1 	bne.w	1a004a86 <_strtod_l+0x47e>
1a0050a4:	a324      	add	r3, pc, #144	; (adr r3, 1a005138 <_strtod_l+0xb30>)
1a0050a6:	e9d3 2300 	ldrd	r2, r3, [r3]
1a0050aa:	4630      	mov	r0, r6
1a0050ac:	4639      	mov	r1, r7
1a0050ae:	f7fe fedd 	bl	1a003e6c <__aeabi_dcmpgt>
1a0050b2:	2800      	cmp	r0, #0
1a0050b4:	f43f af7e 	beq.w	1a004fb4 <_strtod_l+0x9ac>
1a0050b8:	e4e5      	b.n	1a004a86 <_strtod_l+0x47e>
1a0050ba:	9b06      	ldr	r3, [sp, #24]
1a0050bc:	b31b      	cbz	r3, 1a005106 <_strtod_l+0xafe>
1a0050be:	9b0f      	ldr	r3, [sp, #60]	; 0x3c
1a0050c0:	f1b3 6fd4 	cmp.w	r3, #111149056	; 0x6a00000
1a0050c4:	d81f      	bhi.n	1a005106 <_strtod_l+0xafe>
1a0050c6:	a31e      	add	r3, pc, #120	; (adr r3, 1a005140 <_strtod_l+0xb38>)
1a0050c8:	e9d3 2300 	ldrd	r2, r3, [r3]
1a0050cc:	4630      	mov	r0, r6
1a0050ce:	4639      	mov	r1, r7
1a0050d0:	f7fe feb8 	bl	1a003e44 <__aeabi_dcmple>
1a0050d4:	b190      	cbz	r0, 1a0050fc <_strtod_l+0xaf4>
1a0050d6:	4639      	mov	r1, r7
1a0050d8:	4630      	mov	r0, r6
1a0050da:	f7ff f891 	bl	1a004200 <__aeabi_d2uiz>
1a0050de:	2800      	cmp	r0, #0
1a0050e0:	bf08      	it	eq
1a0050e2:	2001      	moveq	r0, #1
1a0050e4:	f7fe fbb8 	bl	1a003858 <__aeabi_ui2d>
1a0050e8:	9b0d      	ldr	r3, [sp, #52]	; 0x34
1a0050ea:	4606      	mov	r6, r0
1a0050ec:	460f      	mov	r7, r1
1a0050ee:	b9db      	cbnz	r3, 1a005128 <_strtod_l+0xb20>
1a0050f0:	f101 4300 	add.w	r3, r1, #2147483648	; 0x80000000
1a0050f4:	9012      	str	r0, [sp, #72]	; 0x48
1a0050f6:	9313      	str	r3, [sp, #76]	; 0x4c
1a0050f8:	e9dd 8912 	ldrd	r8, r9, [sp, #72]	; 0x48
1a0050fc:	9a0f      	ldr	r2, [sp, #60]	; 0x3c
1a0050fe:	f109 63d6 	add.w	r3, r9, #112197632	; 0x6b00000
1a005102:	eba3 0902 	sub.w	r9, r3, r2
1a005106:	ed9d 0b0a 	vldr	d0, [sp, #40]	; 0x28
1a00510a:	f001 f941 	bl	1a006390 <__ulp>
1a00510e:	4640      	mov	r0, r8
1a005110:	ec53 2b10 	vmov	r2, r3, d0
1a005114:	4649      	mov	r1, r9
1a005116:	f7fe fc19 	bl	1a00394c <__aeabi_dmul>
1a00511a:	e9dd 230a 	ldrd	r2, r3, [sp, #40]	; 0x28
1a00511e:	f7fe fa5f 	bl	1a0035e0 <__adddf3>
1a005122:	4682      	mov	sl, r0
1a005124:	468b      	mov	fp, r1
1a005126:	e796      	b.n	1a005056 <_strtod_l+0xa4e>
1a005128:	e9cd 6712 	strd	r6, r7, [sp, #72]	; 0x48
1a00512c:	e7e4      	b.n	1a0050f8 <_strtod_l+0xaf0>
1a00512e:	bf00      	nop
1a005130:	94a03595 	.word	0x94a03595
1a005134:	3fdfffff 	.word	0x3fdfffff
1a005138:	35afe535 	.word	0x35afe535
1a00513c:	3fe00000 	.word	0x3fe00000
1a005140:	ffc00000 	.word	0xffc00000
1a005144:	41dfffff 	.word	0x41dfffff
1a005148:	000fffff 	.word	0x000fffff
1a00514c:	7ff00000 	.word	0x7ff00000
1a005150:	7fefffff 	.word	0x7fefffff
1a005154:	3ff00000 	.word	0x3ff00000
1a005158:	7fe00000 	.word	0x7fe00000
1a00515c:	7c9fffff 	.word	0x7c9fffff
1a005160:	3fe00000 	.word	0x3fe00000
1a005164:	bff00000 	.word	0xbff00000
1a005168:	a30b      	add	r3, pc, #44	; (adr r3, 1a005198 <_strtod_l+0xb90>)
1a00516a:	e9d3 2300 	ldrd	r2, r3, [r3]
1a00516e:	f7fe fe5f 	bl	1a003e30 <__aeabi_dcmplt>
1a005172:	e79e      	b.n	1a0050b2 <_strtod_l+0xaaa>
1a005174:	2300      	movs	r3, #0
1a005176:	930c      	str	r3, [sp, #48]	; 0x30
1a005178:	9a17      	ldr	r2, [sp, #92]	; 0x5c
1a00517a:	9b1b      	ldr	r3, [sp, #108]	; 0x6c
1a00517c:	6013      	str	r3, [r2, #0]
1a00517e:	f7ff ba85 	b.w	1a00468c <_strtod_l+0x84>
1a005182:	2b65      	cmp	r3, #101	; 0x65
1a005184:	f43f ab72 	beq.w	1a00486c <_strtod_l+0x264>
1a005188:	2b45      	cmp	r3, #69	; 0x45
1a00518a:	f43f ab6f 	beq.w	1a00486c <_strtod_l+0x264>
1a00518e:	2201      	movs	r2, #1
1a005190:	f7ff bba4 	b.w	1a0048dc <_strtod_l+0x2d4>
1a005194:	f3af 8000 	nop.w
1a005198:	94a03595 	.word	0x94a03595
1a00519c:	3fcfffff 	.word	0x3fcfffff

1a0051a0 <strtod>:
1a0051a0:	460a      	mov	r2, r1
1a0051a2:	4601      	mov	r1, r0
1a0051a4:	4802      	ldr	r0, [pc, #8]	; (1a0051b0 <strtod+0x10>)
1a0051a6:	4b03      	ldr	r3, [pc, #12]	; (1a0051b4 <strtod+0x14>)
1a0051a8:	6800      	ldr	r0, [r0, #0]
1a0051aa:	f7ff ba2d 	b.w	1a004608 <_strtod_l>
1a0051ae:	bf00      	nop
1a0051b0:	100000e8 	.word	0x100000e8
1a0051b4:	10000150 	.word	0x10000150

1a0051b8 <__swbuf_r>:
1a0051b8:	b5f8      	push	{r3, r4, r5, r6, r7, lr}
1a0051ba:	460e      	mov	r6, r1
1a0051bc:	4614      	mov	r4, r2
1a0051be:	4605      	mov	r5, r0
1a0051c0:	b118      	cbz	r0, 1a0051ca <__swbuf_r+0x12>
1a0051c2:	6983      	ldr	r3, [r0, #24]
1a0051c4:	b90b      	cbnz	r3, 1a0051ca <__swbuf_r+0x12>
1a0051c6:	f000 f9d1 	bl	1a00556c <__sinit>
1a0051ca:	4b21      	ldr	r3, [pc, #132]	; (1a005250 <__swbuf_r+0x98>)
1a0051cc:	429c      	cmp	r4, r3
1a0051ce:	d12b      	bne.n	1a005228 <__swbuf_r+0x70>
1a0051d0:	686c      	ldr	r4, [r5, #4]
1a0051d2:	69a3      	ldr	r3, [r4, #24]
1a0051d4:	60a3      	str	r3, [r4, #8]
1a0051d6:	89a3      	ldrh	r3, [r4, #12]
1a0051d8:	071a      	lsls	r2, r3, #28
1a0051da:	d52f      	bpl.n	1a00523c <__swbuf_r+0x84>
1a0051dc:	6923      	ldr	r3, [r4, #16]
1a0051de:	b36b      	cbz	r3, 1a00523c <__swbuf_r+0x84>
1a0051e0:	6923      	ldr	r3, [r4, #16]
1a0051e2:	6820      	ldr	r0, [r4, #0]
1a0051e4:	1ac0      	subs	r0, r0, r3
1a0051e6:	6963      	ldr	r3, [r4, #20]
1a0051e8:	b2f6      	uxtb	r6, r6
1a0051ea:	4283      	cmp	r3, r0
1a0051ec:	4637      	mov	r7, r6
1a0051ee:	dc04      	bgt.n	1a0051fa <__swbuf_r+0x42>
1a0051f0:	4621      	mov	r1, r4
1a0051f2:	4628      	mov	r0, r5
1a0051f4:	f000 f926 	bl	1a005444 <_fflush_r>
1a0051f8:	bb30      	cbnz	r0, 1a005248 <__swbuf_r+0x90>
1a0051fa:	68a3      	ldr	r3, [r4, #8]
1a0051fc:	3b01      	subs	r3, #1
1a0051fe:	60a3      	str	r3, [r4, #8]
1a005200:	6823      	ldr	r3, [r4, #0]
1a005202:	1c5a      	adds	r2, r3, #1
1a005204:	6022      	str	r2, [r4, #0]
1a005206:	701e      	strb	r6, [r3, #0]
1a005208:	6963      	ldr	r3, [r4, #20]
1a00520a:	3001      	adds	r0, #1
1a00520c:	4283      	cmp	r3, r0
1a00520e:	d004      	beq.n	1a00521a <__swbuf_r+0x62>
1a005210:	89a3      	ldrh	r3, [r4, #12]
1a005212:	07db      	lsls	r3, r3, #31
1a005214:	d506      	bpl.n	1a005224 <__swbuf_r+0x6c>
1a005216:	2e0a      	cmp	r6, #10
1a005218:	d104      	bne.n	1a005224 <__swbuf_r+0x6c>
1a00521a:	4621      	mov	r1, r4
1a00521c:	4628      	mov	r0, r5
1a00521e:	f000 f911 	bl	1a005444 <_fflush_r>
1a005222:	b988      	cbnz	r0, 1a005248 <__swbuf_r+0x90>
1a005224:	4638      	mov	r0, r7
1a005226:	bdf8      	pop	{r3, r4, r5, r6, r7, pc}
1a005228:	4b0a      	ldr	r3, [pc, #40]	; (1a005254 <__swbuf_r+0x9c>)
1a00522a:	429c      	cmp	r4, r3
1a00522c:	d101      	bne.n	1a005232 <__swbuf_r+0x7a>
1a00522e:	68ac      	ldr	r4, [r5, #8]
1a005230:	e7cf      	b.n	1a0051d2 <__swbuf_r+0x1a>
1a005232:	4b09      	ldr	r3, [pc, #36]	; (1a005258 <__swbuf_r+0xa0>)
1a005234:	429c      	cmp	r4, r3
1a005236:	bf08      	it	eq
1a005238:	68ec      	ldreq	r4, [r5, #12]
1a00523a:	e7ca      	b.n	1a0051d2 <__swbuf_r+0x1a>
1a00523c:	4621      	mov	r1, r4
1a00523e:	4628      	mov	r0, r5
1a005240:	f000 f80c 	bl	1a00525c <__swsetup_r>
1a005244:	2800      	cmp	r0, #0
1a005246:	d0cb      	beq.n	1a0051e0 <__swbuf_r+0x28>
1a005248:	f04f 37ff 	mov.w	r7, #4294967295
1a00524c:	e7ea      	b.n	1a005224 <__swbuf_r+0x6c>
1a00524e:	bf00      	nop
1a005250:	1a007e28 	.word	0x1a007e28
1a005254:	1a007e48 	.word	0x1a007e48
1a005258:	1a007e08 	.word	0x1a007e08

1a00525c <__swsetup_r>:
1a00525c:	4b32      	ldr	r3, [pc, #200]	; (1a005328 <__swsetup_r+0xcc>)
1a00525e:	b570      	push	{r4, r5, r6, lr}
1a005260:	681d      	ldr	r5, [r3, #0]
1a005262:	4606      	mov	r6, r0
1a005264:	460c      	mov	r4, r1
1a005266:	b125      	cbz	r5, 1a005272 <__swsetup_r+0x16>
1a005268:	69ab      	ldr	r3, [r5, #24]
1a00526a:	b913      	cbnz	r3, 1a005272 <__swsetup_r+0x16>
1a00526c:	4628      	mov	r0, r5
1a00526e:	f000 f97d 	bl	1a00556c <__sinit>
1a005272:	4b2e      	ldr	r3, [pc, #184]	; (1a00532c <__swsetup_r+0xd0>)
1a005274:	429c      	cmp	r4, r3
1a005276:	d10f      	bne.n	1a005298 <__swsetup_r+0x3c>
1a005278:	686c      	ldr	r4, [r5, #4]
1a00527a:	f9b4 300c 	ldrsh.w	r3, [r4, #12]
1a00527e:	b29a      	uxth	r2, r3
1a005280:	0715      	lsls	r5, r2, #28
1a005282:	d42c      	bmi.n	1a0052de <__swsetup_r+0x82>
1a005284:	06d0      	lsls	r0, r2, #27
1a005286:	d411      	bmi.n	1a0052ac <__swsetup_r+0x50>
1a005288:	2209      	movs	r2, #9
1a00528a:	6032      	str	r2, [r6, #0]
1a00528c:	f043 0340 	orr.w	r3, r3, #64	; 0x40
1a005290:	81a3      	strh	r3, [r4, #12]
1a005292:	f04f 30ff 	mov.w	r0, #4294967295
1a005296:	e03e      	b.n	1a005316 <__swsetup_r+0xba>
1a005298:	4b25      	ldr	r3, [pc, #148]	; (1a005330 <__swsetup_r+0xd4>)
1a00529a:	429c      	cmp	r4, r3
1a00529c:	d101      	bne.n	1a0052a2 <__swsetup_r+0x46>
1a00529e:	68ac      	ldr	r4, [r5, #8]
1a0052a0:	e7eb      	b.n	1a00527a <__swsetup_r+0x1e>
1a0052a2:	4b24      	ldr	r3, [pc, #144]	; (1a005334 <__swsetup_r+0xd8>)
1a0052a4:	429c      	cmp	r4, r3
1a0052a6:	bf08      	it	eq
1a0052a8:	68ec      	ldreq	r4, [r5, #12]
1a0052aa:	e7e6      	b.n	1a00527a <__swsetup_r+0x1e>
1a0052ac:	0751      	lsls	r1, r2, #29
1a0052ae:	d512      	bpl.n	1a0052d6 <__swsetup_r+0x7a>
1a0052b0:	6b61      	ldr	r1, [r4, #52]	; 0x34
1a0052b2:	b141      	cbz	r1, 1a0052c6 <__swsetup_r+0x6a>
1a0052b4:	f104 0344 	add.w	r3, r4, #68	; 0x44
1a0052b8:	4299      	cmp	r1, r3
1a0052ba:	d002      	beq.n	1a0052c2 <__swsetup_r+0x66>
1a0052bc:	4630      	mov	r0, r6
1a0052be:	f7ff f809 	bl	1a0042d4 <_free_r>
1a0052c2:	2300      	movs	r3, #0
1a0052c4:	6363      	str	r3, [r4, #52]	; 0x34
1a0052c6:	89a3      	ldrh	r3, [r4, #12]
1a0052c8:	f023 0324 	bic.w	r3, r3, #36	; 0x24
1a0052cc:	81a3      	strh	r3, [r4, #12]
1a0052ce:	2300      	movs	r3, #0
1a0052d0:	6063      	str	r3, [r4, #4]
1a0052d2:	6923      	ldr	r3, [r4, #16]
1a0052d4:	6023      	str	r3, [r4, #0]
1a0052d6:	89a3      	ldrh	r3, [r4, #12]
1a0052d8:	f043 0308 	orr.w	r3, r3, #8
1a0052dc:	81a3      	strh	r3, [r4, #12]
1a0052de:	6923      	ldr	r3, [r4, #16]
1a0052e0:	b94b      	cbnz	r3, 1a0052f6 <__swsetup_r+0x9a>
1a0052e2:	89a3      	ldrh	r3, [r4, #12]
1a0052e4:	f403 7320 	and.w	r3, r3, #640	; 0x280
1a0052e8:	f5b3 7f00 	cmp.w	r3, #512	; 0x200
1a0052ec:	d003      	beq.n	1a0052f6 <__swsetup_r+0x9a>
1a0052ee:	4621      	mov	r1, r4
1a0052f0:	4630      	mov	r0, r6
1a0052f2:	f000 fd29 	bl	1a005d48 <__smakebuf_r>
1a0052f6:	89a2      	ldrh	r2, [r4, #12]
1a0052f8:	f012 0301 	ands.w	r3, r2, #1
1a0052fc:	d00c      	beq.n	1a005318 <__swsetup_r+0xbc>
1a0052fe:	2300      	movs	r3, #0
1a005300:	60a3      	str	r3, [r4, #8]
1a005302:	6963      	ldr	r3, [r4, #20]
1a005304:	425b      	negs	r3, r3
1a005306:	61a3      	str	r3, [r4, #24]
1a005308:	6923      	ldr	r3, [r4, #16]
1a00530a:	b953      	cbnz	r3, 1a005322 <__swsetup_r+0xc6>
1a00530c:	f9b4 300c 	ldrsh.w	r3, [r4, #12]
1a005310:	f013 0080 	ands.w	r0, r3, #128	; 0x80
1a005314:	d1ba      	bne.n	1a00528c <__swsetup_r+0x30>
1a005316:	bd70      	pop	{r4, r5, r6, pc}
1a005318:	0792      	lsls	r2, r2, #30
1a00531a:	bf58      	it	pl
1a00531c:	6963      	ldrpl	r3, [r4, #20]
1a00531e:	60a3      	str	r3, [r4, #8]
1a005320:	e7f2      	b.n	1a005308 <__swsetup_r+0xac>
1a005322:	2000      	movs	r0, #0
1a005324:	e7f7      	b.n	1a005316 <__swsetup_r+0xba>
1a005326:	bf00      	nop
1a005328:	100000e8 	.word	0x100000e8
1a00532c:	1a007e28 	.word	0x1a007e28
1a005330:	1a007e48 	.word	0x1a007e48
1a005334:	1a007e08 	.word	0x1a007e08

1a005338 <__sflush_r>:
1a005338:	898a      	ldrh	r2, [r1, #12]
1a00533a:	e92d 41f0 	stmdb	sp!, {r4, r5, r6, r7, r8, lr}
1a00533e:	4605      	mov	r5, r0
1a005340:	0710      	lsls	r0, r2, #28
1a005342:	460c      	mov	r4, r1
1a005344:	d458      	bmi.n	1a0053f8 <__sflush_r+0xc0>
1a005346:	684b      	ldr	r3, [r1, #4]
1a005348:	2b00      	cmp	r3, #0
1a00534a:	dc05      	bgt.n	1a005358 <__sflush_r+0x20>
1a00534c:	6c0b      	ldr	r3, [r1, #64]	; 0x40
1a00534e:	2b00      	cmp	r3, #0
1a005350:	dc02      	bgt.n	1a005358 <__sflush_r+0x20>
1a005352:	2000      	movs	r0, #0
1a005354:	e8bd 81f0 	ldmia.w	sp!, {r4, r5, r6, r7, r8, pc}
1a005358:	6ae6      	ldr	r6, [r4, #44]	; 0x2c
1a00535a:	2e00      	cmp	r6, #0
1a00535c:	d0f9      	beq.n	1a005352 <__sflush_r+0x1a>
1a00535e:	2300      	movs	r3, #0
1a005360:	f412 5280 	ands.w	r2, r2, #4096	; 0x1000
1a005364:	682f      	ldr	r7, [r5, #0]
1a005366:	602b      	str	r3, [r5, #0]
1a005368:	d032      	beq.n	1a0053d0 <__sflush_r+0x98>
1a00536a:	6d60      	ldr	r0, [r4, #84]	; 0x54
1a00536c:	89a3      	ldrh	r3, [r4, #12]
1a00536e:	075a      	lsls	r2, r3, #29
1a005370:	d505      	bpl.n	1a00537e <__sflush_r+0x46>
1a005372:	6863      	ldr	r3, [r4, #4]
1a005374:	1ac0      	subs	r0, r0, r3
1a005376:	6b63      	ldr	r3, [r4, #52]	; 0x34
1a005378:	b10b      	cbz	r3, 1a00537e <__sflush_r+0x46>
1a00537a:	6c23      	ldr	r3, [r4, #64]	; 0x40
1a00537c:	1ac0      	subs	r0, r0, r3
1a00537e:	2300      	movs	r3, #0
1a005380:	4602      	mov	r2, r0
1a005382:	6ae6      	ldr	r6, [r4, #44]	; 0x2c
1a005384:	6a21      	ldr	r1, [r4, #32]
1a005386:	4628      	mov	r0, r5
1a005388:	47b0      	blx	r6
1a00538a:	1c43      	adds	r3, r0, #1
1a00538c:	89a3      	ldrh	r3, [r4, #12]
1a00538e:	d106      	bne.n	1a00539e <__sflush_r+0x66>
1a005390:	6829      	ldr	r1, [r5, #0]
1a005392:	291d      	cmp	r1, #29
1a005394:	d849      	bhi.n	1a00542a <__sflush_r+0xf2>
1a005396:	4a2a      	ldr	r2, [pc, #168]	; (1a005440 <__sflush_r+0x108>)
1a005398:	40ca      	lsrs	r2, r1
1a00539a:	07d6      	lsls	r6, r2, #31
1a00539c:	d545      	bpl.n	1a00542a <__sflush_r+0xf2>
1a00539e:	2200      	movs	r2, #0
1a0053a0:	6062      	str	r2, [r4, #4]
1a0053a2:	04d9      	lsls	r1, r3, #19
1a0053a4:	6922      	ldr	r2, [r4, #16]
1a0053a6:	6022      	str	r2, [r4, #0]
1a0053a8:	d504      	bpl.n	1a0053b4 <__sflush_r+0x7c>
1a0053aa:	1c42      	adds	r2, r0, #1
1a0053ac:	d101      	bne.n	1a0053b2 <__sflush_r+0x7a>
1a0053ae:	682b      	ldr	r3, [r5, #0]
1a0053b0:	b903      	cbnz	r3, 1a0053b4 <__sflush_r+0x7c>
1a0053b2:	6560      	str	r0, [r4, #84]	; 0x54
1a0053b4:	6b61      	ldr	r1, [r4, #52]	; 0x34
1a0053b6:	602f      	str	r7, [r5, #0]
1a0053b8:	2900      	cmp	r1, #0
1a0053ba:	d0ca      	beq.n	1a005352 <__sflush_r+0x1a>
1a0053bc:	f104 0344 	add.w	r3, r4, #68	; 0x44
1a0053c0:	4299      	cmp	r1, r3
1a0053c2:	d002      	beq.n	1a0053ca <__sflush_r+0x92>
1a0053c4:	4628      	mov	r0, r5
1a0053c6:	f7fe ff85 	bl	1a0042d4 <_free_r>
1a0053ca:	2000      	movs	r0, #0
1a0053cc:	6360      	str	r0, [r4, #52]	; 0x34
1a0053ce:	e7c1      	b.n	1a005354 <__sflush_r+0x1c>
1a0053d0:	6a21      	ldr	r1, [r4, #32]
1a0053d2:	2301      	movs	r3, #1
1a0053d4:	4628      	mov	r0, r5
1a0053d6:	47b0      	blx	r6
1a0053d8:	1c41      	adds	r1, r0, #1
1a0053da:	d1c7      	bne.n	1a00536c <__sflush_r+0x34>
1a0053dc:	682b      	ldr	r3, [r5, #0]
1a0053de:	2b00      	cmp	r3, #0
1a0053e0:	d0c4      	beq.n	1a00536c <__sflush_r+0x34>
1a0053e2:	2b1d      	cmp	r3, #29
1a0053e4:	d001      	beq.n	1a0053ea <__sflush_r+0xb2>
1a0053e6:	2b16      	cmp	r3, #22
1a0053e8:	d101      	bne.n	1a0053ee <__sflush_r+0xb6>
1a0053ea:	602f      	str	r7, [r5, #0]
1a0053ec:	e7b1      	b.n	1a005352 <__sflush_r+0x1a>
1a0053ee:	89a3      	ldrh	r3, [r4, #12]
1a0053f0:	f043 0340 	orr.w	r3, r3, #64	; 0x40
1a0053f4:	81a3      	strh	r3, [r4, #12]
1a0053f6:	e7ad      	b.n	1a005354 <__sflush_r+0x1c>
1a0053f8:	690f      	ldr	r7, [r1, #16]
1a0053fa:	2f00      	cmp	r7, #0
1a0053fc:	d0a9      	beq.n	1a005352 <__sflush_r+0x1a>
1a0053fe:	0793      	lsls	r3, r2, #30
1a005400:	680e      	ldr	r6, [r1, #0]
1a005402:	bf08      	it	eq
1a005404:	694b      	ldreq	r3, [r1, #20]
1a005406:	600f      	str	r7, [r1, #0]
1a005408:	bf18      	it	ne
1a00540a:	2300      	movne	r3, #0
1a00540c:	eba6 0807 	sub.w	r8, r6, r7
1a005410:	608b      	str	r3, [r1, #8]
1a005412:	f1b8 0f00 	cmp.w	r8, #0
1a005416:	dd9c      	ble.n	1a005352 <__sflush_r+0x1a>
1a005418:	4643      	mov	r3, r8
1a00541a:	463a      	mov	r2, r7
1a00541c:	6a21      	ldr	r1, [r4, #32]
1a00541e:	6aa6      	ldr	r6, [r4, #40]	; 0x28
1a005420:	4628      	mov	r0, r5
1a005422:	47b0      	blx	r6
1a005424:	2800      	cmp	r0, #0
1a005426:	dc06      	bgt.n	1a005436 <__sflush_r+0xfe>
1a005428:	89a3      	ldrh	r3, [r4, #12]
1a00542a:	f043 0340 	orr.w	r3, r3, #64	; 0x40
1a00542e:	81a3      	strh	r3, [r4, #12]
1a005430:	f04f 30ff 	mov.w	r0, #4294967295
1a005434:	e78e      	b.n	1a005354 <__sflush_r+0x1c>
1a005436:	4407      	add	r7, r0
1a005438:	eba8 0800 	sub.w	r8, r8, r0
1a00543c:	e7e9      	b.n	1a005412 <__sflush_r+0xda>
1a00543e:	bf00      	nop
1a005440:	20400001 	.word	0x20400001

1a005444 <_fflush_r>:
1a005444:	b538      	push	{r3, r4, r5, lr}
1a005446:	690b      	ldr	r3, [r1, #16]
1a005448:	4605      	mov	r5, r0
1a00544a:	460c      	mov	r4, r1
1a00544c:	b913      	cbnz	r3, 1a005454 <_fflush_r+0x10>
1a00544e:	2500      	movs	r5, #0
1a005450:	4628      	mov	r0, r5
1a005452:	bd38      	pop	{r3, r4, r5, pc}
1a005454:	b118      	cbz	r0, 1a00545e <_fflush_r+0x1a>
1a005456:	6983      	ldr	r3, [r0, #24]
1a005458:	b90b      	cbnz	r3, 1a00545e <_fflush_r+0x1a>
1a00545a:	f000 f887 	bl	1a00556c <__sinit>
1a00545e:	4b14      	ldr	r3, [pc, #80]	; (1a0054b0 <_fflush_r+0x6c>)
1a005460:	429c      	cmp	r4, r3
1a005462:	d11b      	bne.n	1a00549c <_fflush_r+0x58>
1a005464:	686c      	ldr	r4, [r5, #4]
1a005466:	f9b4 300c 	ldrsh.w	r3, [r4, #12]
1a00546a:	2b00      	cmp	r3, #0
1a00546c:	d0ef      	beq.n	1a00544e <_fflush_r+0xa>
1a00546e:	6e62      	ldr	r2, [r4, #100]	; 0x64
1a005470:	07d0      	lsls	r0, r2, #31
1a005472:	d404      	bmi.n	1a00547e <_fflush_r+0x3a>
1a005474:	0599      	lsls	r1, r3, #22
1a005476:	d402      	bmi.n	1a00547e <_fflush_r+0x3a>
1a005478:	6da0      	ldr	r0, [r4, #88]	; 0x58
1a00547a:	f000 fc3e 	bl	1a005cfa <__retarget_lock_acquire_recursive>
1a00547e:	4628      	mov	r0, r5
1a005480:	4621      	mov	r1, r4
1a005482:	f7ff ff59 	bl	1a005338 <__sflush_r>
1a005486:	6e63      	ldr	r3, [r4, #100]	; 0x64
1a005488:	07da      	lsls	r2, r3, #31
1a00548a:	4605      	mov	r5, r0
1a00548c:	d4e0      	bmi.n	1a005450 <_fflush_r+0xc>
1a00548e:	89a3      	ldrh	r3, [r4, #12]
1a005490:	059b      	lsls	r3, r3, #22
1a005492:	d4dd      	bmi.n	1a005450 <_fflush_r+0xc>
1a005494:	6da0      	ldr	r0, [r4, #88]	; 0x58
1a005496:	f000 fc31 	bl	1a005cfc <__retarget_lock_release_recursive>
1a00549a:	e7d9      	b.n	1a005450 <_fflush_r+0xc>
1a00549c:	4b05      	ldr	r3, [pc, #20]	; (1a0054b4 <_fflush_r+0x70>)
1a00549e:	429c      	cmp	r4, r3
1a0054a0:	d101      	bne.n	1a0054a6 <_fflush_r+0x62>
1a0054a2:	68ac      	ldr	r4, [r5, #8]
1a0054a4:	e7df      	b.n	1a005466 <_fflush_r+0x22>
1a0054a6:	4b04      	ldr	r3, [pc, #16]	; (1a0054b8 <_fflush_r+0x74>)
1a0054a8:	429c      	cmp	r4, r3
1a0054aa:	bf08      	it	eq
1a0054ac:	68ec      	ldreq	r4, [r5, #12]
1a0054ae:	e7da      	b.n	1a005466 <_fflush_r+0x22>
1a0054b0:	1a007e28 	.word	0x1a007e28
1a0054b4:	1a007e48 	.word	0x1a007e48
1a0054b8:	1a007e08 	.word	0x1a007e08

1a0054bc <std>:
1a0054bc:	2300      	movs	r3, #0
1a0054be:	b510      	push	{r4, lr}
1a0054c0:	4604      	mov	r4, r0
1a0054c2:	e9c0 3300 	strd	r3, r3, [r0]
1a0054c6:	6083      	str	r3, [r0, #8]
1a0054c8:	8181      	strh	r1, [r0, #12]
1a0054ca:	6643      	str	r3, [r0, #100]	; 0x64
1a0054cc:	81c2      	strh	r2, [r0, #14]
1a0054ce:	e9c0 3304 	strd	r3, r3, [r0, #16]
1a0054d2:	6183      	str	r3, [r0, #24]
1a0054d4:	4619      	mov	r1, r3
1a0054d6:	2208      	movs	r2, #8
1a0054d8:	305c      	adds	r0, #92	; 0x5c
1a0054da:	f7fe fef3 	bl	1a0042c4 <memset>
1a0054de:	4b05      	ldr	r3, [pc, #20]	; (1a0054f4 <std+0x38>)
1a0054e0:	6263      	str	r3, [r4, #36]	; 0x24
1a0054e2:	4b05      	ldr	r3, [pc, #20]	; (1a0054f8 <std+0x3c>)
1a0054e4:	62a3      	str	r3, [r4, #40]	; 0x28
1a0054e6:	4b05      	ldr	r3, [pc, #20]	; (1a0054fc <std+0x40>)
1a0054e8:	62e3      	str	r3, [r4, #44]	; 0x2c
1a0054ea:	4b05      	ldr	r3, [pc, #20]	; (1a005500 <std+0x44>)
1a0054ec:	6224      	str	r4, [r4, #32]
1a0054ee:	6323      	str	r3, [r4, #48]	; 0x30
1a0054f0:	bd10      	pop	{r4, pc}
1a0054f2:	bf00      	nop
1a0054f4:	1a0044f9 	.word	0x1a0044f9
1a0054f8:	1a00451f 	.word	0x1a00451f
1a0054fc:	1a004557 	.word	0x1a004557
1a005500:	1a00457b 	.word	0x1a00457b

1a005504 <_cleanup_r>:
1a005504:	4901      	ldr	r1, [pc, #4]	; (1a00550c <_cleanup_r+0x8>)
1a005506:	f000 b8af 	b.w	1a005668 <_fwalk_reent>
1a00550a:	bf00      	nop
1a00550c:	1a005445 	.word	0x1a005445

1a005510 <__sfmoreglue>:
1a005510:	b570      	push	{r4, r5, r6, lr}
1a005512:	1e4a      	subs	r2, r1, #1
1a005514:	2568      	movs	r5, #104	; 0x68
1a005516:	4355      	muls	r5, r2
1a005518:	460e      	mov	r6, r1
1a00551a:	f105 0174 	add.w	r1, r5, #116	; 0x74
1a00551e:	f7fe ff27 	bl	1a004370 <_malloc_r>
1a005522:	4604      	mov	r4, r0
1a005524:	b140      	cbz	r0, 1a005538 <__sfmoreglue+0x28>
1a005526:	2100      	movs	r1, #0
1a005528:	e9c0 1600 	strd	r1, r6, [r0]
1a00552c:	300c      	adds	r0, #12
1a00552e:	60a0      	str	r0, [r4, #8]
1a005530:	f105 0268 	add.w	r2, r5, #104	; 0x68
1a005534:	f7fe fec6 	bl	1a0042c4 <memset>
1a005538:	4620      	mov	r0, r4
1a00553a:	bd70      	pop	{r4, r5, r6, pc}

1a00553c <__sfp_lock_acquire>:
1a00553c:	4801      	ldr	r0, [pc, #4]	; (1a005544 <__sfp_lock_acquire+0x8>)
1a00553e:	f000 bbdc 	b.w	1a005cfa <__retarget_lock_acquire_recursive>
1a005542:	bf00      	nop
1a005544:	10000328 	.word	0x10000328

1a005548 <__sfp_lock_release>:
1a005548:	4801      	ldr	r0, [pc, #4]	; (1a005550 <__sfp_lock_release+0x8>)
1a00554a:	f000 bbd7 	b.w	1a005cfc <__retarget_lock_release_recursive>
1a00554e:	bf00      	nop
1a005550:	10000328 	.word	0x10000328

1a005554 <__sinit_lock_acquire>:
1a005554:	4801      	ldr	r0, [pc, #4]	; (1a00555c <__sinit_lock_acquire+0x8>)
1a005556:	f000 bbd0 	b.w	1a005cfa <__retarget_lock_acquire_recursive>
1a00555a:	bf00      	nop
1a00555c:	10000323 	.word	0x10000323

1a005560 <__sinit_lock_release>:
1a005560:	4801      	ldr	r0, [pc, #4]	; (1a005568 <__sinit_lock_release+0x8>)
1a005562:	f000 bbcb 	b.w	1a005cfc <__retarget_lock_release_recursive>
1a005566:	bf00      	nop
1a005568:	10000323 	.word	0x10000323

1a00556c <__sinit>:
1a00556c:	b510      	push	{r4, lr}
1a00556e:	4604      	mov	r4, r0
1a005570:	f7ff fff0 	bl	1a005554 <__sinit_lock_acquire>
1a005574:	69a3      	ldr	r3, [r4, #24]
1a005576:	b11b      	cbz	r3, 1a005580 <__sinit+0x14>
1a005578:	e8bd 4010 	ldmia.w	sp!, {r4, lr}
1a00557c:	f7ff bff0 	b.w	1a005560 <__sinit_lock_release>
1a005580:	e9c4 3312 	strd	r3, r3, [r4, #72]	; 0x48
1a005584:	6523      	str	r3, [r4, #80]	; 0x50
1a005586:	4b13      	ldr	r3, [pc, #76]	; (1a0055d4 <__sinit+0x68>)
1a005588:	4a13      	ldr	r2, [pc, #76]	; (1a0055d8 <__sinit+0x6c>)
1a00558a:	681b      	ldr	r3, [r3, #0]
1a00558c:	62a2      	str	r2, [r4, #40]	; 0x28
1a00558e:	42a3      	cmp	r3, r4
1a005590:	bf04      	itt	eq
1a005592:	2301      	moveq	r3, #1
1a005594:	61a3      	streq	r3, [r4, #24]
1a005596:	4620      	mov	r0, r4
1a005598:	f000 f820 	bl	1a0055dc <__sfp>
1a00559c:	6060      	str	r0, [r4, #4]
1a00559e:	4620      	mov	r0, r4
1a0055a0:	f000 f81c 	bl	1a0055dc <__sfp>
1a0055a4:	60a0      	str	r0, [r4, #8]
1a0055a6:	4620      	mov	r0, r4
1a0055a8:	f000 f818 	bl	1a0055dc <__sfp>
1a0055ac:	2200      	movs	r2, #0
1a0055ae:	60e0      	str	r0, [r4, #12]
1a0055b0:	2104      	movs	r1, #4
1a0055b2:	6860      	ldr	r0, [r4, #4]
1a0055b4:	f7ff ff82 	bl	1a0054bc <std>
1a0055b8:	2201      	movs	r2, #1
1a0055ba:	2109      	movs	r1, #9
1a0055bc:	68a0      	ldr	r0, [r4, #8]
1a0055be:	f7ff ff7d 	bl	1a0054bc <std>
1a0055c2:	2202      	movs	r2, #2
1a0055c4:	2112      	movs	r1, #18
1a0055c6:	68e0      	ldr	r0, [r4, #12]
1a0055c8:	f7ff ff78 	bl	1a0054bc <std>
1a0055cc:	2301      	movs	r3, #1
1a0055ce:	61a3      	str	r3, [r4, #24]
1a0055d0:	e7d2      	b.n	1a005578 <__sinit+0xc>
1a0055d2:	bf00      	nop
1a0055d4:	1a007e68 	.word	0x1a007e68
1a0055d8:	1a005505 	.word	0x1a005505

1a0055dc <__sfp>:
1a0055dc:	b5f8      	push	{r3, r4, r5, r6, r7, lr}
1a0055de:	4607      	mov	r7, r0
1a0055e0:	f7ff ffac 	bl	1a00553c <__sfp_lock_acquire>
1a0055e4:	4b1e      	ldr	r3, [pc, #120]	; (1a005660 <__sfp+0x84>)
1a0055e6:	681e      	ldr	r6, [r3, #0]
1a0055e8:	69b3      	ldr	r3, [r6, #24]
1a0055ea:	b913      	cbnz	r3, 1a0055f2 <__sfp+0x16>
1a0055ec:	4630      	mov	r0, r6
1a0055ee:	f7ff ffbd 	bl	1a00556c <__sinit>
1a0055f2:	3648      	adds	r6, #72	; 0x48
1a0055f4:	e9d6 3401 	ldrd	r3, r4, [r6, #4]
1a0055f8:	3b01      	subs	r3, #1
1a0055fa:	d503      	bpl.n	1a005604 <__sfp+0x28>
1a0055fc:	6833      	ldr	r3, [r6, #0]
1a0055fe:	b30b      	cbz	r3, 1a005644 <__sfp+0x68>
1a005600:	6836      	ldr	r6, [r6, #0]
1a005602:	e7f7      	b.n	1a0055f4 <__sfp+0x18>
1a005604:	f9b4 500c 	ldrsh.w	r5, [r4, #12]
1a005608:	b9d5      	cbnz	r5, 1a005640 <__sfp+0x64>
1a00560a:	4b16      	ldr	r3, [pc, #88]	; (1a005664 <__sfp+0x88>)
1a00560c:	60e3      	str	r3, [r4, #12]
1a00560e:	f104 0058 	add.w	r0, r4, #88	; 0x58
1a005612:	6665      	str	r5, [r4, #100]	; 0x64
1a005614:	f000 fb70 	bl	1a005cf8 <__retarget_lock_init_recursive>
1a005618:	f7ff ff96 	bl	1a005548 <__sfp_lock_release>
1a00561c:	6025      	str	r5, [r4, #0]
1a00561e:	e9c4 5501 	strd	r5, r5, [r4, #4]
1a005622:	e9c4 5504 	strd	r5, r5, [r4, #16]
1a005626:	61a5      	str	r5, [r4, #24]
1a005628:	2208      	movs	r2, #8
1a00562a:	4629      	mov	r1, r5
1a00562c:	f104 005c 	add.w	r0, r4, #92	; 0x5c
1a005630:	f7fe fe48 	bl	1a0042c4 <memset>
1a005634:	e9c4 550d 	strd	r5, r5, [r4, #52]	; 0x34
1a005638:	e9c4 5512 	strd	r5, r5, [r4, #72]	; 0x48
1a00563c:	4620      	mov	r0, r4
1a00563e:	bdf8      	pop	{r3, r4, r5, r6, r7, pc}
1a005640:	3468      	adds	r4, #104	; 0x68
1a005642:	e7d9      	b.n	1a0055f8 <__sfp+0x1c>
1a005644:	2104      	movs	r1, #4
1a005646:	4638      	mov	r0, r7
1a005648:	f7ff ff62 	bl	1a005510 <__sfmoreglue>
1a00564c:	4604      	mov	r4, r0
1a00564e:	6030      	str	r0, [r6, #0]
1a005650:	2800      	cmp	r0, #0
1a005652:	d1d5      	bne.n	1a005600 <__sfp+0x24>
1a005654:	f7ff ff78 	bl	1a005548 <__sfp_lock_release>
1a005658:	230c      	movs	r3, #12
1a00565a:	603b      	str	r3, [r7, #0]
1a00565c:	e7ee      	b.n	1a00563c <__sfp+0x60>
1a00565e:	bf00      	nop
1a005660:	1a007e68 	.word	0x1a007e68
1a005664:	ffff0001 	.word	0xffff0001

1a005668 <_fwalk_reent>:
1a005668:	e92d 43f8 	stmdb	sp!, {r3, r4, r5, r6, r7, r8, r9, lr}
1a00566c:	4680      	mov	r8, r0
1a00566e:	4689      	mov	r9, r1
1a005670:	f100 0448 	add.w	r4, r0, #72	; 0x48
1a005674:	2600      	movs	r6, #0
1a005676:	b914      	cbnz	r4, 1a00567e <_fwalk_reent+0x16>
1a005678:	4630      	mov	r0, r6
1a00567a:	e8bd 83f8 	ldmia.w	sp!, {r3, r4, r5, r6, r7, r8, r9, pc}
1a00567e:	e9d4 7501 	ldrd	r7, r5, [r4, #4]
1a005682:	3f01      	subs	r7, #1
1a005684:	d501      	bpl.n	1a00568a <_fwalk_reent+0x22>
1a005686:	6824      	ldr	r4, [r4, #0]
1a005688:	e7f5      	b.n	1a005676 <_fwalk_reent+0xe>
1a00568a:	89ab      	ldrh	r3, [r5, #12]
1a00568c:	2b01      	cmp	r3, #1
1a00568e:	d907      	bls.n	1a0056a0 <_fwalk_reent+0x38>
1a005690:	f9b5 300e 	ldrsh.w	r3, [r5, #14]
1a005694:	3301      	adds	r3, #1
1a005696:	d003      	beq.n	1a0056a0 <_fwalk_reent+0x38>
1a005698:	4629      	mov	r1, r5
1a00569a:	4640      	mov	r0, r8
1a00569c:	47c8      	blx	r9
1a00569e:	4306      	orrs	r6, r0
1a0056a0:	3568      	adds	r5, #104	; 0x68
1a0056a2:	e7ee      	b.n	1a005682 <_fwalk_reent+0x1a>

1a0056a4 <rshift>:
1a0056a4:	b5f0      	push	{r4, r5, r6, r7, lr}
1a0056a6:	6906      	ldr	r6, [r0, #16]
1a0056a8:	114b      	asrs	r3, r1, #5
1a0056aa:	429e      	cmp	r6, r3
1a0056ac:	f100 0414 	add.w	r4, r0, #20
1a0056b0:	dd30      	ble.n	1a005714 <rshift+0x70>
1a0056b2:	f011 011f 	ands.w	r1, r1, #31
1a0056b6:	eb04 0686 	add.w	r6, r4, r6, lsl #2
1a0056ba:	eb04 0283 	add.w	r2, r4, r3, lsl #2
1a0056be:	d108      	bne.n	1a0056d2 <rshift+0x2e>
1a0056c0:	4621      	mov	r1, r4
1a0056c2:	42b2      	cmp	r2, r6
1a0056c4:	460b      	mov	r3, r1
1a0056c6:	d211      	bcs.n	1a0056ec <rshift+0x48>
1a0056c8:	f852 3b04 	ldr.w	r3, [r2], #4
1a0056cc:	f841 3b04 	str.w	r3, [r1], #4
1a0056d0:	e7f7      	b.n	1a0056c2 <rshift+0x1e>
1a0056d2:	f854 5023 	ldr.w	r5, [r4, r3, lsl #2]
1a0056d6:	f1c1 0c20 	rsb	ip, r1, #32
1a0056da:	40cd      	lsrs	r5, r1
1a0056dc:	3204      	adds	r2, #4
1a0056de:	4623      	mov	r3, r4
1a0056e0:	4296      	cmp	r6, r2
1a0056e2:	4617      	mov	r7, r2
1a0056e4:	d80c      	bhi.n	1a005700 <rshift+0x5c>
1a0056e6:	601d      	str	r5, [r3, #0]
1a0056e8:	b105      	cbz	r5, 1a0056ec <rshift+0x48>
1a0056ea:	3304      	adds	r3, #4
1a0056ec:	1b1a      	subs	r2, r3, r4
1a0056ee:	42a3      	cmp	r3, r4
1a0056f0:	ea4f 02a2 	mov.w	r2, r2, asr #2
1a0056f4:	bf08      	it	eq
1a0056f6:	2300      	moveq	r3, #0
1a0056f8:	6102      	str	r2, [r0, #16]
1a0056fa:	bf08      	it	eq
1a0056fc:	6143      	streq	r3, [r0, #20]
1a0056fe:	bdf0      	pop	{r4, r5, r6, r7, pc}
1a005700:	683f      	ldr	r7, [r7, #0]
1a005702:	fa07 f70c 	lsl.w	r7, r7, ip
1a005706:	433d      	orrs	r5, r7
1a005708:	f843 5b04 	str.w	r5, [r3], #4
1a00570c:	f852 5b04 	ldr.w	r5, [r2], #4
1a005710:	40cd      	lsrs	r5, r1
1a005712:	e7e5      	b.n	1a0056e0 <rshift+0x3c>
1a005714:	4623      	mov	r3, r4
1a005716:	e7e9      	b.n	1a0056ec <rshift+0x48>

1a005718 <__hexdig_fun>:
1a005718:	f1a0 0330 	sub.w	r3, r0, #48	; 0x30
1a00571c:	2b09      	cmp	r3, #9
1a00571e:	d802      	bhi.n	1a005726 <__hexdig_fun+0xe>
1a005720:	3820      	subs	r0, #32
1a005722:	b2c0      	uxtb	r0, r0
1a005724:	4770      	bx	lr
1a005726:	f1a0 0361 	sub.w	r3, r0, #97	; 0x61
1a00572a:	2b05      	cmp	r3, #5
1a00572c:	d801      	bhi.n	1a005732 <__hexdig_fun+0x1a>
1a00572e:	3847      	subs	r0, #71	; 0x47
1a005730:	e7f7      	b.n	1a005722 <__hexdig_fun+0xa>
1a005732:	f1a0 0341 	sub.w	r3, r0, #65	; 0x41
1a005736:	2b05      	cmp	r3, #5
1a005738:	d801      	bhi.n	1a00573e <__hexdig_fun+0x26>
1a00573a:	3827      	subs	r0, #39	; 0x27
1a00573c:	e7f1      	b.n	1a005722 <__hexdig_fun+0xa>
1a00573e:	2000      	movs	r0, #0
1a005740:	4770      	bx	lr
1a005742:	Address 0x1a005742 is out of bounds.


1a005744 <__gethex>:
1a005744:	e92d 4ff0 	stmdb	sp!, {r4, r5, r6, r7, r8, r9, sl, fp, lr}
1a005748:	b08b      	sub	sp, #44	; 0x2c
1a00574a:	468b      	mov	fp, r1
1a00574c:	9306      	str	r3, [sp, #24]
1a00574e:	4bb7      	ldr	r3, [pc, #732]	; (1a005a2c <__gethex+0x2e8>)
1a005750:	9002      	str	r0, [sp, #8]
1a005752:	681b      	ldr	r3, [r3, #0]
1a005754:	9303      	str	r3, [sp, #12]
1a005756:	4618      	mov	r0, r3
1a005758:	4690      	mov	r8, r2
1a00575a:	f7fe ff1c 	bl	1a004596 <strlen>
1a00575e:	9b03      	ldr	r3, [sp, #12]
1a005760:	f8db 2000 	ldr.w	r2, [fp]
1a005764:	9001      	str	r0, [sp, #4]
1a005766:	4403      	add	r3, r0
1a005768:	f813 3c01 	ldrb.w	r3, [r3, #-1]
1a00576c:	9307      	str	r3, [sp, #28]
1a00576e:	1c93      	adds	r3, r2, #2
1a005770:	f1c2 22ff 	rsb	r2, r2, #4278255360	; 0xff00ff00
1a005774:	f502 027f 	add.w	r2, r2, #16711680	; 0xff0000
1a005778:	32fe      	adds	r2, #254	; 0xfe
1a00577a:	eb02 0a03 	add.w	sl, r2, r3
1a00577e:	461f      	mov	r7, r3
1a005780:	f813 0b01 	ldrb.w	r0, [r3], #1
1a005784:	2830      	cmp	r0, #48	; 0x30
1a005786:	d0f8      	beq.n	1a00577a <__gethex+0x36>
1a005788:	f7ff ffc6 	bl	1a005718 <__hexdig_fun>
1a00578c:	4604      	mov	r4, r0
1a00578e:	2800      	cmp	r0, #0
1a005790:	d167      	bne.n	1a005862 <__gethex+0x11e>
1a005792:	9a01      	ldr	r2, [sp, #4]
1a005794:	9903      	ldr	r1, [sp, #12]
1a005796:	4638      	mov	r0, r7
1a005798:	f7fe ff05 	bl	1a0045a6 <strncmp>
1a00579c:	2800      	cmp	r0, #0
1a00579e:	d163      	bne.n	1a005868 <__gethex+0x124>
1a0057a0:	9b01      	ldr	r3, [sp, #4]
1a0057a2:	5cf8      	ldrb	r0, [r7, r3]
1a0057a4:	18fe      	adds	r6, r7, r3
1a0057a6:	f7ff ffb7 	bl	1a005718 <__hexdig_fun>
1a0057aa:	2800      	cmp	r0, #0
1a0057ac:	d05f      	beq.n	1a00586e <__gethex+0x12a>
1a0057ae:	4633      	mov	r3, r6
1a0057b0:	7818      	ldrb	r0, [r3, #0]
1a0057b2:	2830      	cmp	r0, #48	; 0x30
1a0057b4:	461f      	mov	r7, r3
1a0057b6:	f103 0301 	add.w	r3, r3, #1
1a0057ba:	d0f9      	beq.n	1a0057b0 <__gethex+0x6c>
1a0057bc:	f7ff ffac 	bl	1a005718 <__hexdig_fun>
1a0057c0:	fab0 f580 	clz	r5, r0
1a0057c4:	096d      	lsrs	r5, r5, #5
1a0057c6:	4634      	mov	r4, r6
1a0057c8:	f04f 0a01 	mov.w	sl, #1
1a0057cc:	463a      	mov	r2, r7
1a0057ce:	4616      	mov	r6, r2
1a0057d0:	3201      	adds	r2, #1
1a0057d2:	7830      	ldrb	r0, [r6, #0]
1a0057d4:	f7ff ffa0 	bl	1a005718 <__hexdig_fun>
1a0057d8:	2800      	cmp	r0, #0
1a0057da:	d1f8      	bne.n	1a0057ce <__gethex+0x8a>
1a0057dc:	9a01      	ldr	r2, [sp, #4]
1a0057de:	9903      	ldr	r1, [sp, #12]
1a0057e0:	4630      	mov	r0, r6
1a0057e2:	f7fe fee0 	bl	1a0045a6 <strncmp>
1a0057e6:	b950      	cbnz	r0, 1a0057fe <__gethex+0xba>
1a0057e8:	b954      	cbnz	r4, 1a005800 <__gethex+0xbc>
1a0057ea:	9b01      	ldr	r3, [sp, #4]
1a0057ec:	18f4      	adds	r4, r6, r3
1a0057ee:	4622      	mov	r2, r4
1a0057f0:	4616      	mov	r6, r2
1a0057f2:	3201      	adds	r2, #1
1a0057f4:	7830      	ldrb	r0, [r6, #0]
1a0057f6:	f7ff ff8f 	bl	1a005718 <__hexdig_fun>
1a0057fa:	2800      	cmp	r0, #0
1a0057fc:	d1f8      	bne.n	1a0057f0 <__gethex+0xac>
1a0057fe:	b10c      	cbz	r4, 1a005804 <__gethex+0xc0>
1a005800:	1ba4      	subs	r4, r4, r6
1a005802:	00a4      	lsls	r4, r4, #2
1a005804:	7833      	ldrb	r3, [r6, #0]
1a005806:	2b50      	cmp	r3, #80	; 0x50
1a005808:	d001      	beq.n	1a00580e <__gethex+0xca>
1a00580a:	2b70      	cmp	r3, #112	; 0x70
1a00580c:	d13d      	bne.n	1a00588a <__gethex+0x146>
1a00580e:	7873      	ldrb	r3, [r6, #1]
1a005810:	2b2b      	cmp	r3, #43	; 0x2b
1a005812:	d02e      	beq.n	1a005872 <__gethex+0x12e>
1a005814:	2b2d      	cmp	r3, #45	; 0x2d
1a005816:	d030      	beq.n	1a00587a <__gethex+0x136>
1a005818:	1c71      	adds	r1, r6, #1
1a00581a:	f04f 0900 	mov.w	r9, #0
1a00581e:	7808      	ldrb	r0, [r1, #0]
1a005820:	f7ff ff7a 	bl	1a005718 <__hexdig_fun>
1a005824:	1e43      	subs	r3, r0, #1
1a005826:	b2db      	uxtb	r3, r3
1a005828:	2b18      	cmp	r3, #24
1a00582a:	d82e      	bhi.n	1a00588a <__gethex+0x146>
1a00582c:	f1a0 0210 	sub.w	r2, r0, #16
1a005830:	f811 0f01 	ldrb.w	r0, [r1, #1]!
1a005834:	f7ff ff70 	bl	1a005718 <__hexdig_fun>
1a005838:	1e43      	subs	r3, r0, #1
1a00583a:	b2db      	uxtb	r3, r3
1a00583c:	2b18      	cmp	r3, #24
1a00583e:	d91f      	bls.n	1a005880 <__gethex+0x13c>
1a005840:	f1b9 0f00 	cmp.w	r9, #0
1a005844:	d000      	beq.n	1a005848 <__gethex+0x104>
1a005846:	4252      	negs	r2, r2
1a005848:	4414      	add	r4, r2
1a00584a:	f8cb 1000 	str.w	r1, [fp]
1a00584e:	b1f5      	cbz	r5, 1a00588e <__gethex+0x14a>
1a005850:	f1ba 0f00 	cmp.w	sl, #0
1a005854:	bf14      	ite	ne
1a005856:	2700      	movne	r7, #0
1a005858:	2706      	moveq	r7, #6
1a00585a:	4638      	mov	r0, r7
1a00585c:	b00b      	add	sp, #44	; 0x2c
1a00585e:	e8bd 8ff0 	ldmia.w	sp!, {r4, r5, r6, r7, r8, r9, sl, fp, pc}
1a005862:	2500      	movs	r5, #0
1a005864:	462c      	mov	r4, r5
1a005866:	e7b1      	b.n	1a0057cc <__gethex+0x88>
1a005868:	463e      	mov	r6, r7
1a00586a:	2501      	movs	r5, #1
1a00586c:	e7ca      	b.n	1a005804 <__gethex+0xc0>
1a00586e:	4604      	mov	r4, r0
1a005870:	e7fb      	b.n	1a00586a <__gethex+0x126>
1a005872:	f04f 0900 	mov.w	r9, #0
1a005876:	1cb1      	adds	r1, r6, #2
1a005878:	e7d1      	b.n	1a00581e <__gethex+0xda>
1a00587a:	f04f 0901 	mov.w	r9, #1
1a00587e:	e7fa      	b.n	1a005876 <__gethex+0x132>
1a005880:	230a      	movs	r3, #10
1a005882:	fb03 0202 	mla	r2, r3, r2, r0
1a005886:	3a10      	subs	r2, #16
1a005888:	e7d2      	b.n	1a005830 <__gethex+0xec>
1a00588a:	4631      	mov	r1, r6
1a00588c:	e7dd      	b.n	1a00584a <__gethex+0x106>
1a00588e:	1bf3      	subs	r3, r6, r7
1a005890:	3b01      	subs	r3, #1
1a005892:	4629      	mov	r1, r5
1a005894:	2b07      	cmp	r3, #7
1a005896:	dc4f      	bgt.n	1a005938 <__gethex+0x1f4>
1a005898:	9802      	ldr	r0, [sp, #8]
1a00589a:	f000 fab3 	bl	1a005e04 <_Balloc>
1a00589e:	9b01      	ldr	r3, [sp, #4]
1a0058a0:	f100 0914 	add.w	r9, r0, #20
1a0058a4:	f04f 0b00 	mov.w	fp, #0
1a0058a8:	f1c3 0301 	rsb	r3, r3, #1
1a0058ac:	4605      	mov	r5, r0
1a0058ae:	f8cd 9010 	str.w	r9, [sp, #16]
1a0058b2:	46da      	mov	sl, fp
1a0058b4:	9308      	str	r3, [sp, #32]
1a0058b6:	42b7      	cmp	r7, r6
1a0058b8:	d341      	bcc.n	1a00593e <__gethex+0x1fa>
1a0058ba:	9804      	ldr	r0, [sp, #16]
1a0058bc:	f840 ab04 	str.w	sl, [r0], #4
1a0058c0:	eba0 0009 	sub.w	r0, r0, r9
1a0058c4:	1080      	asrs	r0, r0, #2
1a0058c6:	6128      	str	r0, [r5, #16]
1a0058c8:	0147      	lsls	r7, r0, #5
1a0058ca:	4650      	mov	r0, sl
1a0058cc:	f000 fb5e 	bl	1a005f8c <__hi0bits>
1a0058d0:	f8d8 6000 	ldr.w	r6, [r8]
1a0058d4:	1a3f      	subs	r7, r7, r0
1a0058d6:	42b7      	cmp	r7, r6
1a0058d8:	dd63      	ble.n	1a0059a2 <__gethex+0x25e>
1a0058da:	1bbf      	subs	r7, r7, r6
1a0058dc:	4639      	mov	r1, r7
1a0058de:	4628      	mov	r0, r5
1a0058e0:	f000 fe67 	bl	1a0065b2 <__any_on>
1a0058e4:	4682      	mov	sl, r0
1a0058e6:	b1a8      	cbz	r0, 1a005914 <__gethex+0x1d0>
1a0058e8:	1e7b      	subs	r3, r7, #1
1a0058ea:	1159      	asrs	r1, r3, #5
1a0058ec:	f003 021f 	and.w	r2, r3, #31
1a0058f0:	f04f 0a01 	mov.w	sl, #1
1a0058f4:	f859 1021 	ldr.w	r1, [r9, r1, lsl #2]
1a0058f8:	fa0a f202 	lsl.w	r2, sl, r2
1a0058fc:	420a      	tst	r2, r1
1a0058fe:	d009      	beq.n	1a005914 <__gethex+0x1d0>
1a005900:	4553      	cmp	r3, sl
1a005902:	dd05      	ble.n	1a005910 <__gethex+0x1cc>
1a005904:	1eb9      	subs	r1, r7, #2
1a005906:	4628      	mov	r0, r5
1a005908:	f000 fe53 	bl	1a0065b2 <__any_on>
1a00590c:	2800      	cmp	r0, #0
1a00590e:	d145      	bne.n	1a00599c <__gethex+0x258>
1a005910:	f04f 0a02 	mov.w	sl, #2
1a005914:	4639      	mov	r1, r7
1a005916:	4628      	mov	r0, r5
1a005918:	f7ff fec4 	bl	1a0056a4 <rshift>
1a00591c:	443c      	add	r4, r7
1a00591e:	f8d8 3008 	ldr.w	r3, [r8, #8]
1a005922:	42a3      	cmp	r3, r4
1a005924:	da4b      	bge.n	1a0059be <__gethex+0x27a>
1a005926:	4629      	mov	r1, r5
1a005928:	9802      	ldr	r0, [sp, #8]
1a00592a:	f000 fa9f 	bl	1a005e6c <_Bfree>
1a00592e:	9a14      	ldr	r2, [sp, #80]	; 0x50
1a005930:	2300      	movs	r3, #0
1a005932:	6013      	str	r3, [r2, #0]
1a005934:	27a3      	movs	r7, #163	; 0xa3
1a005936:	e790      	b.n	1a00585a <__gethex+0x116>
1a005938:	3101      	adds	r1, #1
1a00593a:	105b      	asrs	r3, r3, #1
1a00593c:	e7aa      	b.n	1a005894 <__gethex+0x150>
1a00593e:	1e73      	subs	r3, r6, #1
1a005940:	9305      	str	r3, [sp, #20]
1a005942:	9a07      	ldr	r2, [sp, #28]
1a005944:	f816 3c01 	ldrb.w	r3, [r6, #-1]
1a005948:	4293      	cmp	r3, r2
1a00594a:	d017      	beq.n	1a00597c <__gethex+0x238>
1a00594c:	f1bb 0f20 	cmp.w	fp, #32
1a005950:	d106      	bne.n	1a005960 <__gethex+0x21c>
1a005952:	9b04      	ldr	r3, [sp, #16]
1a005954:	f843 ab04 	str.w	sl, [r3], #4
1a005958:	f04f 0a00 	mov.w	sl, #0
1a00595c:	9304      	str	r3, [sp, #16]
1a00595e:	46d3      	mov	fp, sl
1a005960:	f816 0c01 	ldrb.w	r0, [r6, #-1]
1a005964:	f7ff fed8 	bl	1a005718 <__hexdig_fun>
1a005968:	f000 000f 	and.w	r0, r0, #15
1a00596c:	fa00 f00b 	lsl.w	r0, r0, fp
1a005970:	ea4a 0a00 	orr.w	sl, sl, r0
1a005974:	f10b 0b04 	add.w	fp, fp, #4
1a005978:	9b05      	ldr	r3, [sp, #20]
1a00597a:	e00d      	b.n	1a005998 <__gethex+0x254>
1a00597c:	9b05      	ldr	r3, [sp, #20]
1a00597e:	9a08      	ldr	r2, [sp, #32]
1a005980:	4413      	add	r3, r2
1a005982:	42bb      	cmp	r3, r7
1a005984:	d3e2      	bcc.n	1a00594c <__gethex+0x208>
1a005986:	4618      	mov	r0, r3
1a005988:	9a01      	ldr	r2, [sp, #4]
1a00598a:	9903      	ldr	r1, [sp, #12]
1a00598c:	9309      	str	r3, [sp, #36]	; 0x24
1a00598e:	f7fe fe0a 	bl	1a0045a6 <strncmp>
1a005992:	9b09      	ldr	r3, [sp, #36]	; 0x24
1a005994:	2800      	cmp	r0, #0
1a005996:	d1d9      	bne.n	1a00594c <__gethex+0x208>
1a005998:	461e      	mov	r6, r3
1a00599a:	e78c      	b.n	1a0058b6 <__gethex+0x172>
1a00599c:	f04f 0a03 	mov.w	sl, #3
1a0059a0:	e7b8      	b.n	1a005914 <__gethex+0x1d0>
1a0059a2:	da09      	bge.n	1a0059b8 <__gethex+0x274>
1a0059a4:	1bf7      	subs	r7, r6, r7
1a0059a6:	4629      	mov	r1, r5
1a0059a8:	463a      	mov	r2, r7
1a0059aa:	9802      	ldr	r0, [sp, #8]
1a0059ac:	f000 fc26 	bl	1a0061fc <__lshift>
1a0059b0:	1be4      	subs	r4, r4, r7
1a0059b2:	4605      	mov	r5, r0
1a0059b4:	f100 0914 	add.w	r9, r0, #20
1a0059b8:	f04f 0a00 	mov.w	sl, #0
1a0059bc:	e7af      	b.n	1a00591e <__gethex+0x1da>
1a0059be:	f8d8 0004 	ldr.w	r0, [r8, #4]
1a0059c2:	42a0      	cmp	r0, r4
1a0059c4:	dd6d      	ble.n	1a005aa2 <__gethex+0x35e>
1a0059c6:	1b04      	subs	r4, r0, r4
1a0059c8:	42a6      	cmp	r6, r4
1a0059ca:	dc31      	bgt.n	1a005a30 <__gethex+0x2ec>
1a0059cc:	f8d8 300c 	ldr.w	r3, [r8, #12]
1a0059d0:	2b02      	cmp	r3, #2
1a0059d2:	d022      	beq.n	1a005a1a <__gethex+0x2d6>
1a0059d4:	2b03      	cmp	r3, #3
1a0059d6:	d024      	beq.n	1a005a22 <__gethex+0x2de>
1a0059d8:	2b01      	cmp	r3, #1
1a0059da:	d115      	bne.n	1a005a08 <__gethex+0x2c4>
1a0059dc:	42a6      	cmp	r6, r4
1a0059de:	d113      	bne.n	1a005a08 <__gethex+0x2c4>
1a0059e0:	2e01      	cmp	r6, #1
1a0059e2:	d10b      	bne.n	1a0059fc <__gethex+0x2b8>
1a0059e4:	9a06      	ldr	r2, [sp, #24]
1a0059e6:	f8d8 3004 	ldr.w	r3, [r8, #4]
1a0059ea:	6013      	str	r3, [r2, #0]
1a0059ec:	2301      	movs	r3, #1
1a0059ee:	612b      	str	r3, [r5, #16]
1a0059f0:	f8c9 3000 	str.w	r3, [r9]
1a0059f4:	9b14      	ldr	r3, [sp, #80]	; 0x50
1a0059f6:	2762      	movs	r7, #98	; 0x62
1a0059f8:	601d      	str	r5, [r3, #0]
1a0059fa:	e72e      	b.n	1a00585a <__gethex+0x116>
1a0059fc:	1e71      	subs	r1, r6, #1
1a0059fe:	4628      	mov	r0, r5
1a005a00:	f000 fdd7 	bl	1a0065b2 <__any_on>
1a005a04:	2800      	cmp	r0, #0
1a005a06:	d1ed      	bne.n	1a0059e4 <__gethex+0x2a0>
1a005a08:	4629      	mov	r1, r5
1a005a0a:	9802      	ldr	r0, [sp, #8]
1a005a0c:	f000 fa2e 	bl	1a005e6c <_Bfree>
1a005a10:	9a14      	ldr	r2, [sp, #80]	; 0x50
1a005a12:	2300      	movs	r3, #0
1a005a14:	6013      	str	r3, [r2, #0]
1a005a16:	2750      	movs	r7, #80	; 0x50
1a005a18:	e71f      	b.n	1a00585a <__gethex+0x116>
1a005a1a:	9b15      	ldr	r3, [sp, #84]	; 0x54
1a005a1c:	2b00      	cmp	r3, #0
1a005a1e:	d1f3      	bne.n	1a005a08 <__gethex+0x2c4>
1a005a20:	e7e0      	b.n	1a0059e4 <__gethex+0x2a0>
1a005a22:	9b15      	ldr	r3, [sp, #84]	; 0x54
1a005a24:	2b00      	cmp	r3, #0
1a005a26:	d1dd      	bne.n	1a0059e4 <__gethex+0x2a0>
1a005a28:	e7ee      	b.n	1a005a08 <__gethex+0x2c4>
1a005a2a:	bf00      	nop
1a005a2c:	1a007e6c 	.word	0x1a007e6c
1a005a30:	1e67      	subs	r7, r4, #1
1a005a32:	f1ba 0f00 	cmp.w	sl, #0
1a005a36:	d131      	bne.n	1a005a9c <__gethex+0x358>
1a005a38:	b127      	cbz	r7, 1a005a44 <__gethex+0x300>
1a005a3a:	4639      	mov	r1, r7
1a005a3c:	4628      	mov	r0, r5
1a005a3e:	f000 fdb8 	bl	1a0065b2 <__any_on>
1a005a42:	4682      	mov	sl, r0
1a005a44:	117a      	asrs	r2, r7, #5
1a005a46:	2301      	movs	r3, #1
1a005a48:	f007 071f 	and.w	r7, r7, #31
1a005a4c:	fa03 f707 	lsl.w	r7, r3, r7
1a005a50:	f859 3022 	ldr.w	r3, [r9, r2, lsl #2]
1a005a54:	4621      	mov	r1, r4
1a005a56:	421f      	tst	r7, r3
1a005a58:	4628      	mov	r0, r5
1a005a5a:	bf18      	it	ne
1a005a5c:	f04a 0a02 	orrne.w	sl, sl, #2
1a005a60:	1b36      	subs	r6, r6, r4
1a005a62:	f7ff fe1f 	bl	1a0056a4 <rshift>
1a005a66:	f8d8 4004 	ldr.w	r4, [r8, #4]
1a005a6a:	2702      	movs	r7, #2
1a005a6c:	f1ba 0f00 	cmp.w	sl, #0
1a005a70:	d048      	beq.n	1a005b04 <__gethex+0x3c0>
1a005a72:	f8d8 300c 	ldr.w	r3, [r8, #12]
1a005a76:	2b02      	cmp	r3, #2
1a005a78:	d015      	beq.n	1a005aa6 <__gethex+0x362>
1a005a7a:	2b03      	cmp	r3, #3
1a005a7c:	d017      	beq.n	1a005aae <__gethex+0x36a>
1a005a7e:	2b01      	cmp	r3, #1
1a005a80:	d109      	bne.n	1a005a96 <__gethex+0x352>
1a005a82:	f01a 0f02 	tst.w	sl, #2
1a005a86:	d006      	beq.n	1a005a96 <__gethex+0x352>
1a005a88:	f8d9 3000 	ldr.w	r3, [r9]
1a005a8c:	ea4a 0a03 	orr.w	sl, sl, r3
1a005a90:	f01a 0f01 	tst.w	sl, #1
1a005a94:	d10e      	bne.n	1a005ab4 <__gethex+0x370>
1a005a96:	f047 0710 	orr.w	r7, r7, #16
1a005a9a:	e033      	b.n	1a005b04 <__gethex+0x3c0>
1a005a9c:	f04f 0a01 	mov.w	sl, #1
1a005aa0:	e7d0      	b.n	1a005a44 <__gethex+0x300>
1a005aa2:	2701      	movs	r7, #1
1a005aa4:	e7e2      	b.n	1a005a6c <__gethex+0x328>
1a005aa6:	9b15      	ldr	r3, [sp, #84]	; 0x54
1a005aa8:	f1c3 0301 	rsb	r3, r3, #1
1a005aac:	9315      	str	r3, [sp, #84]	; 0x54
1a005aae:	9b15      	ldr	r3, [sp, #84]	; 0x54
1a005ab0:	2b00      	cmp	r3, #0
1a005ab2:	d0f0      	beq.n	1a005a96 <__gethex+0x352>
1a005ab4:	f8d5 9010 	ldr.w	r9, [r5, #16]
1a005ab8:	f105 0314 	add.w	r3, r5, #20
1a005abc:	ea4f 0a89 	mov.w	sl, r9, lsl #2
1a005ac0:	eb03 010a 	add.w	r1, r3, sl
1a005ac4:	f04f 0c00 	mov.w	ip, #0
1a005ac8:	4618      	mov	r0, r3
1a005aca:	f853 2b04 	ldr.w	r2, [r3], #4
1a005ace:	f1b2 3fff 	cmp.w	r2, #4294967295
1a005ad2:	d01c      	beq.n	1a005b0e <__gethex+0x3ca>
1a005ad4:	3201      	adds	r2, #1
1a005ad6:	6002      	str	r2, [r0, #0]
1a005ad8:	2f02      	cmp	r7, #2
1a005ada:	f105 0314 	add.w	r3, r5, #20
1a005ade:	d138      	bne.n	1a005b52 <__gethex+0x40e>
1a005ae0:	f8d8 2000 	ldr.w	r2, [r8]
1a005ae4:	3a01      	subs	r2, #1
1a005ae6:	42b2      	cmp	r2, r6
1a005ae8:	d10a      	bne.n	1a005b00 <__gethex+0x3bc>
1a005aea:	1171      	asrs	r1, r6, #5
1a005aec:	2201      	movs	r2, #1
1a005aee:	f006 061f 	and.w	r6, r6, #31
1a005af2:	f853 3021 	ldr.w	r3, [r3, r1, lsl #2]
1a005af6:	fa02 f606 	lsl.w	r6, r2, r6
1a005afa:	421e      	tst	r6, r3
1a005afc:	bf18      	it	ne
1a005afe:	4617      	movne	r7, r2
1a005b00:	f047 0720 	orr.w	r7, r7, #32
1a005b04:	9b14      	ldr	r3, [sp, #80]	; 0x50
1a005b06:	601d      	str	r5, [r3, #0]
1a005b08:	9b06      	ldr	r3, [sp, #24]
1a005b0a:	601c      	str	r4, [r3, #0]
1a005b0c:	e6a5      	b.n	1a00585a <__gethex+0x116>
1a005b0e:	4299      	cmp	r1, r3
1a005b10:	f843 cc04 	str.w	ip, [r3, #-4]
1a005b14:	d8d8      	bhi.n	1a005ac8 <__gethex+0x384>
1a005b16:	68ab      	ldr	r3, [r5, #8]
1a005b18:	4599      	cmp	r9, r3
1a005b1a:	db12      	blt.n	1a005b42 <__gethex+0x3fe>
1a005b1c:	6869      	ldr	r1, [r5, #4]
1a005b1e:	9802      	ldr	r0, [sp, #8]
1a005b20:	3101      	adds	r1, #1
1a005b22:	f000 f96f 	bl	1a005e04 <_Balloc>
1a005b26:	692a      	ldr	r2, [r5, #16]
1a005b28:	3202      	adds	r2, #2
1a005b2a:	f105 010c 	add.w	r1, r5, #12
1a005b2e:	4683      	mov	fp, r0
1a005b30:	0092      	lsls	r2, r2, #2
1a005b32:	300c      	adds	r0, #12
1a005b34:	f7fe fbb8 	bl	1a0042a8 <memcpy>
1a005b38:	4629      	mov	r1, r5
1a005b3a:	9802      	ldr	r0, [sp, #8]
1a005b3c:	f000 f996 	bl	1a005e6c <_Bfree>
1a005b40:	465d      	mov	r5, fp
1a005b42:	692b      	ldr	r3, [r5, #16]
1a005b44:	1c5a      	adds	r2, r3, #1
1a005b46:	eb05 0383 	add.w	r3, r5, r3, lsl #2
1a005b4a:	612a      	str	r2, [r5, #16]
1a005b4c:	2201      	movs	r2, #1
1a005b4e:	615a      	str	r2, [r3, #20]
1a005b50:	e7c2      	b.n	1a005ad8 <__gethex+0x394>
1a005b52:	692a      	ldr	r2, [r5, #16]
1a005b54:	454a      	cmp	r2, r9
1a005b56:	dd0b      	ble.n	1a005b70 <__gethex+0x42c>
1a005b58:	2101      	movs	r1, #1
1a005b5a:	4628      	mov	r0, r5
1a005b5c:	f7ff fda2 	bl	1a0056a4 <rshift>
1a005b60:	f8d8 3008 	ldr.w	r3, [r8, #8]
1a005b64:	3401      	adds	r4, #1
1a005b66:	42a3      	cmp	r3, r4
1a005b68:	f6ff aedd 	blt.w	1a005926 <__gethex+0x1e2>
1a005b6c:	2701      	movs	r7, #1
1a005b6e:	e7c7      	b.n	1a005b00 <__gethex+0x3bc>
1a005b70:	f016 061f 	ands.w	r6, r6, #31
1a005b74:	d0fa      	beq.n	1a005b6c <__gethex+0x428>
1a005b76:	449a      	add	sl, r3
1a005b78:	f1c6 0620 	rsb	r6, r6, #32
1a005b7c:	f85a 0c04 	ldr.w	r0, [sl, #-4]
1a005b80:	f000 fa04 	bl	1a005f8c <__hi0bits>
1a005b84:	42b0      	cmp	r0, r6
1a005b86:	dbe7      	blt.n	1a005b58 <__gethex+0x414>
1a005b88:	e7f0      	b.n	1a005b6c <__gethex+0x428>
1a005b8a:	bf00      	nop

1a005b8c <L_shift>:
1a005b8c:	f1c2 0208 	rsb	r2, r2, #8
1a005b90:	0092      	lsls	r2, r2, #2
1a005b92:	b570      	push	{r4, r5, r6, lr}
1a005b94:	f1c2 0620 	rsb	r6, r2, #32
1a005b98:	6843      	ldr	r3, [r0, #4]
1a005b9a:	6804      	ldr	r4, [r0, #0]
1a005b9c:	fa03 f506 	lsl.w	r5, r3, r6
1a005ba0:	432c      	orrs	r4, r5
1a005ba2:	40d3      	lsrs	r3, r2
1a005ba4:	6004      	str	r4, [r0, #0]
1a005ba6:	f840 3f04 	str.w	r3, [r0, #4]!
1a005baa:	4288      	cmp	r0, r1
1a005bac:	d3f4      	bcc.n	1a005b98 <L_shift+0xc>
1a005bae:	bd70      	pop	{r4, r5, r6, pc}

1a005bb0 <__match>:
1a005bb0:	b530      	push	{r4, r5, lr}
1a005bb2:	6803      	ldr	r3, [r0, #0]
1a005bb4:	3301      	adds	r3, #1
1a005bb6:	f811 4b01 	ldrb.w	r4, [r1], #1
1a005bba:	b914      	cbnz	r4, 1a005bc2 <__match+0x12>
1a005bbc:	6003      	str	r3, [r0, #0]
1a005bbe:	2001      	movs	r0, #1
1a005bc0:	bd30      	pop	{r4, r5, pc}
1a005bc2:	f813 2b01 	ldrb.w	r2, [r3], #1
1a005bc6:	f1a2 0541 	sub.w	r5, r2, #65	; 0x41
1a005bca:	2d19      	cmp	r5, #25
1a005bcc:	bf98      	it	ls
1a005bce:	3220      	addls	r2, #32
1a005bd0:	42a2      	cmp	r2, r4
1a005bd2:	d0f0      	beq.n	1a005bb6 <__match+0x6>
1a005bd4:	2000      	movs	r0, #0
1a005bd6:	e7f3      	b.n	1a005bc0 <__match+0x10>

1a005bd8 <__hexnan>:
1a005bd8:	e92d 4ff0 	stmdb	sp!, {r4, r5, r6, r7, r8, r9, sl, fp, lr}
1a005bdc:	680b      	ldr	r3, [r1, #0]
1a005bde:	6801      	ldr	r1, [r0, #0]
1a005be0:	115f      	asrs	r7, r3, #5
1a005be2:	eb02 0787 	add.w	r7, r2, r7, lsl #2
1a005be6:	f013 031f 	ands.w	r3, r3, #31
1a005bea:	b087      	sub	sp, #28
1a005bec:	bf18      	it	ne
1a005bee:	3704      	addne	r7, #4
1a005bf0:	2500      	movs	r5, #0
1a005bf2:	1f3e      	subs	r6, r7, #4
1a005bf4:	4682      	mov	sl, r0
1a005bf6:	4690      	mov	r8, r2
1a005bf8:	9301      	str	r3, [sp, #4]
1a005bfa:	f847 5c04 	str.w	r5, [r7, #-4]
1a005bfe:	46b1      	mov	r9, r6
1a005c00:	4634      	mov	r4, r6
1a005c02:	9502      	str	r5, [sp, #8]
1a005c04:	46ab      	mov	fp, r5
1a005c06:	784a      	ldrb	r2, [r1, #1]
1a005c08:	1c4b      	adds	r3, r1, #1
1a005c0a:	9303      	str	r3, [sp, #12]
1a005c0c:	b342      	cbz	r2, 1a005c60 <__hexnan+0x88>
1a005c0e:	4610      	mov	r0, r2
1a005c10:	9105      	str	r1, [sp, #20]
1a005c12:	9204      	str	r2, [sp, #16]
1a005c14:	f7ff fd80 	bl	1a005718 <__hexdig_fun>
1a005c18:	2800      	cmp	r0, #0
1a005c1a:	d143      	bne.n	1a005ca4 <__hexnan+0xcc>
1a005c1c:	9a04      	ldr	r2, [sp, #16]
1a005c1e:	9905      	ldr	r1, [sp, #20]
1a005c20:	2a20      	cmp	r2, #32
1a005c22:	d818      	bhi.n	1a005c56 <__hexnan+0x7e>
1a005c24:	9b02      	ldr	r3, [sp, #8]
1a005c26:	459b      	cmp	fp, r3
1a005c28:	dd13      	ble.n	1a005c52 <__hexnan+0x7a>
1a005c2a:	454c      	cmp	r4, r9
1a005c2c:	d206      	bcs.n	1a005c3c <__hexnan+0x64>
1a005c2e:	2d07      	cmp	r5, #7
1a005c30:	dc04      	bgt.n	1a005c3c <__hexnan+0x64>
1a005c32:	462a      	mov	r2, r5
1a005c34:	4649      	mov	r1, r9
1a005c36:	4620      	mov	r0, r4
1a005c38:	f7ff ffa8 	bl	1a005b8c <L_shift>
1a005c3c:	4544      	cmp	r4, r8
1a005c3e:	d944      	bls.n	1a005cca <__hexnan+0xf2>
1a005c40:	2300      	movs	r3, #0
1a005c42:	f1a4 0904 	sub.w	r9, r4, #4
1a005c46:	f844 3c04 	str.w	r3, [r4, #-4]
1a005c4a:	f8cd b008 	str.w	fp, [sp, #8]
1a005c4e:	464c      	mov	r4, r9
1a005c50:	461d      	mov	r5, r3
1a005c52:	9903      	ldr	r1, [sp, #12]
1a005c54:	e7d7      	b.n	1a005c06 <__hexnan+0x2e>
1a005c56:	2a29      	cmp	r2, #41	; 0x29
1a005c58:	d14a      	bne.n	1a005cf0 <__hexnan+0x118>
1a005c5a:	3102      	adds	r1, #2
1a005c5c:	f8ca 1000 	str.w	r1, [sl]
1a005c60:	f1bb 0f00 	cmp.w	fp, #0
1a005c64:	d044      	beq.n	1a005cf0 <__hexnan+0x118>
1a005c66:	454c      	cmp	r4, r9
1a005c68:	d206      	bcs.n	1a005c78 <__hexnan+0xa0>
1a005c6a:	2d07      	cmp	r5, #7
1a005c6c:	dc04      	bgt.n	1a005c78 <__hexnan+0xa0>
1a005c6e:	462a      	mov	r2, r5
1a005c70:	4649      	mov	r1, r9
1a005c72:	4620      	mov	r0, r4
1a005c74:	f7ff ff8a 	bl	1a005b8c <L_shift>
1a005c78:	4544      	cmp	r4, r8
1a005c7a:	d928      	bls.n	1a005cce <__hexnan+0xf6>
1a005c7c:	4643      	mov	r3, r8
1a005c7e:	f854 2b04 	ldr.w	r2, [r4], #4
1a005c82:	f843 2b04 	str.w	r2, [r3], #4
1a005c86:	42a6      	cmp	r6, r4
1a005c88:	d2f9      	bcs.n	1a005c7e <__hexnan+0xa6>
1a005c8a:	2200      	movs	r2, #0
1a005c8c:	f843 2b04 	str.w	r2, [r3], #4
1a005c90:	429e      	cmp	r6, r3
1a005c92:	d2fb      	bcs.n	1a005c8c <__hexnan+0xb4>
1a005c94:	6833      	ldr	r3, [r6, #0]
1a005c96:	b91b      	cbnz	r3, 1a005ca0 <__hexnan+0xc8>
1a005c98:	4546      	cmp	r6, r8
1a005c9a:	d127      	bne.n	1a005cec <__hexnan+0x114>
1a005c9c:	2301      	movs	r3, #1
1a005c9e:	6033      	str	r3, [r6, #0]
1a005ca0:	2005      	movs	r0, #5
1a005ca2:	e026      	b.n	1a005cf2 <__hexnan+0x11a>
1a005ca4:	3501      	adds	r5, #1
1a005ca6:	2d08      	cmp	r5, #8
1a005ca8:	f10b 0b01 	add.w	fp, fp, #1
1a005cac:	dd06      	ble.n	1a005cbc <__hexnan+0xe4>
1a005cae:	4544      	cmp	r4, r8
1a005cb0:	d9cf      	bls.n	1a005c52 <__hexnan+0x7a>
1a005cb2:	2300      	movs	r3, #0
1a005cb4:	f844 3c04 	str.w	r3, [r4, #-4]
1a005cb8:	2501      	movs	r5, #1
1a005cba:	3c04      	subs	r4, #4
1a005cbc:	6822      	ldr	r2, [r4, #0]
1a005cbe:	f000 000f 	and.w	r0, r0, #15
1a005cc2:	ea40 1002 	orr.w	r0, r0, r2, lsl #4
1a005cc6:	6020      	str	r0, [r4, #0]
1a005cc8:	e7c3      	b.n	1a005c52 <__hexnan+0x7a>
1a005cca:	2508      	movs	r5, #8
1a005ccc:	e7c1      	b.n	1a005c52 <__hexnan+0x7a>
1a005cce:	9b01      	ldr	r3, [sp, #4]
1a005cd0:	2b00      	cmp	r3, #0
1a005cd2:	d0df      	beq.n	1a005c94 <__hexnan+0xbc>
1a005cd4:	f04f 32ff 	mov.w	r2, #4294967295
1a005cd8:	f1c3 0320 	rsb	r3, r3, #32
1a005cdc:	fa22 f303 	lsr.w	r3, r2, r3
1a005ce0:	f857 2c04 	ldr.w	r2, [r7, #-4]
1a005ce4:	401a      	ands	r2, r3
1a005ce6:	f847 2c04 	str.w	r2, [r7, #-4]
1a005cea:	e7d3      	b.n	1a005c94 <__hexnan+0xbc>
1a005cec:	3e04      	subs	r6, #4
1a005cee:	e7d1      	b.n	1a005c94 <__hexnan+0xbc>
1a005cf0:	2004      	movs	r0, #4
1a005cf2:	b007      	add	sp, #28
1a005cf4:	e8bd 8ff0 	ldmia.w	sp!, {r4, r5, r6, r7, r8, r9, sl, fp, pc}

1a005cf8 <__retarget_lock_init_recursive>:
1a005cf8:	4770      	bx	lr

1a005cfa <__retarget_lock_acquire_recursive>:
1a005cfa:	4770      	bx	lr

1a005cfc <__retarget_lock_release_recursive>:
1a005cfc:	4770      	bx	lr

1a005cfe <__swhatbuf_r>:
1a005cfe:	b570      	push	{r4, r5, r6, lr}
1a005d00:	460e      	mov	r6, r1
1a005d02:	f9b1 100e 	ldrsh.w	r1, [r1, #14]
1a005d06:	2900      	cmp	r1, #0
1a005d08:	b096      	sub	sp, #88	; 0x58
1a005d0a:	4614      	mov	r4, r2
1a005d0c:	461d      	mov	r5, r3
1a005d0e:	da07      	bge.n	1a005d20 <__swhatbuf_r+0x22>
1a005d10:	2300      	movs	r3, #0
1a005d12:	602b      	str	r3, [r5, #0]
1a005d14:	89b3      	ldrh	r3, [r6, #12]
1a005d16:	061a      	lsls	r2, r3, #24
1a005d18:	d410      	bmi.n	1a005d3c <__swhatbuf_r+0x3e>
1a005d1a:	f44f 6380 	mov.w	r3, #1024	; 0x400
1a005d1e:	e00e      	b.n	1a005d3e <__swhatbuf_r+0x40>
1a005d20:	466a      	mov	r2, sp
1a005d22:	f7fc fc70 	bl	1a002606 <_fstat_r>
1a005d26:	2800      	cmp	r0, #0
1a005d28:	dbf2      	blt.n	1a005d10 <__swhatbuf_r+0x12>
1a005d2a:	9a01      	ldr	r2, [sp, #4]
1a005d2c:	f402 4270 	and.w	r2, r2, #61440	; 0xf000
1a005d30:	f5a2 5300 	sub.w	r3, r2, #8192	; 0x2000
1a005d34:	425a      	negs	r2, r3
1a005d36:	415a      	adcs	r2, r3
1a005d38:	602a      	str	r2, [r5, #0]
1a005d3a:	e7ee      	b.n	1a005d1a <__swhatbuf_r+0x1c>
1a005d3c:	2340      	movs	r3, #64	; 0x40
1a005d3e:	2000      	movs	r0, #0
1a005d40:	6023      	str	r3, [r4, #0]
1a005d42:	b016      	add	sp, #88	; 0x58
1a005d44:	bd70      	pop	{r4, r5, r6, pc}
1a005d46:	Address 0x1a005d46 is out of bounds.


1a005d48 <__smakebuf_r>:
1a005d48:	898b      	ldrh	r3, [r1, #12]
1a005d4a:	b573      	push	{r0, r1, r4, r5, r6, lr}
1a005d4c:	079d      	lsls	r5, r3, #30
1a005d4e:	4606      	mov	r6, r0
1a005d50:	460c      	mov	r4, r1
1a005d52:	d507      	bpl.n	1a005d64 <__smakebuf_r+0x1c>
1a005d54:	f104 0347 	add.w	r3, r4, #71	; 0x47
1a005d58:	6023      	str	r3, [r4, #0]
1a005d5a:	6123      	str	r3, [r4, #16]
1a005d5c:	2301      	movs	r3, #1
1a005d5e:	6163      	str	r3, [r4, #20]
1a005d60:	b002      	add	sp, #8
1a005d62:	bd70      	pop	{r4, r5, r6, pc}
1a005d64:	ab01      	add	r3, sp, #4
1a005d66:	466a      	mov	r2, sp
1a005d68:	f7ff ffc9 	bl	1a005cfe <__swhatbuf_r>
1a005d6c:	9900      	ldr	r1, [sp, #0]
1a005d6e:	4605      	mov	r5, r0
1a005d70:	4630      	mov	r0, r6
1a005d72:	f7fe fafd 	bl	1a004370 <_malloc_r>
1a005d76:	b948      	cbnz	r0, 1a005d8c <__smakebuf_r+0x44>
1a005d78:	f9b4 300c 	ldrsh.w	r3, [r4, #12]
1a005d7c:	059a      	lsls	r2, r3, #22
1a005d7e:	d4ef      	bmi.n	1a005d60 <__smakebuf_r+0x18>
1a005d80:	f023 0303 	bic.w	r3, r3, #3
1a005d84:	f043 0302 	orr.w	r3, r3, #2
1a005d88:	81a3      	strh	r3, [r4, #12]
1a005d8a:	e7e3      	b.n	1a005d54 <__smakebuf_r+0xc>
1a005d8c:	4b0d      	ldr	r3, [pc, #52]	; (1a005dc4 <__smakebuf_r+0x7c>)
1a005d8e:	62b3      	str	r3, [r6, #40]	; 0x28
1a005d90:	89a3      	ldrh	r3, [r4, #12]
1a005d92:	6020      	str	r0, [r4, #0]
1a005d94:	f043 0380 	orr.w	r3, r3, #128	; 0x80
1a005d98:	81a3      	strh	r3, [r4, #12]
1a005d9a:	9b00      	ldr	r3, [sp, #0]
1a005d9c:	6163      	str	r3, [r4, #20]
1a005d9e:	9b01      	ldr	r3, [sp, #4]
1a005da0:	6120      	str	r0, [r4, #16]
1a005da2:	b15b      	cbz	r3, 1a005dbc <__smakebuf_r+0x74>
1a005da4:	f9b4 100e 	ldrsh.w	r1, [r4, #14]
1a005da8:	4630      	mov	r0, r6
1a005daa:	f7fc fc31 	bl	1a002610 <_isatty_r>
1a005dae:	b128      	cbz	r0, 1a005dbc <__smakebuf_r+0x74>
1a005db0:	89a3      	ldrh	r3, [r4, #12]
1a005db2:	f023 0303 	bic.w	r3, r3, #3
1a005db6:	f043 0301 	orr.w	r3, r3, #1
1a005dba:	81a3      	strh	r3, [r4, #12]
1a005dbc:	89a3      	ldrh	r3, [r4, #12]
1a005dbe:	431d      	orrs	r5, r3
1a005dc0:	81a5      	strh	r5, [r4, #12]
1a005dc2:	e7cd      	b.n	1a005d60 <__smakebuf_r+0x18>
1a005dc4:	1a005505 	.word	0x1a005505

1a005dc8 <__ascii_mbtowc>:
1a005dc8:	b082      	sub	sp, #8
1a005dca:	b901      	cbnz	r1, 1a005dce <__ascii_mbtowc+0x6>
1a005dcc:	a901      	add	r1, sp, #4
1a005dce:	b142      	cbz	r2, 1a005de2 <__ascii_mbtowc+0x1a>
1a005dd0:	b14b      	cbz	r3, 1a005de6 <__ascii_mbtowc+0x1e>
1a005dd2:	7813      	ldrb	r3, [r2, #0]
1a005dd4:	600b      	str	r3, [r1, #0]
1a005dd6:	7812      	ldrb	r2, [r2, #0]
1a005dd8:	1c10      	adds	r0, r2, #0
1a005dda:	bf18      	it	ne
1a005ddc:	2001      	movne	r0, #1
1a005dde:	b002      	add	sp, #8
1a005de0:	4770      	bx	lr
1a005de2:	4610      	mov	r0, r2
1a005de4:	e7fb      	b.n	1a005dde <__ascii_mbtowc+0x16>
1a005de6:	f06f 0001 	mvn.w	r0, #1
1a005dea:	e7f8      	b.n	1a005dde <__ascii_mbtowc+0x16>

1a005dec <__malloc_lock>:
1a005dec:	4801      	ldr	r0, [pc, #4]	; (1a005df4 <__malloc_lock+0x8>)
1a005dee:	f7ff bf84 	b.w	1a005cfa <__retarget_lock_acquire_recursive>
1a005df2:	bf00      	nop
1a005df4:	10000324 	.word	0x10000324

1a005df8 <__malloc_unlock>:
1a005df8:	4801      	ldr	r0, [pc, #4]	; (1a005e00 <__malloc_unlock+0x8>)
1a005dfa:	f7ff bf7f 	b.w	1a005cfc <__retarget_lock_release_recursive>
1a005dfe:	bf00      	nop
1a005e00:	10000324 	.word	0x10000324

1a005e04 <_Balloc>:
1a005e04:	b570      	push	{r4, r5, r6, lr}
1a005e06:	6a45      	ldr	r5, [r0, #36]	; 0x24
1a005e08:	4604      	mov	r4, r0
1a005e0a:	460e      	mov	r6, r1
1a005e0c:	b93d      	cbnz	r5, 1a005e1e <_Balloc+0x1a>
1a005e0e:	2010      	movs	r0, #16
1a005e10:	f7fe fa3a 	bl	1a004288 <malloc>
1a005e14:	e9c0 5501 	strd	r5, r5, [r0, #4]
1a005e18:	6260      	str	r0, [r4, #36]	; 0x24
1a005e1a:	6005      	str	r5, [r0, #0]
1a005e1c:	60c5      	str	r5, [r0, #12]
1a005e1e:	6a65      	ldr	r5, [r4, #36]	; 0x24
1a005e20:	68eb      	ldr	r3, [r5, #12]
1a005e22:	b183      	cbz	r3, 1a005e46 <_Balloc+0x42>
1a005e24:	6a63      	ldr	r3, [r4, #36]	; 0x24
1a005e26:	68db      	ldr	r3, [r3, #12]
1a005e28:	f853 0026 	ldr.w	r0, [r3, r6, lsl #2]
1a005e2c:	b9b8      	cbnz	r0, 1a005e5e <_Balloc+0x5a>
1a005e2e:	2101      	movs	r1, #1
1a005e30:	fa01 f506 	lsl.w	r5, r1, r6
1a005e34:	1d6a      	adds	r2, r5, #5
1a005e36:	0092      	lsls	r2, r2, #2
1a005e38:	4620      	mov	r0, r4
1a005e3a:	f000 fbdb 	bl	1a0065f4 <_calloc_r>
1a005e3e:	b160      	cbz	r0, 1a005e5a <_Balloc+0x56>
1a005e40:	e9c0 6501 	strd	r6, r5, [r0, #4]
1a005e44:	e00e      	b.n	1a005e64 <_Balloc+0x60>
1a005e46:	2221      	movs	r2, #33	; 0x21
1a005e48:	2104      	movs	r1, #4
1a005e4a:	4620      	mov	r0, r4
1a005e4c:	f000 fbd2 	bl	1a0065f4 <_calloc_r>
1a005e50:	6a63      	ldr	r3, [r4, #36]	; 0x24
1a005e52:	60e8      	str	r0, [r5, #12]
1a005e54:	68db      	ldr	r3, [r3, #12]
1a005e56:	2b00      	cmp	r3, #0
1a005e58:	d1e4      	bne.n	1a005e24 <_Balloc+0x20>
1a005e5a:	2000      	movs	r0, #0
1a005e5c:	bd70      	pop	{r4, r5, r6, pc}
1a005e5e:	6802      	ldr	r2, [r0, #0]
1a005e60:	f843 2026 	str.w	r2, [r3, r6, lsl #2]
1a005e64:	2300      	movs	r3, #0
1a005e66:	e9c0 3303 	strd	r3, r3, [r0, #12]
1a005e6a:	e7f7      	b.n	1a005e5c <_Balloc+0x58>

1a005e6c <_Bfree>:
1a005e6c:	b570      	push	{r4, r5, r6, lr}
1a005e6e:	6a44      	ldr	r4, [r0, #36]	; 0x24
1a005e70:	4606      	mov	r6, r0
1a005e72:	460d      	mov	r5, r1
1a005e74:	b93c      	cbnz	r4, 1a005e86 <_Bfree+0x1a>
1a005e76:	2010      	movs	r0, #16
1a005e78:	f7fe fa06 	bl	1a004288 <malloc>
1a005e7c:	e9c0 4401 	strd	r4, r4, [r0, #4]
1a005e80:	6270      	str	r0, [r6, #36]	; 0x24
1a005e82:	6004      	str	r4, [r0, #0]
1a005e84:	60c4      	str	r4, [r0, #12]
1a005e86:	b13d      	cbz	r5, 1a005e98 <_Bfree+0x2c>
1a005e88:	6a73      	ldr	r3, [r6, #36]	; 0x24
1a005e8a:	686a      	ldr	r2, [r5, #4]
1a005e8c:	68db      	ldr	r3, [r3, #12]
1a005e8e:	f853 1022 	ldr.w	r1, [r3, r2, lsl #2]
1a005e92:	6029      	str	r1, [r5, #0]
1a005e94:	f843 5022 	str.w	r5, [r3, r2, lsl #2]
1a005e98:	bd70      	pop	{r4, r5, r6, pc}

1a005e9a <__multadd>:
1a005e9a:	e92d 41f0 	stmdb	sp!, {r4, r5, r6, r7, r8, lr}
1a005e9e:	690d      	ldr	r5, [r1, #16]
1a005ea0:	461f      	mov	r7, r3
1a005ea2:	4606      	mov	r6, r0
1a005ea4:	460c      	mov	r4, r1
1a005ea6:	f101 0c14 	add.w	ip, r1, #20
1a005eaa:	2300      	movs	r3, #0
1a005eac:	f8dc 0000 	ldr.w	r0, [ip]
1a005eb0:	b281      	uxth	r1, r0
1a005eb2:	fb02 7101 	mla	r1, r2, r1, r7
1a005eb6:	0c0f      	lsrs	r7, r1, #16
1a005eb8:	0c00      	lsrs	r0, r0, #16
1a005eba:	fb02 7000 	mla	r0, r2, r0, r7
1a005ebe:	b289      	uxth	r1, r1
1a005ec0:	3301      	adds	r3, #1
1a005ec2:	eb01 4100 	add.w	r1, r1, r0, lsl #16
1a005ec6:	429d      	cmp	r5, r3
1a005ec8:	ea4f 4710 	mov.w	r7, r0, lsr #16
1a005ecc:	f84c 1b04 	str.w	r1, [ip], #4
1a005ed0:	dcec      	bgt.n	1a005eac <__multadd+0x12>
1a005ed2:	b1d7      	cbz	r7, 1a005f0a <__multadd+0x70>
1a005ed4:	68a3      	ldr	r3, [r4, #8]
1a005ed6:	42ab      	cmp	r3, r5
1a005ed8:	dc12      	bgt.n	1a005f00 <__multadd+0x66>
1a005eda:	6861      	ldr	r1, [r4, #4]
1a005edc:	4630      	mov	r0, r6
1a005ede:	3101      	adds	r1, #1
1a005ee0:	f7ff ff90 	bl	1a005e04 <_Balloc>
1a005ee4:	6922      	ldr	r2, [r4, #16]
1a005ee6:	3202      	adds	r2, #2
1a005ee8:	f104 010c 	add.w	r1, r4, #12
1a005eec:	4680      	mov	r8, r0
1a005eee:	0092      	lsls	r2, r2, #2
1a005ef0:	300c      	adds	r0, #12
1a005ef2:	f7fe f9d9 	bl	1a0042a8 <memcpy>
1a005ef6:	4621      	mov	r1, r4
1a005ef8:	4630      	mov	r0, r6
1a005efa:	f7ff ffb7 	bl	1a005e6c <_Bfree>
1a005efe:	4644      	mov	r4, r8
1a005f00:	eb04 0385 	add.w	r3, r4, r5, lsl #2
1a005f04:	3501      	adds	r5, #1
1a005f06:	615f      	str	r7, [r3, #20]
1a005f08:	6125      	str	r5, [r4, #16]
1a005f0a:	4620      	mov	r0, r4
1a005f0c:	e8bd 81f0 	ldmia.w	sp!, {r4, r5, r6, r7, r8, pc}

1a005f10 <__s2b>:
1a005f10:	e92d 43f8 	stmdb	sp!, {r3, r4, r5, r6, r7, r8, r9, lr}
1a005f14:	460c      	mov	r4, r1
1a005f16:	4615      	mov	r5, r2
1a005f18:	461f      	mov	r7, r3
1a005f1a:	2209      	movs	r2, #9
1a005f1c:	3308      	adds	r3, #8
1a005f1e:	4606      	mov	r6, r0
1a005f20:	fb93 f3f2 	sdiv	r3, r3, r2
1a005f24:	2100      	movs	r1, #0
1a005f26:	2201      	movs	r2, #1
1a005f28:	429a      	cmp	r2, r3
1a005f2a:	db20      	blt.n	1a005f6e <__s2b+0x5e>
1a005f2c:	4630      	mov	r0, r6
1a005f2e:	f7ff ff69 	bl	1a005e04 <_Balloc>
1a005f32:	9b08      	ldr	r3, [sp, #32]
1a005f34:	6143      	str	r3, [r0, #20]
1a005f36:	2d09      	cmp	r5, #9
1a005f38:	f04f 0301 	mov.w	r3, #1
1a005f3c:	6103      	str	r3, [r0, #16]
1a005f3e:	dd19      	ble.n	1a005f74 <__s2b+0x64>
1a005f40:	f104 0909 	add.w	r9, r4, #9
1a005f44:	46c8      	mov	r8, r9
1a005f46:	442c      	add	r4, r5
1a005f48:	f818 3b01 	ldrb.w	r3, [r8], #1
1a005f4c:	4601      	mov	r1, r0
1a005f4e:	3b30      	subs	r3, #48	; 0x30
1a005f50:	220a      	movs	r2, #10
1a005f52:	4630      	mov	r0, r6
1a005f54:	f7ff ffa1 	bl	1a005e9a <__multadd>
1a005f58:	45a0      	cmp	r8, r4
1a005f5a:	d1f5      	bne.n	1a005f48 <__s2b+0x38>
1a005f5c:	f1a5 0408 	sub.w	r4, r5, #8
1a005f60:	444c      	add	r4, r9
1a005f62:	1b2d      	subs	r5, r5, r4
1a005f64:	1963      	adds	r3, r4, r5
1a005f66:	42bb      	cmp	r3, r7
1a005f68:	db07      	blt.n	1a005f7a <__s2b+0x6a>
1a005f6a:	e8bd 83f8 	ldmia.w	sp!, {r3, r4, r5, r6, r7, r8, r9, pc}
1a005f6e:	0052      	lsls	r2, r2, #1
1a005f70:	3101      	adds	r1, #1
1a005f72:	e7d9      	b.n	1a005f28 <__s2b+0x18>
1a005f74:	340a      	adds	r4, #10
1a005f76:	2509      	movs	r5, #9
1a005f78:	e7f3      	b.n	1a005f62 <__s2b+0x52>
1a005f7a:	f814 3b01 	ldrb.w	r3, [r4], #1
1a005f7e:	4601      	mov	r1, r0
1a005f80:	3b30      	subs	r3, #48	; 0x30
1a005f82:	220a      	movs	r2, #10
1a005f84:	4630      	mov	r0, r6
1a005f86:	f7ff ff88 	bl	1a005e9a <__multadd>
1a005f8a:	e7eb      	b.n	1a005f64 <__s2b+0x54>

1a005f8c <__hi0bits>:
1a005f8c:	0c02      	lsrs	r2, r0, #16
1a005f8e:	0412      	lsls	r2, r2, #16
1a005f90:	4603      	mov	r3, r0
1a005f92:	b9ca      	cbnz	r2, 1a005fc8 <__hi0bits+0x3c>
1a005f94:	0403      	lsls	r3, r0, #16
1a005f96:	2010      	movs	r0, #16
1a005f98:	f013 4f7f 	tst.w	r3, #4278190080	; 0xff000000
1a005f9c:	bf04      	itt	eq
1a005f9e:	021b      	lsleq	r3, r3, #8
1a005fa0:	3008      	addeq	r0, #8
1a005fa2:	f013 4f70 	tst.w	r3, #4026531840	; 0xf0000000
1a005fa6:	bf04      	itt	eq
1a005fa8:	011b      	lsleq	r3, r3, #4
1a005faa:	3004      	addeq	r0, #4
1a005fac:	f013 4f40 	tst.w	r3, #3221225472	; 0xc0000000
1a005fb0:	bf04      	itt	eq
1a005fb2:	009b      	lsleq	r3, r3, #2
1a005fb4:	3002      	addeq	r0, #2
1a005fb6:	2b00      	cmp	r3, #0
1a005fb8:	db05      	blt.n	1a005fc6 <__hi0bits+0x3a>
1a005fba:	f013 4f80 	tst.w	r3, #1073741824	; 0x40000000
1a005fbe:	f100 0001 	add.w	r0, r0, #1
1a005fc2:	bf08      	it	eq
1a005fc4:	2020      	moveq	r0, #32
1a005fc6:	4770      	bx	lr
1a005fc8:	2000      	movs	r0, #0
1a005fca:	e7e5      	b.n	1a005f98 <__hi0bits+0xc>

1a005fcc <__lo0bits>:
1a005fcc:	6803      	ldr	r3, [r0, #0]
1a005fce:	f013 0207 	ands.w	r2, r3, #7
1a005fd2:	4601      	mov	r1, r0
1a005fd4:	d00b      	beq.n	1a005fee <__lo0bits+0x22>
1a005fd6:	07da      	lsls	r2, r3, #31
1a005fd8:	d424      	bmi.n	1a006024 <__lo0bits+0x58>
1a005fda:	0798      	lsls	r0, r3, #30
1a005fdc:	bf49      	itett	mi
1a005fde:	085b      	lsrmi	r3, r3, #1
1a005fe0:	089b      	lsrpl	r3, r3, #2
1a005fe2:	2001      	movmi	r0, #1
1a005fe4:	600b      	strmi	r3, [r1, #0]
1a005fe6:	bf5c      	itt	pl
1a005fe8:	600b      	strpl	r3, [r1, #0]
1a005fea:	2002      	movpl	r0, #2
1a005fec:	4770      	bx	lr
1a005fee:	b298      	uxth	r0, r3
1a005ff0:	b9b0      	cbnz	r0, 1a006020 <__lo0bits+0x54>
1a005ff2:	0c1b      	lsrs	r3, r3, #16
1a005ff4:	2010      	movs	r0, #16
1a005ff6:	f013 0fff 	tst.w	r3, #255	; 0xff
1a005ffa:	bf04      	itt	eq
1a005ffc:	0a1b      	lsreq	r3, r3, #8
1a005ffe:	3008      	addeq	r0, #8
1a006000:	071a      	lsls	r2, r3, #28
1a006002:	bf04      	itt	eq
1a006004:	091b      	lsreq	r3, r3, #4
1a006006:	3004      	addeq	r0, #4
1a006008:	079a      	lsls	r2, r3, #30
1a00600a:	bf04      	itt	eq
1a00600c:	089b      	lsreq	r3, r3, #2
1a00600e:	3002      	addeq	r0, #2
1a006010:	07da      	lsls	r2, r3, #31
1a006012:	d403      	bmi.n	1a00601c <__lo0bits+0x50>
1a006014:	085b      	lsrs	r3, r3, #1
1a006016:	f100 0001 	add.w	r0, r0, #1
1a00601a:	d005      	beq.n	1a006028 <__lo0bits+0x5c>
1a00601c:	600b      	str	r3, [r1, #0]
1a00601e:	4770      	bx	lr
1a006020:	4610      	mov	r0, r2
1a006022:	e7e8      	b.n	1a005ff6 <__lo0bits+0x2a>
1a006024:	2000      	movs	r0, #0
1a006026:	4770      	bx	lr
1a006028:	2020      	movs	r0, #32
1a00602a:	4770      	bx	lr

1a00602c <__i2b>:
1a00602c:	b510      	push	{r4, lr}
1a00602e:	460c      	mov	r4, r1
1a006030:	2101      	movs	r1, #1
1a006032:	f7ff fee7 	bl	1a005e04 <_Balloc>
1a006036:	2201      	movs	r2, #1
1a006038:	6144      	str	r4, [r0, #20]
1a00603a:	6102      	str	r2, [r0, #16]
1a00603c:	bd10      	pop	{r4, pc}

1a00603e <__multiply>:
1a00603e:	e92d 4ff7 	stmdb	sp!, {r0, r1, r2, r4, r5, r6, r7, r8, r9, sl, fp, lr}
1a006042:	4690      	mov	r8, r2
1a006044:	690a      	ldr	r2, [r1, #16]
1a006046:	f8d8 3010 	ldr.w	r3, [r8, #16]
1a00604a:	429a      	cmp	r2, r3
1a00604c:	bfb8      	it	lt
1a00604e:	460b      	movlt	r3, r1
1a006050:	460c      	mov	r4, r1
1a006052:	bfbc      	itt	lt
1a006054:	4644      	movlt	r4, r8
1a006056:	4698      	movlt	r8, r3
1a006058:	6927      	ldr	r7, [r4, #16]
1a00605a:	f8d8 9010 	ldr.w	r9, [r8, #16]
1a00605e:	68a3      	ldr	r3, [r4, #8]
1a006060:	6861      	ldr	r1, [r4, #4]
1a006062:	eb07 0609 	add.w	r6, r7, r9
1a006066:	42b3      	cmp	r3, r6
1a006068:	bfb8      	it	lt
1a00606a:	3101      	addlt	r1, #1
1a00606c:	f7ff feca 	bl	1a005e04 <_Balloc>
1a006070:	f100 0514 	add.w	r5, r0, #20
1a006074:	eb05 0e86 	add.w	lr, r5, r6, lsl #2
1a006078:	462b      	mov	r3, r5
1a00607a:	2200      	movs	r2, #0
1a00607c:	4573      	cmp	r3, lr
1a00607e:	d316      	bcc.n	1a0060ae <__multiply+0x70>
1a006080:	f104 0314 	add.w	r3, r4, #20
1a006084:	f108 0214 	add.w	r2, r8, #20
1a006088:	eb03 0787 	add.w	r7, r3, r7, lsl #2
1a00608c:	eb02 0389 	add.w	r3, r2, r9, lsl #2
1a006090:	9300      	str	r3, [sp, #0]
1a006092:	9b00      	ldr	r3, [sp, #0]
1a006094:	9201      	str	r2, [sp, #4]
1a006096:	4293      	cmp	r3, r2
1a006098:	d80c      	bhi.n	1a0060b4 <__multiply+0x76>
1a00609a:	2e00      	cmp	r6, #0
1a00609c:	dd03      	ble.n	1a0060a6 <__multiply+0x68>
1a00609e:	f85e 3d04 	ldr.w	r3, [lr, #-4]!
1a0060a2:	2b00      	cmp	r3, #0
1a0060a4:	d059      	beq.n	1a00615a <__multiply+0x11c>
1a0060a6:	6106      	str	r6, [r0, #16]
1a0060a8:	b003      	add	sp, #12
1a0060aa:	e8bd 8ff0 	ldmia.w	sp!, {r4, r5, r6, r7, r8, r9, sl, fp, pc}
1a0060ae:	f843 2b04 	str.w	r2, [r3], #4
1a0060b2:	e7e3      	b.n	1a00607c <__multiply+0x3e>
1a0060b4:	f8b2 a000 	ldrh.w	sl, [r2]
1a0060b8:	f1ba 0f00 	cmp.w	sl, #0
1a0060bc:	d023      	beq.n	1a006106 <__multiply+0xc8>
1a0060be:	f104 0914 	add.w	r9, r4, #20
1a0060c2:	46ac      	mov	ip, r5
1a0060c4:	f04f 0800 	mov.w	r8, #0
1a0060c8:	f859 1b04 	ldr.w	r1, [r9], #4
1a0060cc:	f8dc b000 	ldr.w	fp, [ip]
1a0060d0:	b28b      	uxth	r3, r1
1a0060d2:	fa1f fb8b 	uxth.w	fp, fp
1a0060d6:	fb0a b303 	mla	r3, sl, r3, fp
1a0060da:	ea4f 4b11 	mov.w	fp, r1, lsr #16
1a0060de:	f8dc 1000 	ldr.w	r1, [ip]
1a0060e2:	4443      	add	r3, r8
1a0060e4:	ea4f 4811 	mov.w	r8, r1, lsr #16
1a0060e8:	fb0a 810b 	mla	r1, sl, fp, r8
1a0060ec:	eb01 4113 	add.w	r1, r1, r3, lsr #16
1a0060f0:	b29b      	uxth	r3, r3
1a0060f2:	ea43 4301 	orr.w	r3, r3, r1, lsl #16
1a0060f6:	454f      	cmp	r7, r9
1a0060f8:	ea4f 4811 	mov.w	r8, r1, lsr #16
1a0060fc:	f84c 3b04 	str.w	r3, [ip], #4
1a006100:	d8e2      	bhi.n	1a0060c8 <__multiply+0x8a>
1a006102:	f8cc 8000 	str.w	r8, [ip]
1a006106:	9b01      	ldr	r3, [sp, #4]
1a006108:	f8b3 9002 	ldrh.w	r9, [r3, #2]
1a00610c:	3204      	adds	r2, #4
1a00610e:	f1b9 0f00 	cmp.w	r9, #0
1a006112:	d020      	beq.n	1a006156 <__multiply+0x118>
1a006114:	682b      	ldr	r3, [r5, #0]
1a006116:	f104 0814 	add.w	r8, r4, #20
1a00611a:	46ac      	mov	ip, r5
1a00611c:	f04f 0a00 	mov.w	sl, #0
1a006120:	f8b8 1000 	ldrh.w	r1, [r8]
1a006124:	f8bc b002 	ldrh.w	fp, [ip, #2]
1a006128:	fb09 b101 	mla	r1, r9, r1, fp
1a00612c:	448a      	add	sl, r1
1a00612e:	b29b      	uxth	r3, r3
1a006130:	ea43 430a 	orr.w	r3, r3, sl, lsl #16
1a006134:	f84c 3b04 	str.w	r3, [ip], #4
1a006138:	f858 3b04 	ldr.w	r3, [r8], #4
1a00613c:	f8bc 1000 	ldrh.w	r1, [ip]
1a006140:	0c1b      	lsrs	r3, r3, #16
1a006142:	fb09 1303 	mla	r3, r9, r3, r1
1a006146:	eb03 431a 	add.w	r3, r3, sl, lsr #16
1a00614a:	4547      	cmp	r7, r8
1a00614c:	ea4f 4a13 	mov.w	sl, r3, lsr #16
1a006150:	d8e6      	bhi.n	1a006120 <__multiply+0xe2>
1a006152:	f8cc 3000 	str.w	r3, [ip]
1a006156:	3504      	adds	r5, #4
1a006158:	e79b      	b.n	1a006092 <__multiply+0x54>
1a00615a:	3e01      	subs	r6, #1
1a00615c:	e79d      	b.n	1a00609a <__multiply+0x5c>
1a00615e:	Address 0x1a00615e is out of bounds.


1a006160 <__pow5mult>:
1a006160:	e92d 43f8 	stmdb	sp!, {r3, r4, r5, r6, r7, r8, r9, lr}
1a006164:	4615      	mov	r5, r2
1a006166:	f012 0203 	ands.w	r2, r2, #3
1a00616a:	4606      	mov	r6, r0
1a00616c:	460f      	mov	r7, r1
1a00616e:	d007      	beq.n	1a006180 <__pow5mult+0x20>
1a006170:	3a01      	subs	r2, #1
1a006172:	4c21      	ldr	r4, [pc, #132]	; (1a0061f8 <__pow5mult+0x98>)
1a006174:	2300      	movs	r3, #0
1a006176:	f854 2022 	ldr.w	r2, [r4, r2, lsl #2]
1a00617a:	f7ff fe8e 	bl	1a005e9a <__multadd>
1a00617e:	4607      	mov	r7, r0
1a006180:	10ad      	asrs	r5, r5, #2
1a006182:	d035      	beq.n	1a0061f0 <__pow5mult+0x90>
1a006184:	6a74      	ldr	r4, [r6, #36]	; 0x24
1a006186:	b93c      	cbnz	r4, 1a006198 <__pow5mult+0x38>
1a006188:	2010      	movs	r0, #16
1a00618a:	f7fe f87d 	bl	1a004288 <malloc>
1a00618e:	e9c0 4401 	strd	r4, r4, [r0, #4]
1a006192:	6270      	str	r0, [r6, #36]	; 0x24
1a006194:	6004      	str	r4, [r0, #0]
1a006196:	60c4      	str	r4, [r0, #12]
1a006198:	f8d6 8024 	ldr.w	r8, [r6, #36]	; 0x24
1a00619c:	f8d8 4008 	ldr.w	r4, [r8, #8]
1a0061a0:	b94c      	cbnz	r4, 1a0061b6 <__pow5mult+0x56>
1a0061a2:	f240 2171 	movw	r1, #625	; 0x271
1a0061a6:	4630      	mov	r0, r6
1a0061a8:	f7ff ff40 	bl	1a00602c <__i2b>
1a0061ac:	2300      	movs	r3, #0
1a0061ae:	f8c8 0008 	str.w	r0, [r8, #8]
1a0061b2:	4604      	mov	r4, r0
1a0061b4:	6003      	str	r3, [r0, #0]
1a0061b6:	f04f 0800 	mov.w	r8, #0
1a0061ba:	07eb      	lsls	r3, r5, #31
1a0061bc:	d50a      	bpl.n	1a0061d4 <__pow5mult+0x74>
1a0061be:	4639      	mov	r1, r7
1a0061c0:	4622      	mov	r2, r4
1a0061c2:	4630      	mov	r0, r6
1a0061c4:	f7ff ff3b 	bl	1a00603e <__multiply>
1a0061c8:	4639      	mov	r1, r7
1a0061ca:	4681      	mov	r9, r0
1a0061cc:	4630      	mov	r0, r6
1a0061ce:	f7ff fe4d 	bl	1a005e6c <_Bfree>
1a0061d2:	464f      	mov	r7, r9
1a0061d4:	106d      	asrs	r5, r5, #1
1a0061d6:	d00b      	beq.n	1a0061f0 <__pow5mult+0x90>
1a0061d8:	6820      	ldr	r0, [r4, #0]
1a0061da:	b938      	cbnz	r0, 1a0061ec <__pow5mult+0x8c>
1a0061dc:	4622      	mov	r2, r4
1a0061de:	4621      	mov	r1, r4
1a0061e0:	4630      	mov	r0, r6
1a0061e2:	f7ff ff2c 	bl	1a00603e <__multiply>
1a0061e6:	6020      	str	r0, [r4, #0]
1a0061e8:	f8c0 8000 	str.w	r8, [r0]
1a0061ec:	4604      	mov	r4, r0
1a0061ee:	e7e4      	b.n	1a0061ba <__pow5mult+0x5a>
1a0061f0:	4638      	mov	r0, r7
1a0061f2:	e8bd 83f8 	ldmia.w	sp!, {r3, r4, r5, r6, r7, r8, r9, pc}
1a0061f6:	bf00      	nop
1a0061f8:	1a007f78 	.word	0x1a007f78

1a0061fc <__lshift>:
1a0061fc:	e92d 47f0 	stmdb	sp!, {r4, r5, r6, r7, r8, r9, sl, lr}
1a006200:	460c      	mov	r4, r1
1a006202:	ea4f 1a62 	mov.w	sl, r2, asr #5
1a006206:	6923      	ldr	r3, [r4, #16]
1a006208:	6849      	ldr	r1, [r1, #4]
1a00620a:	eb0a 0903 	add.w	r9, sl, r3
1a00620e:	68a3      	ldr	r3, [r4, #8]
1a006210:	4607      	mov	r7, r0
1a006212:	4616      	mov	r6, r2
1a006214:	f109 0501 	add.w	r5, r9, #1
1a006218:	42ab      	cmp	r3, r5
1a00621a:	db33      	blt.n	1a006284 <__lshift+0x88>
1a00621c:	4638      	mov	r0, r7
1a00621e:	f7ff fdf1 	bl	1a005e04 <_Balloc>
1a006222:	2300      	movs	r3, #0
1a006224:	4680      	mov	r8, r0
1a006226:	f100 0114 	add.w	r1, r0, #20
1a00622a:	f100 0210 	add.w	r2, r0, #16
1a00622e:	4618      	mov	r0, r3
1a006230:	4553      	cmp	r3, sl
1a006232:	db2a      	blt.n	1a00628a <__lshift+0x8e>
1a006234:	6920      	ldr	r0, [r4, #16]
1a006236:	ea2a 7aea 	bic.w	sl, sl, sl, asr #31
1a00623a:	f104 0314 	add.w	r3, r4, #20
1a00623e:	f016 021f 	ands.w	r2, r6, #31
1a006242:	eb01 018a 	add.w	r1, r1, sl, lsl #2
1a006246:	eb03 0c80 	add.w	ip, r3, r0, lsl #2
1a00624a:	d022      	beq.n	1a006292 <__lshift+0x96>
1a00624c:	f1c2 0e20 	rsb	lr, r2, #32
1a006250:	2000      	movs	r0, #0
1a006252:	681e      	ldr	r6, [r3, #0]
1a006254:	4096      	lsls	r6, r2
1a006256:	4330      	orrs	r0, r6
1a006258:	f841 0b04 	str.w	r0, [r1], #4
1a00625c:	f853 0b04 	ldr.w	r0, [r3], #4
1a006260:	459c      	cmp	ip, r3
1a006262:	fa20 f00e 	lsr.w	r0, r0, lr
1a006266:	d8f4      	bhi.n	1a006252 <__lshift+0x56>
1a006268:	6008      	str	r0, [r1, #0]
1a00626a:	b108      	cbz	r0, 1a006270 <__lshift+0x74>
1a00626c:	f109 0502 	add.w	r5, r9, #2
1a006270:	3d01      	subs	r5, #1
1a006272:	4638      	mov	r0, r7
1a006274:	f8c8 5010 	str.w	r5, [r8, #16]
1a006278:	4621      	mov	r1, r4
1a00627a:	f7ff fdf7 	bl	1a005e6c <_Bfree>
1a00627e:	4640      	mov	r0, r8
1a006280:	e8bd 87f0 	ldmia.w	sp!, {r4, r5, r6, r7, r8, r9, sl, pc}
1a006284:	3101      	adds	r1, #1
1a006286:	005b      	lsls	r3, r3, #1
1a006288:	e7c6      	b.n	1a006218 <__lshift+0x1c>
1a00628a:	f842 0f04 	str.w	r0, [r2, #4]!
1a00628e:	3301      	adds	r3, #1
1a006290:	e7ce      	b.n	1a006230 <__lshift+0x34>
1a006292:	3904      	subs	r1, #4
1a006294:	f853 2b04 	ldr.w	r2, [r3], #4
1a006298:	f841 2f04 	str.w	r2, [r1, #4]!
1a00629c:	459c      	cmp	ip, r3
1a00629e:	d8f9      	bhi.n	1a006294 <__lshift+0x98>
1a0062a0:	e7e6      	b.n	1a006270 <__lshift+0x74>

1a0062a2 <__mcmp>:
1a0062a2:	6903      	ldr	r3, [r0, #16]
1a0062a4:	690a      	ldr	r2, [r1, #16]
1a0062a6:	1a9b      	subs	r3, r3, r2
1a0062a8:	b530      	push	{r4, r5, lr}
1a0062aa:	d10c      	bne.n	1a0062c6 <__mcmp+0x24>
1a0062ac:	0092      	lsls	r2, r2, #2
1a0062ae:	3014      	adds	r0, #20
1a0062b0:	3114      	adds	r1, #20
1a0062b2:	1884      	adds	r4, r0, r2
1a0062b4:	4411      	add	r1, r2
1a0062b6:	f854 5d04 	ldr.w	r5, [r4, #-4]!
1a0062ba:	f851 2d04 	ldr.w	r2, [r1, #-4]!
1a0062be:	4295      	cmp	r5, r2
1a0062c0:	d003      	beq.n	1a0062ca <__mcmp+0x28>
1a0062c2:	d305      	bcc.n	1a0062d0 <__mcmp+0x2e>
1a0062c4:	2301      	movs	r3, #1
1a0062c6:	4618      	mov	r0, r3
1a0062c8:	bd30      	pop	{r4, r5, pc}
1a0062ca:	42a0      	cmp	r0, r4
1a0062cc:	d3f3      	bcc.n	1a0062b6 <__mcmp+0x14>
1a0062ce:	e7fa      	b.n	1a0062c6 <__mcmp+0x24>
1a0062d0:	f04f 33ff 	mov.w	r3, #4294967295
1a0062d4:	e7f7      	b.n	1a0062c6 <__mcmp+0x24>

1a0062d6 <__mdiff>:
1a0062d6:	e92d 47f0 	stmdb	sp!, {r4, r5, r6, r7, r8, r9, sl, lr}
1a0062da:	460d      	mov	r5, r1
1a0062dc:	4607      	mov	r7, r0
1a0062de:	4611      	mov	r1, r2
1a0062e0:	4628      	mov	r0, r5
1a0062e2:	4614      	mov	r4, r2
1a0062e4:	f7ff ffdd 	bl	1a0062a2 <__mcmp>
1a0062e8:	1e06      	subs	r6, r0, #0
1a0062ea:	d108      	bne.n	1a0062fe <__mdiff+0x28>
1a0062ec:	4631      	mov	r1, r6
1a0062ee:	4638      	mov	r0, r7
1a0062f0:	f7ff fd88 	bl	1a005e04 <_Balloc>
1a0062f4:	2301      	movs	r3, #1
1a0062f6:	e9c0 3604 	strd	r3, r6, [r0, #16]
1a0062fa:	e8bd 87f0 	ldmia.w	sp!, {r4, r5, r6, r7, r8, r9, sl, pc}
1a0062fe:	bfa4      	itt	ge
1a006300:	4623      	movge	r3, r4
1a006302:	462c      	movge	r4, r5
1a006304:	4638      	mov	r0, r7
1a006306:	6861      	ldr	r1, [r4, #4]
1a006308:	bfa6      	itte	ge
1a00630a:	461d      	movge	r5, r3
1a00630c:	2600      	movge	r6, #0
1a00630e:	2601      	movlt	r6, #1
1a006310:	f7ff fd78 	bl	1a005e04 <_Balloc>
1a006314:	692b      	ldr	r3, [r5, #16]
1a006316:	60c6      	str	r6, [r0, #12]
1a006318:	6926      	ldr	r6, [r4, #16]
1a00631a:	f105 0914 	add.w	r9, r5, #20
1a00631e:	f104 0214 	add.w	r2, r4, #20
1a006322:	eb02 0786 	add.w	r7, r2, r6, lsl #2
1a006326:	eb09 0883 	add.w	r8, r9, r3, lsl #2
1a00632a:	f100 0514 	add.w	r5, r0, #20
1a00632e:	f04f 0e00 	mov.w	lr, #0
1a006332:	f852 ab04 	ldr.w	sl, [r2], #4
1a006336:	f859 4b04 	ldr.w	r4, [r9], #4
1a00633a:	fa1e f18a 	uxtah	r1, lr, sl
1a00633e:	b2a3      	uxth	r3, r4
1a006340:	1ac9      	subs	r1, r1, r3
1a006342:	0c23      	lsrs	r3, r4, #16
1a006344:	ebc3 431a 	rsb	r3, r3, sl, lsr #16
1a006348:	eb03 4321 	add.w	r3, r3, r1, asr #16
1a00634c:	b289      	uxth	r1, r1
1a00634e:	ea4f 4e23 	mov.w	lr, r3, asr #16
1a006352:	45c8      	cmp	r8, r9
1a006354:	ea41 4303 	orr.w	r3, r1, r3, lsl #16
1a006358:	4694      	mov	ip, r2
1a00635a:	f845 3b04 	str.w	r3, [r5], #4
1a00635e:	d8e8      	bhi.n	1a006332 <__mdiff+0x5c>
1a006360:	45bc      	cmp	ip, r7
1a006362:	d304      	bcc.n	1a00636e <__mdiff+0x98>
1a006364:	f855 3d04 	ldr.w	r3, [r5, #-4]!
1a006368:	b183      	cbz	r3, 1a00638c <__mdiff+0xb6>
1a00636a:	6106      	str	r6, [r0, #16]
1a00636c:	e7c5      	b.n	1a0062fa <__mdiff+0x24>
1a00636e:	f85c 1b04 	ldr.w	r1, [ip], #4
1a006372:	fa1e f381 	uxtah	r3, lr, r1
1a006376:	141a      	asrs	r2, r3, #16
1a006378:	eb02 4211 	add.w	r2, r2, r1, lsr #16
1a00637c:	b29b      	uxth	r3, r3
1a00637e:	ea43 4302 	orr.w	r3, r3, r2, lsl #16
1a006382:	ea4f 4e22 	mov.w	lr, r2, asr #16
1a006386:	f845 3b04 	str.w	r3, [r5], #4
1a00638a:	e7e9      	b.n	1a006360 <__mdiff+0x8a>
1a00638c:	3e01      	subs	r6, #1
1a00638e:	e7e9      	b.n	1a006364 <__mdiff+0x8e>

1a006390 <__ulp>:
1a006390:	4b11      	ldr	r3, [pc, #68]	; (1a0063d8 <__ulp+0x48>)
1a006392:	ee10 2a90 	vmov	r2, s1
1a006396:	401a      	ands	r2, r3
1a006398:	f1a2 7350 	sub.w	r3, r2, #54525952	; 0x3400000
1a00639c:	2b00      	cmp	r3, #0
1a00639e:	dd04      	ble.n	1a0063aa <__ulp+0x1a>
1a0063a0:	2000      	movs	r0, #0
1a0063a2:	4619      	mov	r1, r3
1a0063a4:	ec41 0b10 	vmov	d0, r0, r1
1a0063a8:	4770      	bx	lr
1a0063aa:	425b      	negs	r3, r3
1a0063ac:	151b      	asrs	r3, r3, #20
1a0063ae:	2b13      	cmp	r3, #19
1a0063b0:	f04f 0000 	mov.w	r0, #0
1a0063b4:	f04f 0100 	mov.w	r1, #0
1a0063b8:	dc04      	bgt.n	1a0063c4 <__ulp+0x34>
1a0063ba:	f44f 2200 	mov.w	r2, #524288	; 0x80000
1a0063be:	fa42 f103 	asr.w	r1, r2, r3
1a0063c2:	e7ef      	b.n	1a0063a4 <__ulp+0x14>
1a0063c4:	3b14      	subs	r3, #20
1a0063c6:	2b1e      	cmp	r3, #30
1a0063c8:	bfda      	itte	le
1a0063ca:	f04f 4200 	movle.w	r2, #2147483648	; 0x80000000
1a0063ce:	fa22 f303 	lsrle.w	r3, r2, r3
1a0063d2:	2301      	movgt	r3, #1
1a0063d4:	4618      	mov	r0, r3
1a0063d6:	e7e5      	b.n	1a0063a4 <__ulp+0x14>
1a0063d8:	7ff00000 	.word	0x7ff00000

1a0063dc <__b2d>:
1a0063dc:	b5f8      	push	{r3, r4, r5, r6, r7, lr}
1a0063de:	6905      	ldr	r5, [r0, #16]
1a0063e0:	f100 0714 	add.w	r7, r0, #20
1a0063e4:	eb07 0585 	add.w	r5, r7, r5, lsl #2
1a0063e8:	1f2e      	subs	r6, r5, #4
1a0063ea:	f855 4c04 	ldr.w	r4, [r5, #-4]
1a0063ee:	4620      	mov	r0, r4
1a0063f0:	f7ff fdcc 	bl	1a005f8c <__hi0bits>
1a0063f4:	f1c0 0320 	rsb	r3, r0, #32
1a0063f8:	280a      	cmp	r0, #10
1a0063fa:	600b      	str	r3, [r1, #0]
1a0063fc:	f8df c078 	ldr.w	ip, [pc, #120]	; 1a006478 <__b2d+0x9c>
1a006400:	dc14      	bgt.n	1a00642c <__b2d+0x50>
1a006402:	f1c0 0e0b 	rsb	lr, r0, #11
1a006406:	fa24 f10e 	lsr.w	r1, r4, lr
1a00640a:	42b7      	cmp	r7, r6
1a00640c:	ea41 030c 	orr.w	r3, r1, ip
1a006410:	bf34      	ite	cc
1a006412:	f855 1c08 	ldrcc.w	r1, [r5, #-8]
1a006416:	2100      	movcs	r1, #0
1a006418:	3015      	adds	r0, #21
1a00641a:	fa04 f000 	lsl.w	r0, r4, r0
1a00641e:	fa21 f10e 	lsr.w	r1, r1, lr
1a006422:	ea40 0201 	orr.w	r2, r0, r1
1a006426:	ec43 2b10 	vmov	d0, r2, r3
1a00642a:	bdf8      	pop	{r3, r4, r5, r6, r7, pc}
1a00642c:	42b7      	cmp	r7, r6
1a00642e:	bf3a      	itte	cc
1a006430:	f1a5 0608 	subcc.w	r6, r5, #8
1a006434:	f855 1c08 	ldrcc.w	r1, [r5, #-8]
1a006438:	2100      	movcs	r1, #0
1a00643a:	380b      	subs	r0, #11
1a00643c:	d017      	beq.n	1a00646e <__b2d+0x92>
1a00643e:	f1c0 0c20 	rsb	ip, r0, #32
1a006442:	fa04 f500 	lsl.w	r5, r4, r0
1a006446:	42be      	cmp	r6, r7
1a006448:	fa21 f40c 	lsr.w	r4, r1, ip
1a00644c:	ea45 0504 	orr.w	r5, r5, r4
1a006450:	bf8c      	ite	hi
1a006452:	f856 4c04 	ldrhi.w	r4, [r6, #-4]
1a006456:	2400      	movls	r4, #0
1a006458:	f045 537f 	orr.w	r3, r5, #1069547520	; 0x3fc00000
1a00645c:	fa01 f000 	lsl.w	r0, r1, r0
1a006460:	fa24 f40c 	lsr.w	r4, r4, ip
1a006464:	f443 1340 	orr.w	r3, r3, #3145728	; 0x300000
1a006468:	ea40 0204 	orr.w	r2, r0, r4
1a00646c:	e7db      	b.n	1a006426 <__b2d+0x4a>
1a00646e:	ea44 030c 	orr.w	r3, r4, ip
1a006472:	460a      	mov	r2, r1
1a006474:	e7d7      	b.n	1a006426 <__b2d+0x4a>
1a006476:	bf00      	nop
1a006478:	3ff00000 	.word	0x3ff00000

1a00647c <__d2b>:
1a00647c:	e92d 43f7 	stmdb	sp!, {r0, r1, r2, r4, r5, r6, r7, r8, r9, lr}
1a006480:	460e      	mov	r6, r1
1a006482:	2101      	movs	r1, #1
1a006484:	ec59 8b10 	vmov	r8, r9, d0
1a006488:	4615      	mov	r5, r2
1a00648a:	f7ff fcbb 	bl	1a005e04 <_Balloc>
1a00648e:	f3c9 540a 	ubfx	r4, r9, #20, #11
1a006492:	4607      	mov	r7, r0
1a006494:	f3c9 0313 	ubfx	r3, r9, #0, #20
1a006498:	bb2c      	cbnz	r4, 1a0064e6 <__d2b+0x6a>
1a00649a:	9301      	str	r3, [sp, #4]
1a00649c:	f1b8 0300 	subs.w	r3, r8, #0
1a0064a0:	d026      	beq.n	1a0064f0 <__d2b+0x74>
1a0064a2:	4668      	mov	r0, sp
1a0064a4:	9300      	str	r3, [sp, #0]
1a0064a6:	f7ff fd91 	bl	1a005fcc <__lo0bits>
1a0064aa:	9900      	ldr	r1, [sp, #0]
1a0064ac:	b1f0      	cbz	r0, 1a0064ec <__d2b+0x70>
1a0064ae:	9a01      	ldr	r2, [sp, #4]
1a0064b0:	f1c0 0320 	rsb	r3, r0, #32
1a0064b4:	fa02 f303 	lsl.w	r3, r2, r3
1a0064b8:	430b      	orrs	r3, r1
1a0064ba:	40c2      	lsrs	r2, r0
1a0064bc:	617b      	str	r3, [r7, #20]
1a0064be:	9201      	str	r2, [sp, #4]
1a0064c0:	9b01      	ldr	r3, [sp, #4]
1a0064c2:	61bb      	str	r3, [r7, #24]
1a0064c4:	2b00      	cmp	r3, #0
1a0064c6:	bf14      	ite	ne
1a0064c8:	2102      	movne	r1, #2
1a0064ca:	2101      	moveq	r1, #1
1a0064cc:	6139      	str	r1, [r7, #16]
1a0064ce:	b1c4      	cbz	r4, 1a006502 <__d2b+0x86>
1a0064d0:	f2a4 4433 	subw	r4, r4, #1075	; 0x433
1a0064d4:	4404      	add	r4, r0
1a0064d6:	6034      	str	r4, [r6, #0]
1a0064d8:	f1c0 0035 	rsb	r0, r0, #53	; 0x35
1a0064dc:	6028      	str	r0, [r5, #0]
1a0064de:	4638      	mov	r0, r7
1a0064e0:	b003      	add	sp, #12
1a0064e2:	e8bd 83f0 	ldmia.w	sp!, {r4, r5, r6, r7, r8, r9, pc}
1a0064e6:	f443 1380 	orr.w	r3, r3, #1048576	; 0x100000
1a0064ea:	e7d6      	b.n	1a00649a <__d2b+0x1e>
1a0064ec:	6179      	str	r1, [r7, #20]
1a0064ee:	e7e7      	b.n	1a0064c0 <__d2b+0x44>
1a0064f0:	a801      	add	r0, sp, #4
1a0064f2:	f7ff fd6b 	bl	1a005fcc <__lo0bits>
1a0064f6:	9b01      	ldr	r3, [sp, #4]
1a0064f8:	617b      	str	r3, [r7, #20]
1a0064fa:	2101      	movs	r1, #1
1a0064fc:	6139      	str	r1, [r7, #16]
1a0064fe:	3020      	adds	r0, #32
1a006500:	e7e5      	b.n	1a0064ce <__d2b+0x52>
1a006502:	eb07 0381 	add.w	r3, r7, r1, lsl #2
1a006506:	f2a0 4032 	subw	r0, r0, #1074	; 0x432
1a00650a:	6030      	str	r0, [r6, #0]
1a00650c:	6918      	ldr	r0, [r3, #16]
1a00650e:	f7ff fd3d 	bl	1a005f8c <__hi0bits>
1a006512:	ebc0 1041 	rsb	r0, r0, r1, lsl #5
1a006516:	e7e1      	b.n	1a0064dc <__d2b+0x60>

1a006518 <__ratio>:
1a006518:	e92d 4ff7 	stmdb	sp!, {r0, r1, r2, r4, r5, r6, r7, r8, r9, sl, fp, lr}
1a00651c:	4688      	mov	r8, r1
1a00651e:	4669      	mov	r1, sp
1a006520:	4681      	mov	r9, r0
1a006522:	f7ff ff5b 	bl	1a0063dc <__b2d>
1a006526:	a901      	add	r1, sp, #4
1a006528:	4640      	mov	r0, r8
1a00652a:	ec57 6b10 	vmov	r6, r7, d0
1a00652e:	f7ff ff55 	bl	1a0063dc <__b2d>
1a006532:	f8d9 3010 	ldr.w	r3, [r9, #16]
1a006536:	f8d8 2010 	ldr.w	r2, [r8, #16]
1a00653a:	eba3 0c02 	sub.w	ip, r3, r2
1a00653e:	e9dd 3200 	ldrd	r3, r2, [sp]
1a006542:	1a9b      	subs	r3, r3, r2
1a006544:	eb03 134c 	add.w	r3, r3, ip, lsl #5
1a006548:	ec5b ab10 	vmov	sl, fp, d0
1a00654c:	2b00      	cmp	r3, #0
1a00654e:	bfce      	itee	gt
1a006550:	463a      	movgt	r2, r7
1a006552:	ebc3 3303 	rsble	r3, r3, r3, lsl #12
1a006556:	465a      	movle	r2, fp
1a006558:	4659      	mov	r1, fp
1a00655a:	463d      	mov	r5, r7
1a00655c:	bfd4      	ite	le
1a00655e:	eb02 5103 	addle.w	r1, r2, r3, lsl #20
1a006562:	eb02 5503 	addgt.w	r5, r2, r3, lsl #20
1a006566:	4630      	mov	r0, r6
1a006568:	ee10 2a10 	vmov	r2, s0
1a00656c:	460b      	mov	r3, r1
1a00656e:	4629      	mov	r1, r5
1a006570:	f7fd fb16 	bl	1a003ba0 <__aeabi_ddiv>
1a006574:	ec41 0b10 	vmov	d0, r0, r1
1a006578:	b003      	add	sp, #12
1a00657a:	e8bd 8ff0 	ldmia.w	sp!, {r4, r5, r6, r7, r8, r9, sl, fp, pc}

1a00657e <__copybits>:
1a00657e:	3901      	subs	r1, #1
1a006580:	b510      	push	{r4, lr}
1a006582:	1149      	asrs	r1, r1, #5
1a006584:	6914      	ldr	r4, [r2, #16]
1a006586:	3101      	adds	r1, #1
1a006588:	f102 0314 	add.w	r3, r2, #20
1a00658c:	eb00 0181 	add.w	r1, r0, r1, lsl #2
1a006590:	eb03 0484 	add.w	r4, r3, r4, lsl #2
1a006594:	42a3      	cmp	r3, r4
1a006596:	4602      	mov	r2, r0
1a006598:	d303      	bcc.n	1a0065a2 <__copybits+0x24>
1a00659a:	2300      	movs	r3, #0
1a00659c:	428a      	cmp	r2, r1
1a00659e:	d305      	bcc.n	1a0065ac <__copybits+0x2e>
1a0065a0:	bd10      	pop	{r4, pc}
1a0065a2:	f853 2b04 	ldr.w	r2, [r3], #4
1a0065a6:	f840 2b04 	str.w	r2, [r0], #4
1a0065aa:	e7f3      	b.n	1a006594 <__copybits+0x16>
1a0065ac:	f842 3b04 	str.w	r3, [r2], #4
1a0065b0:	e7f4      	b.n	1a00659c <__copybits+0x1e>

1a0065b2 <__any_on>:
1a0065b2:	f100 0214 	add.w	r2, r0, #20
1a0065b6:	6900      	ldr	r0, [r0, #16]
1a0065b8:	114b      	asrs	r3, r1, #5
1a0065ba:	4298      	cmp	r0, r3
1a0065bc:	b510      	push	{r4, lr}
1a0065be:	db11      	blt.n	1a0065e4 <__any_on+0x32>
1a0065c0:	dd0a      	ble.n	1a0065d8 <__any_on+0x26>
1a0065c2:	f011 011f 	ands.w	r1, r1, #31
1a0065c6:	d007      	beq.n	1a0065d8 <__any_on+0x26>
1a0065c8:	f852 4023 	ldr.w	r4, [r2, r3, lsl #2]
1a0065cc:	fa24 f001 	lsr.w	r0, r4, r1
1a0065d0:	fa00 f101 	lsl.w	r1, r0, r1
1a0065d4:	428c      	cmp	r4, r1
1a0065d6:	d10b      	bne.n	1a0065f0 <__any_on+0x3e>
1a0065d8:	eb02 0383 	add.w	r3, r2, r3, lsl #2
1a0065dc:	4293      	cmp	r3, r2
1a0065de:	d803      	bhi.n	1a0065e8 <__any_on+0x36>
1a0065e0:	2000      	movs	r0, #0
1a0065e2:	bd10      	pop	{r4, pc}
1a0065e4:	4603      	mov	r3, r0
1a0065e6:	e7f7      	b.n	1a0065d8 <__any_on+0x26>
1a0065e8:	f853 1d04 	ldr.w	r1, [r3, #-4]!
1a0065ec:	2900      	cmp	r1, #0
1a0065ee:	d0f5      	beq.n	1a0065dc <__any_on+0x2a>
1a0065f0:	2001      	movs	r0, #1
1a0065f2:	e7f6      	b.n	1a0065e2 <__any_on+0x30>

1a0065f4 <_calloc_r>:
1a0065f4:	b538      	push	{r3, r4, r5, lr}
1a0065f6:	fb02 f401 	mul.w	r4, r2, r1
1a0065fa:	4621      	mov	r1, r4
1a0065fc:	f7fd feb8 	bl	1a004370 <_malloc_r>
1a006600:	4605      	mov	r5, r0
1a006602:	b118      	cbz	r0, 1a00660c <_calloc_r+0x18>
1a006604:	4622      	mov	r2, r4
1a006606:	2100      	movs	r1, #0
1a006608:	f7fd fe5c 	bl	1a0042c4 <memset>
1a00660c:	4628      	mov	r0, r5
1a00660e:	bd38      	pop	{r3, r4, r5, pc}

1a006610 <_realloc_r>:
1a006610:	b5f8      	push	{r3, r4, r5, r6, r7, lr}
1a006612:	4607      	mov	r7, r0
1a006614:	4614      	mov	r4, r2
1a006616:	460e      	mov	r6, r1
1a006618:	b921      	cbnz	r1, 1a006624 <_realloc_r+0x14>
1a00661a:	4611      	mov	r1, r2
1a00661c:	e8bd 40f8 	ldmia.w	sp!, {r3, r4, r5, r6, r7, lr}
1a006620:	f7fd bea6 	b.w	1a004370 <_malloc_r>
1a006624:	b922      	cbnz	r2, 1a006630 <_realloc_r+0x20>
1a006626:	f7fd fe55 	bl	1a0042d4 <_free_r>
1a00662a:	4625      	mov	r5, r4
1a00662c:	4628      	mov	r0, r5
1a00662e:	bdf8      	pop	{r3, r4, r5, r6, r7, pc}
1a006630:	f001 f910 	bl	1a007854 <_malloc_usable_size_r>
1a006634:	42a0      	cmp	r0, r4
1a006636:	d20f      	bcs.n	1a006658 <_realloc_r+0x48>
1a006638:	4621      	mov	r1, r4
1a00663a:	4638      	mov	r0, r7
1a00663c:	f7fd fe98 	bl	1a004370 <_malloc_r>
1a006640:	4605      	mov	r5, r0
1a006642:	2800      	cmp	r0, #0
1a006644:	d0f2      	beq.n	1a00662c <_realloc_r+0x1c>
1a006646:	4631      	mov	r1, r6
1a006648:	4622      	mov	r2, r4
1a00664a:	f7fd fe2d 	bl	1a0042a8 <memcpy>
1a00664e:	4631      	mov	r1, r6
1a006650:	4638      	mov	r0, r7
1a006652:	f7fd fe3f 	bl	1a0042d4 <_free_r>
1a006656:	e7e9      	b.n	1a00662c <_realloc_r+0x1c>
1a006658:	4635      	mov	r5, r6
1a00665a:	e7e7      	b.n	1a00662c <_realloc_r+0x1c>

1a00665c <__ssputs_r>:
1a00665c:	e92d 47f0 	stmdb	sp!, {r4, r5, r6, r7, r8, r9, sl, lr}
1a006660:	688e      	ldr	r6, [r1, #8]
1a006662:	429e      	cmp	r6, r3
1a006664:	4682      	mov	sl, r0
1a006666:	460c      	mov	r4, r1
1a006668:	4691      	mov	r9, r2
1a00666a:	4698      	mov	r8, r3
1a00666c:	d838      	bhi.n	1a0066e0 <__ssputs_r+0x84>
1a00666e:	f8b1 c00c 	ldrh.w	ip, [r1, #12]
1a006672:	f41c 6f90 	tst.w	ip, #1152	; 0x480
1a006676:	d031      	beq.n	1a0066dc <__ssputs_r+0x80>
1a006678:	6962      	ldr	r2, [r4, #20]
1a00667a:	6825      	ldr	r5, [r4, #0]
1a00667c:	6909      	ldr	r1, [r1, #16]
1a00667e:	eb02 0242 	add.w	r2, r2, r2, lsl #1
1a006682:	1a6f      	subs	r7, r5, r1
1a006684:	eb02 72d2 	add.w	r2, r2, r2, lsr #31
1a006688:	3301      	adds	r3, #1
1a00668a:	1055      	asrs	r5, r2, #1
1a00668c:	443b      	add	r3, r7
1a00668e:	429d      	cmp	r5, r3
1a006690:	bf38      	it	cc
1a006692:	461d      	movcc	r5, r3
1a006694:	f41c 6f80 	tst.w	ip, #1024	; 0x400
1a006698:	d030      	beq.n	1a0066fc <__ssputs_r+0xa0>
1a00669a:	4629      	mov	r1, r5
1a00669c:	f7fd fe68 	bl	1a004370 <_malloc_r>
1a0066a0:	4606      	mov	r6, r0
1a0066a2:	b950      	cbnz	r0, 1a0066ba <__ssputs_r+0x5e>
1a0066a4:	230c      	movs	r3, #12
1a0066a6:	f8ca 3000 	str.w	r3, [sl]
1a0066aa:	89a3      	ldrh	r3, [r4, #12]
1a0066ac:	f043 0340 	orr.w	r3, r3, #64	; 0x40
1a0066b0:	81a3      	strh	r3, [r4, #12]
1a0066b2:	f04f 30ff 	mov.w	r0, #4294967295
1a0066b6:	e8bd 87f0 	ldmia.w	sp!, {r4, r5, r6, r7, r8, r9, sl, pc}
1a0066ba:	463a      	mov	r2, r7
1a0066bc:	6921      	ldr	r1, [r4, #16]
1a0066be:	f7fd fdf3 	bl	1a0042a8 <memcpy>
1a0066c2:	89a3      	ldrh	r3, [r4, #12]
1a0066c4:	f423 6390 	bic.w	r3, r3, #1152	; 0x480
1a0066c8:	f043 0380 	orr.w	r3, r3, #128	; 0x80
1a0066cc:	81a3      	strh	r3, [r4, #12]
1a0066ce:	6126      	str	r6, [r4, #16]
1a0066d0:	6165      	str	r5, [r4, #20]
1a0066d2:	443e      	add	r6, r7
1a0066d4:	1bed      	subs	r5, r5, r7
1a0066d6:	6026      	str	r6, [r4, #0]
1a0066d8:	60a5      	str	r5, [r4, #8]
1a0066da:	4646      	mov	r6, r8
1a0066dc:	4546      	cmp	r6, r8
1a0066de:	d900      	bls.n	1a0066e2 <__ssputs_r+0x86>
1a0066e0:	4646      	mov	r6, r8
1a0066e2:	4632      	mov	r2, r6
1a0066e4:	4649      	mov	r1, r9
1a0066e6:	6820      	ldr	r0, [r4, #0]
1a0066e8:	f001 f89a 	bl	1a007820 <memmove>
1a0066ec:	68a3      	ldr	r3, [r4, #8]
1a0066ee:	1b9b      	subs	r3, r3, r6
1a0066f0:	60a3      	str	r3, [r4, #8]
1a0066f2:	6823      	ldr	r3, [r4, #0]
1a0066f4:	441e      	add	r6, r3
1a0066f6:	6026      	str	r6, [r4, #0]
1a0066f8:	2000      	movs	r0, #0
1a0066fa:	e7dc      	b.n	1a0066b6 <__ssputs_r+0x5a>
1a0066fc:	462a      	mov	r2, r5
1a0066fe:	f7ff ff87 	bl	1a006610 <_realloc_r>
1a006702:	4606      	mov	r6, r0
1a006704:	2800      	cmp	r0, #0
1a006706:	d1e2      	bne.n	1a0066ce <__ssputs_r+0x72>
1a006708:	6921      	ldr	r1, [r4, #16]
1a00670a:	4650      	mov	r0, sl
1a00670c:	f7fd fde2 	bl	1a0042d4 <_free_r>
1a006710:	e7c8      	b.n	1a0066a4 <__ssputs_r+0x48>
1a006712:	Address 0x1a006712 is out of bounds.


1a006714 <_svfiprintf_r>:
1a006714:	e92d 4ff0 	stmdb	sp!, {r4, r5, r6, r7, r8, r9, sl, fp, lr}
1a006718:	461e      	mov	r6, r3
1a00671a:	898b      	ldrh	r3, [r1, #12]
1a00671c:	061b      	lsls	r3, r3, #24
1a00671e:	b09d      	sub	sp, #116	; 0x74
1a006720:	4607      	mov	r7, r0
1a006722:	460d      	mov	r5, r1
1a006724:	4614      	mov	r4, r2
1a006726:	d50e      	bpl.n	1a006746 <_svfiprintf_r+0x32>
1a006728:	690b      	ldr	r3, [r1, #16]
1a00672a:	b963      	cbnz	r3, 1a006746 <_svfiprintf_r+0x32>
1a00672c:	2140      	movs	r1, #64	; 0x40
1a00672e:	f7fd fe1f 	bl	1a004370 <_malloc_r>
1a006732:	6028      	str	r0, [r5, #0]
1a006734:	6128      	str	r0, [r5, #16]
1a006736:	b920      	cbnz	r0, 1a006742 <_svfiprintf_r+0x2e>
1a006738:	230c      	movs	r3, #12
1a00673a:	603b      	str	r3, [r7, #0]
1a00673c:	f04f 30ff 	mov.w	r0, #4294967295
1a006740:	e0c9      	b.n	1a0068d6 <_svfiprintf_r+0x1c2>
1a006742:	2340      	movs	r3, #64	; 0x40
1a006744:	616b      	str	r3, [r5, #20]
1a006746:	2300      	movs	r3, #0
1a006748:	9309      	str	r3, [sp, #36]	; 0x24
1a00674a:	2320      	movs	r3, #32
1a00674c:	f88d 3029 	strb.w	r3, [sp, #41]	; 0x29
1a006750:	f8df 919c 	ldr.w	r9, [pc, #412]	; 1a0068f0 <_svfiprintf_r+0x1dc>
1a006754:	9603      	str	r6, [sp, #12]
1a006756:	2330      	movs	r3, #48	; 0x30
1a006758:	f88d 302a 	strb.w	r3, [sp, #42]	; 0x2a
1a00675c:	f04f 0a01 	mov.w	sl, #1
1a006760:	4623      	mov	r3, r4
1a006762:	461e      	mov	r6, r3
1a006764:	f813 2b01 	ldrb.w	r2, [r3], #1
1a006768:	b10a      	cbz	r2, 1a00676e <_svfiprintf_r+0x5a>
1a00676a:	2a25      	cmp	r2, #37	; 0x25
1a00676c:	d1f9      	bne.n	1a006762 <_svfiprintf_r+0x4e>
1a00676e:	ebb6 0b04 	subs.w	fp, r6, r4
1a006772:	d00b      	beq.n	1a00678c <_svfiprintf_r+0x78>
1a006774:	465b      	mov	r3, fp
1a006776:	4622      	mov	r2, r4
1a006778:	4629      	mov	r1, r5
1a00677a:	4638      	mov	r0, r7
1a00677c:	f7ff ff6e 	bl	1a00665c <__ssputs_r>
1a006780:	3001      	adds	r0, #1
1a006782:	f000 80a3 	beq.w	1a0068cc <_svfiprintf_r+0x1b8>
1a006786:	9b09      	ldr	r3, [sp, #36]	; 0x24
1a006788:	445b      	add	r3, fp
1a00678a:	9309      	str	r3, [sp, #36]	; 0x24
1a00678c:	7833      	ldrb	r3, [r6, #0]
1a00678e:	2b00      	cmp	r3, #0
1a006790:	f000 809c 	beq.w	1a0068cc <_svfiprintf_r+0x1b8>
1a006794:	2300      	movs	r3, #0
1a006796:	f04f 32ff 	mov.w	r2, #4294967295
1a00679a:	e9cd 2305 	strd	r2, r3, [sp, #20]
1a00679e:	3601      	adds	r6, #1
1a0067a0:	9304      	str	r3, [sp, #16]
1a0067a2:	9307      	str	r3, [sp, #28]
1a0067a4:	f88d 3053 	strb.w	r3, [sp, #83]	; 0x53
1a0067a8:	931a      	str	r3, [sp, #104]	; 0x68
1a0067aa:	4634      	mov	r4, r6
1a0067ac:	2205      	movs	r2, #5
1a0067ae:	f814 1b01 	ldrb.w	r1, [r4], #1
1a0067b2:	484f      	ldr	r0, [pc, #316]	; (1a0068f0 <_svfiprintf_r+0x1dc>)
1a0067b4:	f000 ffe4 	bl	1a007780 <memchr>
1a0067b8:	9b04      	ldr	r3, [sp, #16]
1a0067ba:	b9c0      	cbnz	r0, 1a0067ee <_svfiprintf_r+0xda>
1a0067bc:	06d9      	lsls	r1, r3, #27
1a0067be:	bf44      	itt	mi
1a0067c0:	2220      	movmi	r2, #32
1a0067c2:	f88d 2053 	strbmi.w	r2, [sp, #83]	; 0x53
1a0067c6:	071a      	lsls	r2, r3, #28
1a0067c8:	bf44      	itt	mi
1a0067ca:	222b      	movmi	r2, #43	; 0x2b
1a0067cc:	f88d 2053 	strbmi.w	r2, [sp, #83]	; 0x53
1a0067d0:	7832      	ldrb	r2, [r6, #0]
1a0067d2:	2a2a      	cmp	r2, #42	; 0x2a
1a0067d4:	d013      	beq.n	1a0067fe <_svfiprintf_r+0xea>
1a0067d6:	9a07      	ldr	r2, [sp, #28]
1a0067d8:	4634      	mov	r4, r6
1a0067da:	2000      	movs	r0, #0
1a0067dc:	260a      	movs	r6, #10
1a0067de:	4621      	mov	r1, r4
1a0067e0:	f811 3b01 	ldrb.w	r3, [r1], #1
1a0067e4:	3b30      	subs	r3, #48	; 0x30
1a0067e6:	2b09      	cmp	r3, #9
1a0067e8:	d94b      	bls.n	1a006882 <_svfiprintf_r+0x16e>
1a0067ea:	b970      	cbnz	r0, 1a00680a <_svfiprintf_r+0xf6>
1a0067ec:	e014      	b.n	1a006818 <_svfiprintf_r+0x104>
1a0067ee:	eba0 0009 	sub.w	r0, r0, r9
1a0067f2:	fa0a f000 	lsl.w	r0, sl, r0
1a0067f6:	4318      	orrs	r0, r3
1a0067f8:	9004      	str	r0, [sp, #16]
1a0067fa:	4626      	mov	r6, r4
1a0067fc:	e7d5      	b.n	1a0067aa <_svfiprintf_r+0x96>
1a0067fe:	9a03      	ldr	r2, [sp, #12]
1a006800:	1d11      	adds	r1, r2, #4
1a006802:	6812      	ldr	r2, [r2, #0]
1a006804:	9103      	str	r1, [sp, #12]
1a006806:	2a00      	cmp	r2, #0
1a006808:	db01      	blt.n	1a00680e <_svfiprintf_r+0xfa>
1a00680a:	9207      	str	r2, [sp, #28]
1a00680c:	e004      	b.n	1a006818 <_svfiprintf_r+0x104>
1a00680e:	4252      	negs	r2, r2
1a006810:	f043 0302 	orr.w	r3, r3, #2
1a006814:	9207      	str	r2, [sp, #28]
1a006816:	9304      	str	r3, [sp, #16]
1a006818:	7823      	ldrb	r3, [r4, #0]
1a00681a:	2b2e      	cmp	r3, #46	; 0x2e
1a00681c:	d10c      	bne.n	1a006838 <_svfiprintf_r+0x124>
1a00681e:	7863      	ldrb	r3, [r4, #1]
1a006820:	2b2a      	cmp	r3, #42	; 0x2a
1a006822:	d133      	bne.n	1a00688c <_svfiprintf_r+0x178>
1a006824:	9b03      	ldr	r3, [sp, #12]
1a006826:	1d1a      	adds	r2, r3, #4
1a006828:	681b      	ldr	r3, [r3, #0]
1a00682a:	9203      	str	r2, [sp, #12]
1a00682c:	2b00      	cmp	r3, #0
1a00682e:	bfb8      	it	lt
1a006830:	f04f 33ff 	movlt.w	r3, #4294967295
1a006834:	3402      	adds	r4, #2
1a006836:	9305      	str	r3, [sp, #20]
1a006838:	4e2e      	ldr	r6, [pc, #184]	; (1a0068f4 <_svfiprintf_r+0x1e0>)
1a00683a:	7821      	ldrb	r1, [r4, #0]
1a00683c:	2203      	movs	r2, #3
1a00683e:	4630      	mov	r0, r6
1a006840:	f000 ff9e 	bl	1a007780 <memchr>
1a006844:	b138      	cbz	r0, 1a006856 <_svfiprintf_r+0x142>
1a006846:	2340      	movs	r3, #64	; 0x40
1a006848:	1b80      	subs	r0, r0, r6
1a00684a:	fa03 f000 	lsl.w	r0, r3, r0
1a00684e:	9b04      	ldr	r3, [sp, #16]
1a006850:	4303      	orrs	r3, r0
1a006852:	3401      	adds	r4, #1
1a006854:	9304      	str	r3, [sp, #16]
1a006856:	f814 1b01 	ldrb.w	r1, [r4], #1
1a00685a:	4827      	ldr	r0, [pc, #156]	; (1a0068f8 <_svfiprintf_r+0x1e4>)
1a00685c:	f88d 1028 	strb.w	r1, [sp, #40]	; 0x28
1a006860:	2206      	movs	r2, #6
1a006862:	f000 ff8d 	bl	1a007780 <memchr>
1a006866:	2800      	cmp	r0, #0
1a006868:	d038      	beq.n	1a0068dc <_svfiprintf_r+0x1c8>
1a00686a:	4b24      	ldr	r3, [pc, #144]	; (1a0068fc <_svfiprintf_r+0x1e8>)
1a00686c:	bb13      	cbnz	r3, 1a0068b4 <_svfiprintf_r+0x1a0>
1a00686e:	9b03      	ldr	r3, [sp, #12]
1a006870:	3307      	adds	r3, #7
1a006872:	f023 0307 	bic.w	r3, r3, #7
1a006876:	3308      	adds	r3, #8
1a006878:	9303      	str	r3, [sp, #12]
1a00687a:	9b09      	ldr	r3, [sp, #36]	; 0x24
1a00687c:	4443      	add	r3, r8
1a00687e:	9309      	str	r3, [sp, #36]	; 0x24
1a006880:	e76e      	b.n	1a006760 <_svfiprintf_r+0x4c>
1a006882:	fb06 3202 	mla	r2, r6, r2, r3
1a006886:	2001      	movs	r0, #1
1a006888:	460c      	mov	r4, r1
1a00688a:	e7a8      	b.n	1a0067de <_svfiprintf_r+0xca>
1a00688c:	2300      	movs	r3, #0
1a00688e:	3401      	adds	r4, #1
1a006890:	9305      	str	r3, [sp, #20]
1a006892:	4619      	mov	r1, r3
1a006894:	260a      	movs	r6, #10
1a006896:	4620      	mov	r0, r4
1a006898:	f810 2b01 	ldrb.w	r2, [r0], #1
1a00689c:	3a30      	subs	r2, #48	; 0x30
1a00689e:	2a09      	cmp	r2, #9
1a0068a0:	d903      	bls.n	1a0068aa <_svfiprintf_r+0x196>
1a0068a2:	2b00      	cmp	r3, #0
1a0068a4:	d0c8      	beq.n	1a006838 <_svfiprintf_r+0x124>
1a0068a6:	9105      	str	r1, [sp, #20]
1a0068a8:	e7c6      	b.n	1a006838 <_svfiprintf_r+0x124>
1a0068aa:	fb06 2101 	mla	r1, r6, r1, r2
1a0068ae:	2301      	movs	r3, #1
1a0068b0:	4604      	mov	r4, r0
1a0068b2:	e7f0      	b.n	1a006896 <_svfiprintf_r+0x182>
1a0068b4:	ab03      	add	r3, sp, #12
1a0068b6:	9300      	str	r3, [sp, #0]
1a0068b8:	462a      	mov	r2, r5
1a0068ba:	4b11      	ldr	r3, [pc, #68]	; (1a006900 <_svfiprintf_r+0x1ec>)
1a0068bc:	a904      	add	r1, sp, #16
1a0068be:	4638      	mov	r0, r7
1a0068c0:	f3af 8000 	nop.w
1a0068c4:	f1b0 3fff 	cmp.w	r0, #4294967295
1a0068c8:	4680      	mov	r8, r0
1a0068ca:	d1d6      	bne.n	1a00687a <_svfiprintf_r+0x166>
1a0068cc:	89ab      	ldrh	r3, [r5, #12]
1a0068ce:	065b      	lsls	r3, r3, #25
1a0068d0:	f53f af34 	bmi.w	1a00673c <_svfiprintf_r+0x28>
1a0068d4:	9809      	ldr	r0, [sp, #36]	; 0x24
1a0068d6:	b01d      	add	sp, #116	; 0x74
1a0068d8:	e8bd 8ff0 	ldmia.w	sp!, {r4, r5, r6, r7, r8, r9, sl, fp, pc}
1a0068dc:	ab03      	add	r3, sp, #12
1a0068de:	9300      	str	r3, [sp, #0]
1a0068e0:	462a      	mov	r2, r5
1a0068e2:	4b07      	ldr	r3, [pc, #28]	; (1a006900 <_svfiprintf_r+0x1ec>)
1a0068e4:	a904      	add	r1, sp, #16
1a0068e6:	4638      	mov	r0, r7
1a0068e8:	f000 fb76 	bl	1a006fd8 <_printf_i>
1a0068ec:	e7ea      	b.n	1a0068c4 <_svfiprintf_r+0x1b0>
1a0068ee:	bf00      	nop
1a0068f0:	1a007f84 	.word	0x1a007f84
1a0068f4:	1a007f8a 	.word	0x1a007f8a
1a0068f8:	1a007f8e 	.word	0x1a007f8e
1a0068fc:	00000000 	.word	0x00000000
1a006900:	1a00665d 	.word	0x1a00665d

1a006904 <_sungetc_r>:
1a006904:	b538      	push	{r3, r4, r5, lr}
1a006906:	1c4b      	adds	r3, r1, #1
1a006908:	4614      	mov	r4, r2
1a00690a:	d103      	bne.n	1a006914 <_sungetc_r+0x10>
1a00690c:	f04f 35ff 	mov.w	r5, #4294967295
1a006910:	4628      	mov	r0, r5
1a006912:	bd38      	pop	{r3, r4, r5, pc}
1a006914:	8993      	ldrh	r3, [r2, #12]
1a006916:	f023 0320 	bic.w	r3, r3, #32
1a00691a:	8193      	strh	r3, [r2, #12]
1a00691c:	6b63      	ldr	r3, [r4, #52]	; 0x34
1a00691e:	6852      	ldr	r2, [r2, #4]
1a006920:	b2cd      	uxtb	r5, r1
1a006922:	b18b      	cbz	r3, 1a006948 <_sungetc_r+0x44>
1a006924:	6ba3      	ldr	r3, [r4, #56]	; 0x38
1a006926:	4293      	cmp	r3, r2
1a006928:	dd08      	ble.n	1a00693c <_sungetc_r+0x38>
1a00692a:	6823      	ldr	r3, [r4, #0]
1a00692c:	1e5a      	subs	r2, r3, #1
1a00692e:	6022      	str	r2, [r4, #0]
1a006930:	f803 5c01 	strb.w	r5, [r3, #-1]
1a006934:	6863      	ldr	r3, [r4, #4]
1a006936:	3301      	adds	r3, #1
1a006938:	6063      	str	r3, [r4, #4]
1a00693a:	e7e9      	b.n	1a006910 <_sungetc_r+0xc>
1a00693c:	4621      	mov	r1, r4
1a00693e:	f000 fed7 	bl	1a0076f0 <__submore>
1a006942:	2800      	cmp	r0, #0
1a006944:	d0f1      	beq.n	1a00692a <_sungetc_r+0x26>
1a006946:	e7e1      	b.n	1a00690c <_sungetc_r+0x8>
1a006948:	6921      	ldr	r1, [r4, #16]
1a00694a:	6823      	ldr	r3, [r4, #0]
1a00694c:	b151      	cbz	r1, 1a006964 <_sungetc_r+0x60>
1a00694e:	4299      	cmp	r1, r3
1a006950:	d208      	bcs.n	1a006964 <_sungetc_r+0x60>
1a006952:	f813 1c01 	ldrb.w	r1, [r3, #-1]
1a006956:	42a9      	cmp	r1, r5
1a006958:	d104      	bne.n	1a006964 <_sungetc_r+0x60>
1a00695a:	3b01      	subs	r3, #1
1a00695c:	3201      	adds	r2, #1
1a00695e:	6023      	str	r3, [r4, #0]
1a006960:	6062      	str	r2, [r4, #4]
1a006962:	e7d5      	b.n	1a006910 <_sungetc_r+0xc>
1a006964:	e9c4 320f 	strd	r3, r2, [r4, #60]	; 0x3c
1a006968:	f104 0344 	add.w	r3, r4, #68	; 0x44
1a00696c:	6363      	str	r3, [r4, #52]	; 0x34
1a00696e:	2303      	movs	r3, #3
1a006970:	63a3      	str	r3, [r4, #56]	; 0x38
1a006972:	4623      	mov	r3, r4
1a006974:	f803 5f46 	strb.w	r5, [r3, #70]!
1a006978:	6023      	str	r3, [r4, #0]
1a00697a:	2301      	movs	r3, #1
1a00697c:	e7dc      	b.n	1a006938 <_sungetc_r+0x34>

1a00697e <__ssrefill_r>:
1a00697e:	b510      	push	{r4, lr}
1a006980:	460c      	mov	r4, r1
1a006982:	6b49      	ldr	r1, [r1, #52]	; 0x34
1a006984:	b169      	cbz	r1, 1a0069a2 <__ssrefill_r+0x24>
1a006986:	f104 0344 	add.w	r3, r4, #68	; 0x44
1a00698a:	4299      	cmp	r1, r3
1a00698c:	d001      	beq.n	1a006992 <__ssrefill_r+0x14>
1a00698e:	f7fd fca1 	bl	1a0042d4 <_free_r>
1a006992:	6c23      	ldr	r3, [r4, #64]	; 0x40
1a006994:	6063      	str	r3, [r4, #4]
1a006996:	2000      	movs	r0, #0
1a006998:	6360      	str	r0, [r4, #52]	; 0x34
1a00699a:	b113      	cbz	r3, 1a0069a2 <__ssrefill_r+0x24>
1a00699c:	6be3      	ldr	r3, [r4, #60]	; 0x3c
1a00699e:	6023      	str	r3, [r4, #0]
1a0069a0:	bd10      	pop	{r4, pc}
1a0069a2:	6923      	ldr	r3, [r4, #16]
1a0069a4:	6023      	str	r3, [r4, #0]
1a0069a6:	2300      	movs	r3, #0
1a0069a8:	6063      	str	r3, [r4, #4]
1a0069aa:	89a3      	ldrh	r3, [r4, #12]
1a0069ac:	f043 0320 	orr.w	r3, r3, #32
1a0069b0:	81a3      	strh	r3, [r4, #12]
1a0069b2:	f04f 30ff 	mov.w	r0, #4294967295
1a0069b6:	e7f3      	b.n	1a0069a0 <__ssrefill_r+0x22>

1a0069b8 <__ssvfiscanf_r>:
1a0069b8:	e92d 4ff0 	stmdb	sp!, {r4, r5, r6, r7, r8, r9, sl, fp, lr}
1a0069bc:	460c      	mov	r4, r1
1a0069be:	f5ad 7d23 	sub.w	sp, sp, #652	; 0x28c
1a0069c2:	2100      	movs	r1, #0
1a0069c4:	e9cd 1144 	strd	r1, r1, [sp, #272]	; 0x110
1a0069c8:	499a      	ldr	r1, [pc, #616]	; (1a006c34 <__ssvfiscanf_r+0x27c>)
1a0069ca:	91a0      	str	r1, [sp, #640]	; 0x280
1a0069cc:	f10d 0804 	add.w	r8, sp, #4
1a0069d0:	4999      	ldr	r1, [pc, #612]	; (1a006c38 <__ssvfiscanf_r+0x280>)
1a0069d2:	4f9a      	ldr	r7, [pc, #616]	; (1a006c3c <__ssvfiscanf_r+0x284>)
1a0069d4:	f8df 9268 	ldr.w	r9, [pc, #616]	; 1a006c40 <__ssvfiscanf_r+0x288>
1a0069d8:	f8cd 8118 	str.w	r8, [sp, #280]	; 0x118
1a0069dc:	4606      	mov	r6, r0
1a0069de:	91a1      	str	r1, [sp, #644]	; 0x284
1a0069e0:	9300      	str	r3, [sp, #0]
1a0069e2:	f892 a000 	ldrb.w	sl, [r2]
1a0069e6:	f1ba 0f00 	cmp.w	sl, #0
1a0069ea:	f000 8120 	beq.w	1a006c2e <__ssvfiscanf_r+0x276>
1a0069ee:	f81a 3007 	ldrb.w	r3, [sl, r7]
1a0069f2:	f013 0308 	ands.w	r3, r3, #8
1a0069f6:	f102 0501 	add.w	r5, r2, #1
1a0069fa:	d019      	beq.n	1a006a30 <__ssvfiscanf_r+0x78>
1a0069fc:	6863      	ldr	r3, [r4, #4]
1a0069fe:	2b00      	cmp	r3, #0
1a006a00:	dd0f      	ble.n	1a006a22 <__ssvfiscanf_r+0x6a>
1a006a02:	6823      	ldr	r3, [r4, #0]
1a006a04:	781a      	ldrb	r2, [r3, #0]
1a006a06:	5cba      	ldrb	r2, [r7, r2]
1a006a08:	0712      	lsls	r2, r2, #28
1a006a0a:	d401      	bmi.n	1a006a10 <__ssvfiscanf_r+0x58>
1a006a0c:	462a      	mov	r2, r5
1a006a0e:	e7e8      	b.n	1a0069e2 <__ssvfiscanf_r+0x2a>
1a006a10:	9a45      	ldr	r2, [sp, #276]	; 0x114
1a006a12:	3201      	adds	r2, #1
1a006a14:	9245      	str	r2, [sp, #276]	; 0x114
1a006a16:	6862      	ldr	r2, [r4, #4]
1a006a18:	3301      	adds	r3, #1
1a006a1a:	3a01      	subs	r2, #1
1a006a1c:	6062      	str	r2, [r4, #4]
1a006a1e:	6023      	str	r3, [r4, #0]
1a006a20:	e7ec      	b.n	1a0069fc <__ssvfiscanf_r+0x44>
1a006a22:	9ba1      	ldr	r3, [sp, #644]	; 0x284
1a006a24:	4621      	mov	r1, r4
1a006a26:	4630      	mov	r0, r6
1a006a28:	4798      	blx	r3
1a006a2a:	2800      	cmp	r0, #0
1a006a2c:	d0e9      	beq.n	1a006a02 <__ssvfiscanf_r+0x4a>
1a006a2e:	e7ed      	b.n	1a006a0c <__ssvfiscanf_r+0x54>
1a006a30:	f1ba 0f25 	cmp.w	sl, #37	; 0x25
1a006a34:	d17d      	bne.n	1a006b32 <__ssvfiscanf_r+0x17a>
1a006a36:	9341      	str	r3, [sp, #260]	; 0x104
1a006a38:	9343      	str	r3, [sp, #268]	; 0x10c
1a006a3a:	7853      	ldrb	r3, [r2, #1]
1a006a3c:	2b2a      	cmp	r3, #42	; 0x2a
1a006a3e:	bf02      	ittt	eq
1a006a40:	2310      	moveq	r3, #16
1a006a42:	1c95      	addeq	r5, r2, #2
1a006a44:	9341      	streq	r3, [sp, #260]	; 0x104
1a006a46:	220a      	movs	r2, #10
1a006a48:	46ab      	mov	fp, r5
1a006a4a:	f81b 1b01 	ldrb.w	r1, [fp], #1
1a006a4e:	f1a1 0330 	sub.w	r3, r1, #48	; 0x30
1a006a52:	2b09      	cmp	r3, #9
1a006a54:	d921      	bls.n	1a006a9a <__ssvfiscanf_r+0xe2>
1a006a56:	2203      	movs	r2, #3
1a006a58:	4879      	ldr	r0, [pc, #484]	; (1a006c40 <__ssvfiscanf_r+0x288>)
1a006a5a:	f000 fe91 	bl	1a007780 <memchr>
1a006a5e:	b138      	cbz	r0, 1a006a70 <__ssvfiscanf_r+0xb8>
1a006a60:	eba0 0309 	sub.w	r3, r0, r9
1a006a64:	2001      	movs	r0, #1
1a006a66:	4098      	lsls	r0, r3
1a006a68:	9b41      	ldr	r3, [sp, #260]	; 0x104
1a006a6a:	4318      	orrs	r0, r3
1a006a6c:	9041      	str	r0, [sp, #260]	; 0x104
1a006a6e:	465d      	mov	r5, fp
1a006a70:	f815 3b01 	ldrb.w	r3, [r5], #1
1a006a74:	2b67      	cmp	r3, #103	; 0x67
1a006a76:	d848      	bhi.n	1a006b0a <__ssvfiscanf_r+0x152>
1a006a78:	2b65      	cmp	r3, #101	; 0x65
1a006a7a:	f080 809e 	bcs.w	1a006bba <__ssvfiscanf_r+0x202>
1a006a7e:	2b47      	cmp	r3, #71	; 0x47
1a006a80:	d812      	bhi.n	1a006aa8 <__ssvfiscanf_r+0xf0>
1a006a82:	2b45      	cmp	r3, #69	; 0x45
1a006a84:	f080 8099 	bcs.w	1a006bba <__ssvfiscanf_r+0x202>
1a006a88:	2b00      	cmp	r3, #0
1a006a8a:	d06b      	beq.n	1a006b64 <__ssvfiscanf_r+0x1ac>
1a006a8c:	2b25      	cmp	r3, #37	; 0x25
1a006a8e:	d050      	beq.n	1a006b32 <__ssvfiscanf_r+0x17a>
1a006a90:	2303      	movs	r3, #3
1a006a92:	9347      	str	r3, [sp, #284]	; 0x11c
1a006a94:	230a      	movs	r3, #10
1a006a96:	9342      	str	r3, [sp, #264]	; 0x108
1a006a98:	e016      	b.n	1a006ac8 <__ssvfiscanf_r+0x110>
1a006a9a:	9b43      	ldr	r3, [sp, #268]	; 0x10c
1a006a9c:	fb02 1303 	mla	r3, r2, r3, r1
1a006aa0:	3b30      	subs	r3, #48	; 0x30
1a006aa2:	9343      	str	r3, [sp, #268]	; 0x10c
1a006aa4:	465d      	mov	r5, fp
1a006aa6:	e7cf      	b.n	1a006a48 <__ssvfiscanf_r+0x90>
1a006aa8:	2b5b      	cmp	r3, #91	; 0x5b
1a006aaa:	d067      	beq.n	1a006b7c <__ssvfiscanf_r+0x1c4>
1a006aac:	d827      	bhi.n	1a006afe <__ssvfiscanf_r+0x146>
1a006aae:	2b58      	cmp	r3, #88	; 0x58
1a006ab0:	d1ee      	bne.n	1a006a90 <__ssvfiscanf_r+0xd8>
1a006ab2:	9a41      	ldr	r2, [sp, #260]	; 0x104
1a006ab4:	f442 7200 	orr.w	r2, r2, #512	; 0x200
1a006ab8:	9241      	str	r2, [sp, #260]	; 0x104
1a006aba:	2210      	movs	r2, #16
1a006abc:	2b6f      	cmp	r3, #111	; 0x6f
1a006abe:	9242      	str	r2, [sp, #264]	; 0x108
1a006ac0:	bf34      	ite	cc
1a006ac2:	2303      	movcc	r3, #3
1a006ac4:	2304      	movcs	r3, #4
1a006ac6:	9347      	str	r3, [sp, #284]	; 0x11c
1a006ac8:	6863      	ldr	r3, [r4, #4]
1a006aca:	2b00      	cmp	r3, #0
1a006acc:	dd77      	ble.n	1a006bbe <__ssvfiscanf_r+0x206>
1a006ace:	9b41      	ldr	r3, [sp, #260]	; 0x104
1a006ad0:	0659      	lsls	r1, r3, #25
1a006ad2:	d404      	bmi.n	1a006ade <__ssvfiscanf_r+0x126>
1a006ad4:	6823      	ldr	r3, [r4, #0]
1a006ad6:	781a      	ldrb	r2, [r3, #0]
1a006ad8:	5cba      	ldrb	r2, [r7, r2]
1a006ada:	0712      	lsls	r2, r2, #28
1a006adc:	d476      	bmi.n	1a006bcc <__ssvfiscanf_r+0x214>
1a006ade:	9b47      	ldr	r3, [sp, #284]	; 0x11c
1a006ae0:	2b02      	cmp	r3, #2
1a006ae2:	f300 8086 	bgt.w	1a006bf2 <__ssvfiscanf_r+0x23a>
1a006ae6:	466b      	mov	r3, sp
1a006ae8:	4622      	mov	r2, r4
1a006aea:	a941      	add	r1, sp, #260	; 0x104
1a006aec:	4630      	mov	r0, r6
1a006aee:	f000 fb87 	bl	1a007200 <_scanf_chars>
1a006af2:	2801      	cmp	r0, #1
1a006af4:	f000 809b 	beq.w	1a006c2e <__ssvfiscanf_r+0x276>
1a006af8:	2802      	cmp	r0, #2
1a006afa:	d187      	bne.n	1a006a0c <__ssvfiscanf_r+0x54>
1a006afc:	e02f      	b.n	1a006b5e <__ssvfiscanf_r+0x1a6>
1a006afe:	2b63      	cmp	r3, #99	; 0x63
1a006b00:	d047      	beq.n	1a006b92 <__ssvfiscanf_r+0x1da>
1a006b02:	2b64      	cmp	r3, #100	; 0x64
1a006b04:	d1c4      	bne.n	1a006a90 <__ssvfiscanf_r+0xd8>
1a006b06:	220a      	movs	r2, #10
1a006b08:	e7d8      	b.n	1a006abc <__ssvfiscanf_r+0x104>
1a006b0a:	2b70      	cmp	r3, #112	; 0x70
1a006b0c:	d02d      	beq.n	1a006b6a <__ssvfiscanf_r+0x1b2>
1a006b0e:	d808      	bhi.n	1a006b22 <__ssvfiscanf_r+0x16a>
1a006b10:	2b6e      	cmp	r3, #110	; 0x6e
1a006b12:	d044      	beq.n	1a006b9e <__ssvfiscanf_r+0x1e6>
1a006b14:	d82e      	bhi.n	1a006b74 <__ssvfiscanf_r+0x1bc>
1a006b16:	2b69      	cmp	r3, #105	; 0x69
1a006b18:	d1ba      	bne.n	1a006a90 <__ssvfiscanf_r+0xd8>
1a006b1a:	2300      	movs	r3, #0
1a006b1c:	9342      	str	r3, [sp, #264]	; 0x108
1a006b1e:	2303      	movs	r3, #3
1a006b20:	e7d1      	b.n	1a006ac6 <__ssvfiscanf_r+0x10e>
1a006b22:	2b75      	cmp	r3, #117	; 0x75
1a006b24:	d0ef      	beq.n	1a006b06 <__ssvfiscanf_r+0x14e>
1a006b26:	2b78      	cmp	r3, #120	; 0x78
1a006b28:	d0c3      	beq.n	1a006ab2 <__ssvfiscanf_r+0xfa>
1a006b2a:	2b73      	cmp	r3, #115	; 0x73
1a006b2c:	d1b0      	bne.n	1a006a90 <__ssvfiscanf_r+0xd8>
1a006b2e:	2302      	movs	r3, #2
1a006b30:	e7c9      	b.n	1a006ac6 <__ssvfiscanf_r+0x10e>
1a006b32:	6863      	ldr	r3, [r4, #4]
1a006b34:	2b00      	cmp	r3, #0
1a006b36:	dd0c      	ble.n	1a006b52 <__ssvfiscanf_r+0x19a>
1a006b38:	6823      	ldr	r3, [r4, #0]
1a006b3a:	781a      	ldrb	r2, [r3, #0]
1a006b3c:	4552      	cmp	r2, sl
1a006b3e:	d176      	bne.n	1a006c2e <__ssvfiscanf_r+0x276>
1a006b40:	3301      	adds	r3, #1
1a006b42:	6862      	ldr	r2, [r4, #4]
1a006b44:	6023      	str	r3, [r4, #0]
1a006b46:	9b45      	ldr	r3, [sp, #276]	; 0x114
1a006b48:	3a01      	subs	r2, #1
1a006b4a:	3301      	adds	r3, #1
1a006b4c:	6062      	str	r2, [r4, #4]
1a006b4e:	9345      	str	r3, [sp, #276]	; 0x114
1a006b50:	e75c      	b.n	1a006a0c <__ssvfiscanf_r+0x54>
1a006b52:	9ba1      	ldr	r3, [sp, #644]	; 0x284
1a006b54:	4621      	mov	r1, r4
1a006b56:	4630      	mov	r0, r6
1a006b58:	4798      	blx	r3
1a006b5a:	2800      	cmp	r0, #0
1a006b5c:	d0ec      	beq.n	1a006b38 <__ssvfiscanf_r+0x180>
1a006b5e:	9844      	ldr	r0, [sp, #272]	; 0x110
1a006b60:	2800      	cmp	r0, #0
1a006b62:	d15a      	bne.n	1a006c1a <__ssvfiscanf_r+0x262>
1a006b64:	f04f 30ff 	mov.w	r0, #4294967295
1a006b68:	e05d      	b.n	1a006c26 <__ssvfiscanf_r+0x26e>
1a006b6a:	9a41      	ldr	r2, [sp, #260]	; 0x104
1a006b6c:	f042 0220 	orr.w	r2, r2, #32
1a006b70:	9241      	str	r2, [sp, #260]	; 0x104
1a006b72:	e79e      	b.n	1a006ab2 <__ssvfiscanf_r+0xfa>
1a006b74:	2308      	movs	r3, #8
1a006b76:	9342      	str	r3, [sp, #264]	; 0x108
1a006b78:	2304      	movs	r3, #4
1a006b7a:	e7a4      	b.n	1a006ac6 <__ssvfiscanf_r+0x10e>
1a006b7c:	4629      	mov	r1, r5
1a006b7e:	4640      	mov	r0, r8
1a006b80:	f000 fc92 	bl	1a0074a8 <__sccl>
1a006b84:	9b41      	ldr	r3, [sp, #260]	; 0x104
1a006b86:	f043 0340 	orr.w	r3, r3, #64	; 0x40
1a006b8a:	9341      	str	r3, [sp, #260]	; 0x104
1a006b8c:	4605      	mov	r5, r0
1a006b8e:	2301      	movs	r3, #1
1a006b90:	e799      	b.n	1a006ac6 <__ssvfiscanf_r+0x10e>
1a006b92:	9b41      	ldr	r3, [sp, #260]	; 0x104
1a006b94:	f043 0340 	orr.w	r3, r3, #64	; 0x40
1a006b98:	9341      	str	r3, [sp, #260]	; 0x104
1a006b9a:	2300      	movs	r3, #0
1a006b9c:	e793      	b.n	1a006ac6 <__ssvfiscanf_r+0x10e>
1a006b9e:	9841      	ldr	r0, [sp, #260]	; 0x104
1a006ba0:	06c3      	lsls	r3, r0, #27
1a006ba2:	f53f af33 	bmi.w	1a006a0c <__ssvfiscanf_r+0x54>
1a006ba6:	9b00      	ldr	r3, [sp, #0]
1a006ba8:	9a45      	ldr	r2, [sp, #276]	; 0x114
1a006baa:	1d19      	adds	r1, r3, #4
1a006bac:	9100      	str	r1, [sp, #0]
1a006bae:	681b      	ldr	r3, [r3, #0]
1a006bb0:	07c0      	lsls	r0, r0, #31
1a006bb2:	bf4c      	ite	mi
1a006bb4:	801a      	strhmi	r2, [r3, #0]
1a006bb6:	601a      	strpl	r2, [r3, #0]
1a006bb8:	e728      	b.n	1a006a0c <__ssvfiscanf_r+0x54>
1a006bba:	2305      	movs	r3, #5
1a006bbc:	e783      	b.n	1a006ac6 <__ssvfiscanf_r+0x10e>
1a006bbe:	9ba1      	ldr	r3, [sp, #644]	; 0x284
1a006bc0:	4621      	mov	r1, r4
1a006bc2:	4630      	mov	r0, r6
1a006bc4:	4798      	blx	r3
1a006bc6:	2800      	cmp	r0, #0
1a006bc8:	d081      	beq.n	1a006ace <__ssvfiscanf_r+0x116>
1a006bca:	e7c8      	b.n	1a006b5e <__ssvfiscanf_r+0x1a6>
1a006bcc:	9a45      	ldr	r2, [sp, #276]	; 0x114
1a006bce:	3201      	adds	r2, #1
1a006bd0:	9245      	str	r2, [sp, #276]	; 0x114
1a006bd2:	6862      	ldr	r2, [r4, #4]
1a006bd4:	3a01      	subs	r2, #1
1a006bd6:	2a00      	cmp	r2, #0
1a006bd8:	6062      	str	r2, [r4, #4]
1a006bda:	dd02      	ble.n	1a006be2 <__ssvfiscanf_r+0x22a>
1a006bdc:	3301      	adds	r3, #1
1a006bde:	6023      	str	r3, [r4, #0]
1a006be0:	e778      	b.n	1a006ad4 <__ssvfiscanf_r+0x11c>
1a006be2:	9ba1      	ldr	r3, [sp, #644]	; 0x284
1a006be4:	4621      	mov	r1, r4
1a006be6:	4630      	mov	r0, r6
1a006be8:	4798      	blx	r3
1a006bea:	2800      	cmp	r0, #0
1a006bec:	f43f af72 	beq.w	1a006ad4 <__ssvfiscanf_r+0x11c>
1a006bf0:	e7b5      	b.n	1a006b5e <__ssvfiscanf_r+0x1a6>
1a006bf2:	2b04      	cmp	r3, #4
1a006bf4:	dc06      	bgt.n	1a006c04 <__ssvfiscanf_r+0x24c>
1a006bf6:	466b      	mov	r3, sp
1a006bf8:	4622      	mov	r2, r4
1a006bfa:	a941      	add	r1, sp, #260	; 0x104
1a006bfc:	4630      	mov	r0, r6
1a006bfe:	f000 fb57 	bl	1a0072b0 <_scanf_i>
1a006c02:	e776      	b.n	1a006af2 <__ssvfiscanf_r+0x13a>
1a006c04:	4b0f      	ldr	r3, [pc, #60]	; (1a006c44 <__ssvfiscanf_r+0x28c>)
1a006c06:	2b00      	cmp	r3, #0
1a006c08:	f43f af00 	beq.w	1a006a0c <__ssvfiscanf_r+0x54>
1a006c0c:	466b      	mov	r3, sp
1a006c0e:	4622      	mov	r2, r4
1a006c10:	a941      	add	r1, sp, #260	; 0x104
1a006c12:	4630      	mov	r0, r6
1a006c14:	f3af 8000 	nop.w
1a006c18:	e76b      	b.n	1a006af2 <__ssvfiscanf_r+0x13a>
1a006c1a:	89a3      	ldrh	r3, [r4, #12]
1a006c1c:	f013 0f40 	tst.w	r3, #64	; 0x40
1a006c20:	bf18      	it	ne
1a006c22:	f04f 30ff 	movne.w	r0, #4294967295
1a006c26:	f50d 7d23 	add.w	sp, sp, #652	; 0x28c
1a006c2a:	e8bd 8ff0 	ldmia.w	sp!, {r4, r5, r6, r7, r8, r9, sl, fp, pc}
1a006c2e:	9844      	ldr	r0, [sp, #272]	; 0x110
1a006c30:	e7f9      	b.n	1a006c26 <__ssvfiscanf_r+0x26e>
1a006c32:	bf00      	nop
1a006c34:	1a006905 	.word	0x1a006905
1a006c38:	1a00697f 	.word	0x1a00697f
1a006c3c:	1a007ca5 	.word	0x1a007ca5
1a006c40:	1a007f8a 	.word	0x1a007f8a
1a006c44:	00000000 	.word	0x00000000

1a006c48 <__sfputc_r>:
1a006c48:	6893      	ldr	r3, [r2, #8]
1a006c4a:	3b01      	subs	r3, #1
1a006c4c:	2b00      	cmp	r3, #0
1a006c4e:	b410      	push	{r4}
1a006c50:	6093      	str	r3, [r2, #8]
1a006c52:	da08      	bge.n	1a006c66 <__sfputc_r+0x1e>
1a006c54:	6994      	ldr	r4, [r2, #24]
1a006c56:	42a3      	cmp	r3, r4
1a006c58:	db01      	blt.n	1a006c5e <__sfputc_r+0x16>
1a006c5a:	290a      	cmp	r1, #10
1a006c5c:	d103      	bne.n	1a006c66 <__sfputc_r+0x1e>
1a006c5e:	f85d 4b04 	ldr.w	r4, [sp], #4
1a006c62:	f7fe baa9 	b.w	1a0051b8 <__swbuf_r>
1a006c66:	6813      	ldr	r3, [r2, #0]
1a006c68:	1c58      	adds	r0, r3, #1
1a006c6a:	6010      	str	r0, [r2, #0]
1a006c6c:	7019      	strb	r1, [r3, #0]
1a006c6e:	4608      	mov	r0, r1
1a006c70:	f85d 4b04 	ldr.w	r4, [sp], #4
1a006c74:	4770      	bx	lr

1a006c76 <__sfputs_r>:
1a006c76:	b5f8      	push	{r3, r4, r5, r6, r7, lr}
1a006c78:	4606      	mov	r6, r0
1a006c7a:	460f      	mov	r7, r1
1a006c7c:	4614      	mov	r4, r2
1a006c7e:	18d5      	adds	r5, r2, r3
1a006c80:	42ac      	cmp	r4, r5
1a006c82:	d101      	bne.n	1a006c88 <__sfputs_r+0x12>
1a006c84:	2000      	movs	r0, #0
1a006c86:	e007      	b.n	1a006c98 <__sfputs_r+0x22>
1a006c88:	463a      	mov	r2, r7
1a006c8a:	f814 1b01 	ldrb.w	r1, [r4], #1
1a006c8e:	4630      	mov	r0, r6
1a006c90:	f7ff ffda 	bl	1a006c48 <__sfputc_r>
1a006c94:	1c43      	adds	r3, r0, #1
1a006c96:	d1f3      	bne.n	1a006c80 <__sfputs_r+0xa>
1a006c98:	bdf8      	pop	{r3, r4, r5, r6, r7, pc}
1a006c9a:	Address 0x1a006c9a is out of bounds.


1a006c9c <_vfiprintf_r>:
1a006c9c:	e92d 4ff0 	stmdb	sp!, {r4, r5, r6, r7, r8, r9, sl, fp, lr}
1a006ca0:	460d      	mov	r5, r1
1a006ca2:	b09d      	sub	sp, #116	; 0x74
1a006ca4:	4614      	mov	r4, r2
1a006ca6:	461e      	mov	r6, r3
1a006ca8:	4607      	mov	r7, r0
1a006caa:	b118      	cbz	r0, 1a006cb4 <_vfiprintf_r+0x18>
1a006cac:	6983      	ldr	r3, [r0, #24]
1a006cae:	b90b      	cbnz	r3, 1a006cb4 <_vfiprintf_r+0x18>
1a006cb0:	f7fe fc5c 	bl	1a00556c <__sinit>
1a006cb4:	4b85      	ldr	r3, [pc, #532]	; (1a006ecc <_vfiprintf_r+0x230>)
1a006cb6:	429d      	cmp	r5, r3
1a006cb8:	d11b      	bne.n	1a006cf2 <_vfiprintf_r+0x56>
1a006cba:	687d      	ldr	r5, [r7, #4]
1a006cbc:	6e6b      	ldr	r3, [r5, #100]	; 0x64
1a006cbe:	07d9      	lsls	r1, r3, #31
1a006cc0:	d405      	bmi.n	1a006cce <_vfiprintf_r+0x32>
1a006cc2:	89ab      	ldrh	r3, [r5, #12]
1a006cc4:	059a      	lsls	r2, r3, #22
1a006cc6:	d402      	bmi.n	1a006cce <_vfiprintf_r+0x32>
1a006cc8:	6da8      	ldr	r0, [r5, #88]	; 0x58
1a006cca:	f7ff f816 	bl	1a005cfa <__retarget_lock_acquire_recursive>
1a006cce:	89ab      	ldrh	r3, [r5, #12]
1a006cd0:	071b      	lsls	r3, r3, #28
1a006cd2:	d501      	bpl.n	1a006cd8 <_vfiprintf_r+0x3c>
1a006cd4:	692b      	ldr	r3, [r5, #16]
1a006cd6:	b9eb      	cbnz	r3, 1a006d14 <_vfiprintf_r+0x78>
1a006cd8:	4629      	mov	r1, r5
1a006cda:	4638      	mov	r0, r7
1a006cdc:	f7fe fabe 	bl	1a00525c <__swsetup_r>
1a006ce0:	b1c0      	cbz	r0, 1a006d14 <_vfiprintf_r+0x78>
1a006ce2:	6e6b      	ldr	r3, [r5, #100]	; 0x64
1a006ce4:	07d8      	lsls	r0, r3, #31
1a006ce6:	d50e      	bpl.n	1a006d06 <_vfiprintf_r+0x6a>
1a006ce8:	f04f 30ff 	mov.w	r0, #4294967295
1a006cec:	b01d      	add	sp, #116	; 0x74
1a006cee:	e8bd 8ff0 	ldmia.w	sp!, {r4, r5, r6, r7, r8, r9, sl, fp, pc}
1a006cf2:	4b77      	ldr	r3, [pc, #476]	; (1a006ed0 <_vfiprintf_r+0x234>)
1a006cf4:	429d      	cmp	r5, r3
1a006cf6:	d101      	bne.n	1a006cfc <_vfiprintf_r+0x60>
1a006cf8:	68bd      	ldr	r5, [r7, #8]
1a006cfa:	e7df      	b.n	1a006cbc <_vfiprintf_r+0x20>
1a006cfc:	4b75      	ldr	r3, [pc, #468]	; (1a006ed4 <_vfiprintf_r+0x238>)
1a006cfe:	429d      	cmp	r5, r3
1a006d00:	bf08      	it	eq
1a006d02:	68fd      	ldreq	r5, [r7, #12]
1a006d04:	e7da      	b.n	1a006cbc <_vfiprintf_r+0x20>
1a006d06:	89ab      	ldrh	r3, [r5, #12]
1a006d08:	0599      	lsls	r1, r3, #22
1a006d0a:	d4ed      	bmi.n	1a006ce8 <_vfiprintf_r+0x4c>
1a006d0c:	6da8      	ldr	r0, [r5, #88]	; 0x58
1a006d0e:	f7fe fff5 	bl	1a005cfc <__retarget_lock_release_recursive>
1a006d12:	e7e9      	b.n	1a006ce8 <_vfiprintf_r+0x4c>
1a006d14:	2300      	movs	r3, #0
1a006d16:	9309      	str	r3, [sp, #36]	; 0x24
1a006d18:	2320      	movs	r3, #32
1a006d1a:	f88d 3029 	strb.w	r3, [sp, #41]	; 0x29
1a006d1e:	f8df 91b8 	ldr.w	r9, [pc, #440]	; 1a006ed8 <_vfiprintf_r+0x23c>
1a006d22:	9603      	str	r6, [sp, #12]
1a006d24:	2330      	movs	r3, #48	; 0x30
1a006d26:	f88d 302a 	strb.w	r3, [sp, #42]	; 0x2a
1a006d2a:	f04f 0a01 	mov.w	sl, #1
1a006d2e:	4623      	mov	r3, r4
1a006d30:	461e      	mov	r6, r3
1a006d32:	f813 2b01 	ldrb.w	r2, [r3], #1
1a006d36:	b10a      	cbz	r2, 1a006d3c <_vfiprintf_r+0xa0>
1a006d38:	2a25      	cmp	r2, #37	; 0x25
1a006d3a:	d1f9      	bne.n	1a006d30 <_vfiprintf_r+0x94>
1a006d3c:	ebb6 0b04 	subs.w	fp, r6, r4
1a006d40:	d00b      	beq.n	1a006d5a <_vfiprintf_r+0xbe>
1a006d42:	465b      	mov	r3, fp
1a006d44:	4622      	mov	r2, r4
1a006d46:	4629      	mov	r1, r5
1a006d48:	4638      	mov	r0, r7
1a006d4a:	f7ff ff94 	bl	1a006c76 <__sfputs_r>
1a006d4e:	3001      	adds	r0, #1
1a006d50:	f000 80a3 	beq.w	1a006e9a <_vfiprintf_r+0x1fe>
1a006d54:	9b09      	ldr	r3, [sp, #36]	; 0x24
1a006d56:	445b      	add	r3, fp
1a006d58:	9309      	str	r3, [sp, #36]	; 0x24
1a006d5a:	7833      	ldrb	r3, [r6, #0]
1a006d5c:	2b00      	cmp	r3, #0
1a006d5e:	f000 809c 	beq.w	1a006e9a <_vfiprintf_r+0x1fe>
1a006d62:	2300      	movs	r3, #0
1a006d64:	f04f 32ff 	mov.w	r2, #4294967295
1a006d68:	e9cd 2305 	strd	r2, r3, [sp, #20]
1a006d6c:	3601      	adds	r6, #1
1a006d6e:	9304      	str	r3, [sp, #16]
1a006d70:	9307      	str	r3, [sp, #28]
1a006d72:	f88d 3053 	strb.w	r3, [sp, #83]	; 0x53
1a006d76:	931a      	str	r3, [sp, #104]	; 0x68
1a006d78:	4634      	mov	r4, r6
1a006d7a:	2205      	movs	r2, #5
1a006d7c:	f814 1b01 	ldrb.w	r1, [r4], #1
1a006d80:	4855      	ldr	r0, [pc, #340]	; (1a006ed8 <_vfiprintf_r+0x23c>)
1a006d82:	f000 fcfd 	bl	1a007780 <memchr>
1a006d86:	9b04      	ldr	r3, [sp, #16]
1a006d88:	b9c0      	cbnz	r0, 1a006dbc <_vfiprintf_r+0x120>
1a006d8a:	06da      	lsls	r2, r3, #27
1a006d8c:	bf44      	itt	mi
1a006d8e:	2220      	movmi	r2, #32
1a006d90:	f88d 2053 	strbmi.w	r2, [sp, #83]	; 0x53
1a006d94:	0718      	lsls	r0, r3, #28
1a006d96:	bf44      	itt	mi
1a006d98:	222b      	movmi	r2, #43	; 0x2b
1a006d9a:	f88d 2053 	strbmi.w	r2, [sp, #83]	; 0x53
1a006d9e:	7832      	ldrb	r2, [r6, #0]
1a006da0:	2a2a      	cmp	r2, #42	; 0x2a
1a006da2:	d013      	beq.n	1a006dcc <_vfiprintf_r+0x130>
1a006da4:	9a07      	ldr	r2, [sp, #28]
1a006da6:	4634      	mov	r4, r6
1a006da8:	2000      	movs	r0, #0
1a006daa:	260a      	movs	r6, #10
1a006dac:	4621      	mov	r1, r4
1a006dae:	f811 3b01 	ldrb.w	r3, [r1], #1
1a006db2:	3b30      	subs	r3, #48	; 0x30
1a006db4:	2b09      	cmp	r3, #9
1a006db6:	d94b      	bls.n	1a006e50 <_vfiprintf_r+0x1b4>
1a006db8:	b970      	cbnz	r0, 1a006dd8 <_vfiprintf_r+0x13c>
1a006dba:	e014      	b.n	1a006de6 <_vfiprintf_r+0x14a>
1a006dbc:	eba0 0009 	sub.w	r0, r0, r9
1a006dc0:	fa0a f000 	lsl.w	r0, sl, r0
1a006dc4:	4318      	orrs	r0, r3
1a006dc6:	9004      	str	r0, [sp, #16]
1a006dc8:	4626      	mov	r6, r4
1a006dca:	e7d5      	b.n	1a006d78 <_vfiprintf_r+0xdc>
1a006dcc:	9a03      	ldr	r2, [sp, #12]
1a006dce:	1d11      	adds	r1, r2, #4
1a006dd0:	6812      	ldr	r2, [r2, #0]
1a006dd2:	9103      	str	r1, [sp, #12]
1a006dd4:	2a00      	cmp	r2, #0
1a006dd6:	db01      	blt.n	1a006ddc <_vfiprintf_r+0x140>
1a006dd8:	9207      	str	r2, [sp, #28]
1a006dda:	e004      	b.n	1a006de6 <_vfiprintf_r+0x14a>
1a006ddc:	4252      	negs	r2, r2
1a006dde:	f043 0302 	orr.w	r3, r3, #2
1a006de2:	9207      	str	r2, [sp, #28]
1a006de4:	9304      	str	r3, [sp, #16]
1a006de6:	7823      	ldrb	r3, [r4, #0]
1a006de8:	2b2e      	cmp	r3, #46	; 0x2e
1a006dea:	d10c      	bne.n	1a006e06 <_vfiprintf_r+0x16a>
1a006dec:	7863      	ldrb	r3, [r4, #1]
1a006dee:	2b2a      	cmp	r3, #42	; 0x2a
1a006df0:	d133      	bne.n	1a006e5a <_vfiprintf_r+0x1be>
1a006df2:	9b03      	ldr	r3, [sp, #12]
1a006df4:	1d1a      	adds	r2, r3, #4
1a006df6:	681b      	ldr	r3, [r3, #0]
1a006df8:	9203      	str	r2, [sp, #12]
1a006dfa:	2b00      	cmp	r3, #0
1a006dfc:	bfb8      	it	lt
1a006dfe:	f04f 33ff 	movlt.w	r3, #4294967295
1a006e02:	3402      	adds	r4, #2
1a006e04:	9305      	str	r3, [sp, #20]
1a006e06:	4e35      	ldr	r6, [pc, #212]	; (1a006edc <_vfiprintf_r+0x240>)
1a006e08:	7821      	ldrb	r1, [r4, #0]
1a006e0a:	2203      	movs	r2, #3
1a006e0c:	4630      	mov	r0, r6
1a006e0e:	f000 fcb7 	bl	1a007780 <memchr>
1a006e12:	b138      	cbz	r0, 1a006e24 <_vfiprintf_r+0x188>
1a006e14:	2340      	movs	r3, #64	; 0x40
1a006e16:	1b80      	subs	r0, r0, r6
1a006e18:	fa03 f000 	lsl.w	r0, r3, r0
1a006e1c:	9b04      	ldr	r3, [sp, #16]
1a006e1e:	4303      	orrs	r3, r0
1a006e20:	3401      	adds	r4, #1
1a006e22:	9304      	str	r3, [sp, #16]
1a006e24:	f814 1b01 	ldrb.w	r1, [r4], #1
1a006e28:	482d      	ldr	r0, [pc, #180]	; (1a006ee0 <_vfiprintf_r+0x244>)
1a006e2a:	f88d 1028 	strb.w	r1, [sp, #40]	; 0x28
1a006e2e:	2206      	movs	r2, #6
1a006e30:	f000 fca6 	bl	1a007780 <memchr>
1a006e34:	2800      	cmp	r0, #0
1a006e36:	d03f      	beq.n	1a006eb8 <_vfiprintf_r+0x21c>
1a006e38:	4b2a      	ldr	r3, [pc, #168]	; (1a006ee4 <_vfiprintf_r+0x248>)
1a006e3a:	bb13      	cbnz	r3, 1a006e82 <_vfiprintf_r+0x1e6>
1a006e3c:	9b03      	ldr	r3, [sp, #12]
1a006e3e:	3307      	adds	r3, #7
1a006e40:	f023 0307 	bic.w	r3, r3, #7
1a006e44:	3308      	adds	r3, #8
1a006e46:	9303      	str	r3, [sp, #12]
1a006e48:	9b09      	ldr	r3, [sp, #36]	; 0x24
1a006e4a:	4443      	add	r3, r8
1a006e4c:	9309      	str	r3, [sp, #36]	; 0x24
1a006e4e:	e76e      	b.n	1a006d2e <_vfiprintf_r+0x92>
1a006e50:	fb06 3202 	mla	r2, r6, r2, r3
1a006e54:	2001      	movs	r0, #1
1a006e56:	460c      	mov	r4, r1
1a006e58:	e7a8      	b.n	1a006dac <_vfiprintf_r+0x110>
1a006e5a:	2300      	movs	r3, #0
1a006e5c:	3401      	adds	r4, #1
1a006e5e:	9305      	str	r3, [sp, #20]
1a006e60:	4619      	mov	r1, r3
1a006e62:	260a      	movs	r6, #10
1a006e64:	4620      	mov	r0, r4
1a006e66:	f810 2b01 	ldrb.w	r2, [r0], #1
1a006e6a:	3a30      	subs	r2, #48	; 0x30
1a006e6c:	2a09      	cmp	r2, #9
1a006e6e:	d903      	bls.n	1a006e78 <_vfiprintf_r+0x1dc>
1a006e70:	2b00      	cmp	r3, #0
1a006e72:	d0c8      	beq.n	1a006e06 <_vfiprintf_r+0x16a>
1a006e74:	9105      	str	r1, [sp, #20]
1a006e76:	e7c6      	b.n	1a006e06 <_vfiprintf_r+0x16a>
1a006e78:	fb06 2101 	mla	r1, r6, r1, r2
1a006e7c:	2301      	movs	r3, #1
1a006e7e:	4604      	mov	r4, r0
1a006e80:	e7f0      	b.n	1a006e64 <_vfiprintf_r+0x1c8>
1a006e82:	ab03      	add	r3, sp, #12
1a006e84:	9300      	str	r3, [sp, #0]
1a006e86:	462a      	mov	r2, r5
1a006e88:	4b17      	ldr	r3, [pc, #92]	; (1a006ee8 <_vfiprintf_r+0x24c>)
1a006e8a:	a904      	add	r1, sp, #16
1a006e8c:	4638      	mov	r0, r7
1a006e8e:	f3af 8000 	nop.w
1a006e92:	f1b0 3fff 	cmp.w	r0, #4294967295
1a006e96:	4680      	mov	r8, r0
1a006e98:	d1d6      	bne.n	1a006e48 <_vfiprintf_r+0x1ac>
1a006e9a:	6e6b      	ldr	r3, [r5, #100]	; 0x64
1a006e9c:	07d9      	lsls	r1, r3, #31
1a006e9e:	d405      	bmi.n	1a006eac <_vfiprintf_r+0x210>
1a006ea0:	89ab      	ldrh	r3, [r5, #12]
1a006ea2:	059a      	lsls	r2, r3, #22
1a006ea4:	d402      	bmi.n	1a006eac <_vfiprintf_r+0x210>
1a006ea6:	6da8      	ldr	r0, [r5, #88]	; 0x58
1a006ea8:	f7fe ff28 	bl	1a005cfc <__retarget_lock_release_recursive>
1a006eac:	89ab      	ldrh	r3, [r5, #12]
1a006eae:	065b      	lsls	r3, r3, #25
1a006eb0:	f53f af1a 	bmi.w	1a006ce8 <_vfiprintf_r+0x4c>
1a006eb4:	9809      	ldr	r0, [sp, #36]	; 0x24
1a006eb6:	e719      	b.n	1a006cec <_vfiprintf_r+0x50>
1a006eb8:	ab03      	add	r3, sp, #12
1a006eba:	9300      	str	r3, [sp, #0]
1a006ebc:	462a      	mov	r2, r5
1a006ebe:	4b0a      	ldr	r3, [pc, #40]	; (1a006ee8 <_vfiprintf_r+0x24c>)
1a006ec0:	a904      	add	r1, sp, #16
1a006ec2:	4638      	mov	r0, r7
1a006ec4:	f000 f888 	bl	1a006fd8 <_printf_i>
1a006ec8:	e7e3      	b.n	1a006e92 <_vfiprintf_r+0x1f6>
1a006eca:	bf00      	nop
1a006ecc:	1a007e28 	.word	0x1a007e28
1a006ed0:	1a007e48 	.word	0x1a007e48
1a006ed4:	1a007e08 	.word	0x1a007e08
1a006ed8:	1a007f84 	.word	0x1a007f84
1a006edc:	1a007f8a 	.word	0x1a007f8a
1a006ee0:	1a007f8e 	.word	0x1a007f8e
1a006ee4:	00000000 	.word	0x00000000
1a006ee8:	1a006c77 	.word	0x1a006c77

1a006eec <_printf_common>:
1a006eec:	e92d 47f0 	stmdb	sp!, {r4, r5, r6, r7, r8, r9, sl, lr}
1a006ef0:	4691      	mov	r9, r2
1a006ef2:	461f      	mov	r7, r3
1a006ef4:	688a      	ldr	r2, [r1, #8]
1a006ef6:	690b      	ldr	r3, [r1, #16]
1a006ef8:	f8dd 8020 	ldr.w	r8, [sp, #32]
1a006efc:	4293      	cmp	r3, r2
1a006efe:	bfb8      	it	lt
1a006f00:	4613      	movlt	r3, r2
1a006f02:	f8c9 3000 	str.w	r3, [r9]
1a006f06:	f891 2043 	ldrb.w	r2, [r1, #67]	; 0x43
1a006f0a:	4606      	mov	r6, r0
1a006f0c:	460c      	mov	r4, r1
1a006f0e:	b112      	cbz	r2, 1a006f16 <_printf_common+0x2a>
1a006f10:	3301      	adds	r3, #1
1a006f12:	f8c9 3000 	str.w	r3, [r9]
1a006f16:	6823      	ldr	r3, [r4, #0]
1a006f18:	0699      	lsls	r1, r3, #26
1a006f1a:	bf42      	ittt	mi
1a006f1c:	f8d9 3000 	ldrmi.w	r3, [r9]
1a006f20:	3302      	addmi	r3, #2
1a006f22:	f8c9 3000 	strmi.w	r3, [r9]
1a006f26:	6825      	ldr	r5, [r4, #0]
1a006f28:	f015 0506 	ands.w	r5, r5, #6
1a006f2c:	d107      	bne.n	1a006f3e <_printf_common+0x52>
1a006f2e:	f104 0a19 	add.w	sl, r4, #25
1a006f32:	68e3      	ldr	r3, [r4, #12]
1a006f34:	f8d9 2000 	ldr.w	r2, [r9]
1a006f38:	1a9b      	subs	r3, r3, r2
1a006f3a:	42ab      	cmp	r3, r5
1a006f3c:	dc28      	bgt.n	1a006f90 <_printf_common+0xa4>
1a006f3e:	f894 3043 	ldrb.w	r3, [r4, #67]	; 0x43
1a006f42:	6822      	ldr	r2, [r4, #0]
1a006f44:	3300      	adds	r3, #0
1a006f46:	bf18      	it	ne
1a006f48:	2301      	movne	r3, #1
1a006f4a:	0692      	lsls	r2, r2, #26
1a006f4c:	d42d      	bmi.n	1a006faa <_printf_common+0xbe>
1a006f4e:	f104 0243 	add.w	r2, r4, #67	; 0x43
1a006f52:	4639      	mov	r1, r7
1a006f54:	4630      	mov	r0, r6
1a006f56:	47c0      	blx	r8
1a006f58:	3001      	adds	r0, #1
1a006f5a:	d020      	beq.n	1a006f9e <_printf_common+0xb2>
1a006f5c:	6823      	ldr	r3, [r4, #0]
1a006f5e:	68e5      	ldr	r5, [r4, #12]
1a006f60:	f8d9 2000 	ldr.w	r2, [r9]
1a006f64:	f003 0306 	and.w	r3, r3, #6
1a006f68:	2b04      	cmp	r3, #4
1a006f6a:	bf08      	it	eq
1a006f6c:	1aad      	subeq	r5, r5, r2
1a006f6e:	68a3      	ldr	r3, [r4, #8]
1a006f70:	6922      	ldr	r2, [r4, #16]
1a006f72:	bf0c      	ite	eq
1a006f74:	ea25 75e5 	biceq.w	r5, r5, r5, asr #31
1a006f78:	2500      	movne	r5, #0
1a006f7a:	4293      	cmp	r3, r2
1a006f7c:	bfc4      	itt	gt
1a006f7e:	1a9b      	subgt	r3, r3, r2
1a006f80:	18ed      	addgt	r5, r5, r3
1a006f82:	f04f 0900 	mov.w	r9, #0
1a006f86:	341a      	adds	r4, #26
1a006f88:	454d      	cmp	r5, r9
1a006f8a:	d11a      	bne.n	1a006fc2 <_printf_common+0xd6>
1a006f8c:	2000      	movs	r0, #0
1a006f8e:	e008      	b.n	1a006fa2 <_printf_common+0xb6>
1a006f90:	2301      	movs	r3, #1
1a006f92:	4652      	mov	r2, sl
1a006f94:	4639      	mov	r1, r7
1a006f96:	4630      	mov	r0, r6
1a006f98:	47c0      	blx	r8
1a006f9a:	3001      	adds	r0, #1
1a006f9c:	d103      	bne.n	1a006fa6 <_printf_common+0xba>
1a006f9e:	f04f 30ff 	mov.w	r0, #4294967295
1a006fa2:	e8bd 87f0 	ldmia.w	sp!, {r4, r5, r6, r7, r8, r9, sl, pc}
1a006fa6:	3501      	adds	r5, #1
1a006fa8:	e7c3      	b.n	1a006f32 <_printf_common+0x46>
1a006faa:	18e1      	adds	r1, r4, r3
1a006fac:	1c5a      	adds	r2, r3, #1
1a006fae:	2030      	movs	r0, #48	; 0x30
1a006fb0:	f881 0043 	strb.w	r0, [r1, #67]	; 0x43
1a006fb4:	4422      	add	r2, r4
1a006fb6:	f894 1045 	ldrb.w	r1, [r4, #69]	; 0x45
1a006fba:	f882 1043 	strb.w	r1, [r2, #67]	; 0x43
1a006fbe:	3302      	adds	r3, #2
1a006fc0:	e7c5      	b.n	1a006f4e <_printf_common+0x62>
1a006fc2:	2301      	movs	r3, #1
1a006fc4:	4622      	mov	r2, r4
1a006fc6:	4639      	mov	r1, r7
1a006fc8:	4630      	mov	r0, r6
1a006fca:	47c0      	blx	r8
1a006fcc:	3001      	adds	r0, #1
1a006fce:	d0e6      	beq.n	1a006f9e <_printf_common+0xb2>
1a006fd0:	f109 0901 	add.w	r9, r9, #1
1a006fd4:	e7d8      	b.n	1a006f88 <_printf_common+0x9c>
1a006fd6:	Address 0x1a006fd6 is out of bounds.


1a006fd8 <_printf_i>:
1a006fd8:	e92d 43f0 	stmdb	sp!, {r4, r5, r6, r7, r8, r9, lr}
1a006fdc:	4606      	mov	r6, r0
1a006fde:	460c      	mov	r4, r1
1a006fe0:	f101 0043 	add.w	r0, r1, #67	; 0x43
1a006fe4:	7e09      	ldrb	r1, [r1, #24]
1a006fe6:	b085      	sub	sp, #20
1a006fe8:	296e      	cmp	r1, #110	; 0x6e
1a006fea:	4698      	mov	r8, r3
1a006fec:	4617      	mov	r7, r2
1a006fee:	9b0c      	ldr	r3, [sp, #48]	; 0x30
1a006ff0:	f000 80ba 	beq.w	1a007168 <_printf_i+0x190>
1a006ff4:	d824      	bhi.n	1a007040 <_printf_i+0x68>
1a006ff6:	2963      	cmp	r1, #99	; 0x63
1a006ff8:	d039      	beq.n	1a00706e <_printf_i+0x96>
1a006ffa:	d80a      	bhi.n	1a007012 <_printf_i+0x3a>
1a006ffc:	2900      	cmp	r1, #0
1a006ffe:	f000 80c3 	beq.w	1a007188 <_printf_i+0x1b0>
1a007002:	2958      	cmp	r1, #88	; 0x58
1a007004:	f000 8091 	beq.w	1a00712a <_printf_i+0x152>
1a007008:	f104 0542 	add.w	r5, r4, #66	; 0x42
1a00700c:	f884 1042 	strb.w	r1, [r4, #66]	; 0x42
1a007010:	e035      	b.n	1a00707e <_printf_i+0xa6>
1a007012:	2964      	cmp	r1, #100	; 0x64
1a007014:	d001      	beq.n	1a00701a <_printf_i+0x42>
1a007016:	2969      	cmp	r1, #105	; 0x69
1a007018:	d1f6      	bne.n	1a007008 <_printf_i+0x30>
1a00701a:	6825      	ldr	r5, [r4, #0]
1a00701c:	681a      	ldr	r2, [r3, #0]
1a00701e:	f015 0f80 	tst.w	r5, #128	; 0x80
1a007022:	f102 0104 	add.w	r1, r2, #4
1a007026:	d02c      	beq.n	1a007082 <_printf_i+0xaa>
1a007028:	6812      	ldr	r2, [r2, #0]
1a00702a:	6019      	str	r1, [r3, #0]
1a00702c:	2a00      	cmp	r2, #0
1a00702e:	da03      	bge.n	1a007038 <_printf_i+0x60>
1a007030:	232d      	movs	r3, #45	; 0x2d
1a007032:	4252      	negs	r2, r2
1a007034:	f884 3043 	strb.w	r3, [r4, #67]	; 0x43
1a007038:	f8df c1bc 	ldr.w	ip, [pc, #444]	; 1a0071f8 <_printf_i+0x220>
1a00703c:	230a      	movs	r3, #10
1a00703e:	e03f      	b.n	1a0070c0 <_printf_i+0xe8>
1a007040:	2973      	cmp	r1, #115	; 0x73
1a007042:	f000 80a5 	beq.w	1a007190 <_printf_i+0x1b8>
1a007046:	d808      	bhi.n	1a00705a <_printf_i+0x82>
1a007048:	296f      	cmp	r1, #111	; 0x6f
1a00704a:	d021      	beq.n	1a007090 <_printf_i+0xb8>
1a00704c:	2970      	cmp	r1, #112	; 0x70
1a00704e:	d1db      	bne.n	1a007008 <_printf_i+0x30>
1a007050:	6822      	ldr	r2, [r4, #0]
1a007052:	f042 0220 	orr.w	r2, r2, #32
1a007056:	6022      	str	r2, [r4, #0]
1a007058:	e003      	b.n	1a007062 <_printf_i+0x8a>
1a00705a:	2975      	cmp	r1, #117	; 0x75
1a00705c:	d018      	beq.n	1a007090 <_printf_i+0xb8>
1a00705e:	2978      	cmp	r1, #120	; 0x78
1a007060:	d1d2      	bne.n	1a007008 <_printf_i+0x30>
1a007062:	2278      	movs	r2, #120	; 0x78
1a007064:	f884 2045 	strb.w	r2, [r4, #69]	; 0x45
1a007068:	f8df c190 	ldr.w	ip, [pc, #400]	; 1a0071fc <_printf_i+0x224>
1a00706c:	e061      	b.n	1a007132 <_printf_i+0x15a>
1a00706e:	681a      	ldr	r2, [r3, #0]
1a007070:	1d11      	adds	r1, r2, #4
1a007072:	6019      	str	r1, [r3, #0]
1a007074:	6813      	ldr	r3, [r2, #0]
1a007076:	f884 3042 	strb.w	r3, [r4, #66]	; 0x42
1a00707a:	f104 0542 	add.w	r5, r4, #66	; 0x42
1a00707e:	2301      	movs	r3, #1
1a007080:	e093      	b.n	1a0071aa <_printf_i+0x1d2>
1a007082:	6812      	ldr	r2, [r2, #0]
1a007084:	6019      	str	r1, [r3, #0]
1a007086:	f015 0f40 	tst.w	r5, #64	; 0x40
1a00708a:	bf18      	it	ne
1a00708c:	b212      	sxthne	r2, r2
1a00708e:	e7cd      	b.n	1a00702c <_printf_i+0x54>
1a007090:	f8d4 c000 	ldr.w	ip, [r4]
1a007094:	681a      	ldr	r2, [r3, #0]
1a007096:	f01c 0f80 	tst.w	ip, #128	; 0x80
1a00709a:	f102 0504 	add.w	r5, r2, #4
1a00709e:	601d      	str	r5, [r3, #0]
1a0070a0:	d001      	beq.n	1a0070a6 <_printf_i+0xce>
1a0070a2:	6812      	ldr	r2, [r2, #0]
1a0070a4:	e003      	b.n	1a0070ae <_printf_i+0xd6>
1a0070a6:	f01c 0f40 	tst.w	ip, #64	; 0x40
1a0070aa:	d0fa      	beq.n	1a0070a2 <_printf_i+0xca>
1a0070ac:	8812      	ldrh	r2, [r2, #0]
1a0070ae:	f8df c148 	ldr.w	ip, [pc, #328]	; 1a0071f8 <_printf_i+0x220>
1a0070b2:	296f      	cmp	r1, #111	; 0x6f
1a0070b4:	bf0c      	ite	eq
1a0070b6:	2308      	moveq	r3, #8
1a0070b8:	230a      	movne	r3, #10
1a0070ba:	2100      	movs	r1, #0
1a0070bc:	f884 1043 	strb.w	r1, [r4, #67]	; 0x43
1a0070c0:	6865      	ldr	r5, [r4, #4]
1a0070c2:	60a5      	str	r5, [r4, #8]
1a0070c4:	2d00      	cmp	r5, #0
1a0070c6:	bfa2      	ittt	ge
1a0070c8:	6821      	ldrge	r1, [r4, #0]
1a0070ca:	f021 0104 	bicge.w	r1, r1, #4
1a0070ce:	6021      	strge	r1, [r4, #0]
1a0070d0:	b90a      	cbnz	r2, 1a0070d6 <_printf_i+0xfe>
1a0070d2:	2d00      	cmp	r5, #0
1a0070d4:	d046      	beq.n	1a007164 <_printf_i+0x18c>
1a0070d6:	4605      	mov	r5, r0
1a0070d8:	fbb2 f1f3 	udiv	r1, r2, r3
1a0070dc:	fb03 2e11 	mls	lr, r3, r1, r2
1a0070e0:	4293      	cmp	r3, r2
1a0070e2:	f81c e00e 	ldrb.w	lr, [ip, lr]
1a0070e6:	f805 ed01 	strb.w	lr, [r5, #-1]!
1a0070ea:	d939      	bls.n	1a007160 <_printf_i+0x188>
1a0070ec:	2b08      	cmp	r3, #8
1a0070ee:	d10b      	bne.n	1a007108 <_printf_i+0x130>
1a0070f0:	6823      	ldr	r3, [r4, #0]
1a0070f2:	07da      	lsls	r2, r3, #31
1a0070f4:	d508      	bpl.n	1a007108 <_printf_i+0x130>
1a0070f6:	6923      	ldr	r3, [r4, #16]
1a0070f8:	6862      	ldr	r2, [r4, #4]
1a0070fa:	429a      	cmp	r2, r3
1a0070fc:	bfde      	ittt	le
1a0070fe:	2330      	movle	r3, #48	; 0x30
1a007100:	f805 3c01 	strble.w	r3, [r5, #-1]
1a007104:	f105 35ff 	addle.w	r5, r5, #4294967295
1a007108:	1b40      	subs	r0, r0, r5
1a00710a:	6120      	str	r0, [r4, #16]
1a00710c:	f8cd 8000 	str.w	r8, [sp]
1a007110:	463b      	mov	r3, r7
1a007112:	aa03      	add	r2, sp, #12
1a007114:	4621      	mov	r1, r4
1a007116:	4630      	mov	r0, r6
1a007118:	f7ff fee8 	bl	1a006eec <_printf_common>
1a00711c:	3001      	adds	r0, #1
1a00711e:	d149      	bne.n	1a0071b4 <_printf_i+0x1dc>
1a007120:	f04f 30ff 	mov.w	r0, #4294967295
1a007124:	b005      	add	sp, #20
1a007126:	e8bd 83f0 	ldmia.w	sp!, {r4, r5, r6, r7, r8, r9, pc}
1a00712a:	f8df c0cc 	ldr.w	ip, [pc, #204]	; 1a0071f8 <_printf_i+0x220>
1a00712e:	f884 1045 	strb.w	r1, [r4, #69]	; 0x45
1a007132:	681d      	ldr	r5, [r3, #0]
1a007134:	6821      	ldr	r1, [r4, #0]
1a007136:	f855 2b04 	ldr.w	r2, [r5], #4
1a00713a:	601d      	str	r5, [r3, #0]
1a00713c:	060d      	lsls	r5, r1, #24
1a00713e:	d50b      	bpl.n	1a007158 <_printf_i+0x180>
1a007140:	07cd      	lsls	r5, r1, #31
1a007142:	bf44      	itt	mi
1a007144:	f041 0120 	orrmi.w	r1, r1, #32
1a007148:	6021      	strmi	r1, [r4, #0]
1a00714a:	b91a      	cbnz	r2, 1a007154 <_printf_i+0x17c>
1a00714c:	6823      	ldr	r3, [r4, #0]
1a00714e:	f023 0320 	bic.w	r3, r3, #32
1a007152:	6023      	str	r3, [r4, #0]
1a007154:	2310      	movs	r3, #16
1a007156:	e7b0      	b.n	1a0070ba <_printf_i+0xe2>
1a007158:	064b      	lsls	r3, r1, #25
1a00715a:	bf48      	it	mi
1a00715c:	b292      	uxthmi	r2, r2
1a00715e:	e7ef      	b.n	1a007140 <_printf_i+0x168>
1a007160:	460a      	mov	r2, r1
1a007162:	e7b9      	b.n	1a0070d8 <_printf_i+0x100>
1a007164:	4605      	mov	r5, r0
1a007166:	e7c1      	b.n	1a0070ec <_printf_i+0x114>
1a007168:	681a      	ldr	r2, [r3, #0]
1a00716a:	f8d4 c000 	ldr.w	ip, [r4]
1a00716e:	6961      	ldr	r1, [r4, #20]
1a007170:	1d15      	adds	r5, r2, #4
1a007172:	601d      	str	r5, [r3, #0]
1a007174:	f01c 0f80 	tst.w	ip, #128	; 0x80
1a007178:	6813      	ldr	r3, [r2, #0]
1a00717a:	d001      	beq.n	1a007180 <_printf_i+0x1a8>
1a00717c:	6019      	str	r1, [r3, #0]
1a00717e:	e003      	b.n	1a007188 <_printf_i+0x1b0>
1a007180:	f01c 0f40 	tst.w	ip, #64	; 0x40
1a007184:	d0fa      	beq.n	1a00717c <_printf_i+0x1a4>
1a007186:	8019      	strh	r1, [r3, #0]
1a007188:	2300      	movs	r3, #0
1a00718a:	6123      	str	r3, [r4, #16]
1a00718c:	4605      	mov	r5, r0
1a00718e:	e7bd      	b.n	1a00710c <_printf_i+0x134>
1a007190:	681a      	ldr	r2, [r3, #0]
1a007192:	1d11      	adds	r1, r2, #4
1a007194:	6019      	str	r1, [r3, #0]
1a007196:	6815      	ldr	r5, [r2, #0]
1a007198:	6862      	ldr	r2, [r4, #4]
1a00719a:	2100      	movs	r1, #0
1a00719c:	4628      	mov	r0, r5
1a00719e:	f000 faef 	bl	1a007780 <memchr>
1a0071a2:	b108      	cbz	r0, 1a0071a8 <_printf_i+0x1d0>
1a0071a4:	1b40      	subs	r0, r0, r5
1a0071a6:	6060      	str	r0, [r4, #4]
1a0071a8:	6863      	ldr	r3, [r4, #4]
1a0071aa:	6123      	str	r3, [r4, #16]
1a0071ac:	2300      	movs	r3, #0
1a0071ae:	f884 3043 	strb.w	r3, [r4, #67]	; 0x43
1a0071b2:	e7ab      	b.n	1a00710c <_printf_i+0x134>
1a0071b4:	6923      	ldr	r3, [r4, #16]
1a0071b6:	462a      	mov	r2, r5
1a0071b8:	4639      	mov	r1, r7
1a0071ba:	4630      	mov	r0, r6
1a0071bc:	47c0      	blx	r8
1a0071be:	3001      	adds	r0, #1
1a0071c0:	d0ae      	beq.n	1a007120 <_printf_i+0x148>
1a0071c2:	6823      	ldr	r3, [r4, #0]
1a0071c4:	079b      	lsls	r3, r3, #30
1a0071c6:	d413      	bmi.n	1a0071f0 <_printf_i+0x218>
1a0071c8:	68e0      	ldr	r0, [r4, #12]
1a0071ca:	9b03      	ldr	r3, [sp, #12]
1a0071cc:	4298      	cmp	r0, r3
1a0071ce:	bfb8      	it	lt
1a0071d0:	4618      	movlt	r0, r3
1a0071d2:	e7a7      	b.n	1a007124 <_printf_i+0x14c>
1a0071d4:	2301      	movs	r3, #1
1a0071d6:	464a      	mov	r2, r9
1a0071d8:	4639      	mov	r1, r7
1a0071da:	4630      	mov	r0, r6
1a0071dc:	47c0      	blx	r8
1a0071de:	3001      	adds	r0, #1
1a0071e0:	d09e      	beq.n	1a007120 <_printf_i+0x148>
1a0071e2:	3501      	adds	r5, #1
1a0071e4:	68e3      	ldr	r3, [r4, #12]
1a0071e6:	9a03      	ldr	r2, [sp, #12]
1a0071e8:	1a9b      	subs	r3, r3, r2
1a0071ea:	42ab      	cmp	r3, r5
1a0071ec:	dcf2      	bgt.n	1a0071d4 <_printf_i+0x1fc>
1a0071ee:	e7eb      	b.n	1a0071c8 <_printf_i+0x1f0>
1a0071f0:	2500      	movs	r5, #0
1a0071f2:	f104 0919 	add.w	r9, r4, #25
1a0071f6:	e7f5      	b.n	1a0071e4 <_printf_i+0x20c>
1a0071f8:	1a007f95 	.word	0x1a007f95
1a0071fc:	1a007fa6 	.word	0x1a007fa6

1a007200 <_scanf_chars>:
1a007200:	e92d 43f8 	stmdb	sp!, {r3, r4, r5, r6, r7, r8, r9, lr}
1a007204:	4615      	mov	r5, r2
1a007206:	688a      	ldr	r2, [r1, #8]
1a007208:	4680      	mov	r8, r0
1a00720a:	460c      	mov	r4, r1
1a00720c:	b932      	cbnz	r2, 1a00721c <_scanf_chars+0x1c>
1a00720e:	698a      	ldr	r2, [r1, #24]
1a007210:	2a00      	cmp	r2, #0
1a007212:	bf0c      	ite	eq
1a007214:	2201      	moveq	r2, #1
1a007216:	f04f 32ff 	movne.w	r2, #4294967295
1a00721a:	608a      	str	r2, [r1, #8]
1a00721c:	6822      	ldr	r2, [r4, #0]
1a00721e:	f8df 908c 	ldr.w	r9, [pc, #140]	; 1a0072ac <_scanf_chars+0xac>
1a007222:	06d1      	lsls	r1, r2, #27
1a007224:	bf5f      	itttt	pl
1a007226:	681a      	ldrpl	r2, [r3, #0]
1a007228:	1d11      	addpl	r1, r2, #4
1a00722a:	6019      	strpl	r1, [r3, #0]
1a00722c:	6816      	ldrpl	r6, [r2, #0]
1a00722e:	2700      	movs	r7, #0
1a007230:	69a0      	ldr	r0, [r4, #24]
1a007232:	b188      	cbz	r0, 1a007258 <_scanf_chars+0x58>
1a007234:	2801      	cmp	r0, #1
1a007236:	d107      	bne.n	1a007248 <_scanf_chars+0x48>
1a007238:	682b      	ldr	r3, [r5, #0]
1a00723a:	781a      	ldrb	r2, [r3, #0]
1a00723c:	6963      	ldr	r3, [r4, #20]
1a00723e:	5c9b      	ldrb	r3, [r3, r2]
1a007240:	b953      	cbnz	r3, 1a007258 <_scanf_chars+0x58>
1a007242:	bb27      	cbnz	r7, 1a00728e <_scanf_chars+0x8e>
1a007244:	e8bd 83f8 	ldmia.w	sp!, {r3, r4, r5, r6, r7, r8, r9, pc}
1a007248:	2802      	cmp	r0, #2
1a00724a:	d120      	bne.n	1a00728e <_scanf_chars+0x8e>
1a00724c:	682b      	ldr	r3, [r5, #0]
1a00724e:	781b      	ldrb	r3, [r3, #0]
1a007250:	f813 3009 	ldrb.w	r3, [r3, r9]
1a007254:	071b      	lsls	r3, r3, #28
1a007256:	d41a      	bmi.n	1a00728e <_scanf_chars+0x8e>
1a007258:	6823      	ldr	r3, [r4, #0]
1a00725a:	06da      	lsls	r2, r3, #27
1a00725c:	bf5e      	ittt	pl
1a00725e:	682b      	ldrpl	r3, [r5, #0]
1a007260:	781b      	ldrbpl	r3, [r3, #0]
1a007262:	f806 3b01 	strbpl.w	r3, [r6], #1
1a007266:	682a      	ldr	r2, [r5, #0]
1a007268:	686b      	ldr	r3, [r5, #4]
1a00726a:	3201      	adds	r2, #1
1a00726c:	602a      	str	r2, [r5, #0]
1a00726e:	68a2      	ldr	r2, [r4, #8]
1a007270:	3b01      	subs	r3, #1
1a007272:	3a01      	subs	r2, #1
1a007274:	606b      	str	r3, [r5, #4]
1a007276:	3701      	adds	r7, #1
1a007278:	60a2      	str	r2, [r4, #8]
1a00727a:	b142      	cbz	r2, 1a00728e <_scanf_chars+0x8e>
1a00727c:	2b00      	cmp	r3, #0
1a00727e:	dcd7      	bgt.n	1a007230 <_scanf_chars+0x30>
1a007280:	f8d4 3180 	ldr.w	r3, [r4, #384]	; 0x180
1a007284:	4629      	mov	r1, r5
1a007286:	4640      	mov	r0, r8
1a007288:	4798      	blx	r3
1a00728a:	2800      	cmp	r0, #0
1a00728c:	d0d0      	beq.n	1a007230 <_scanf_chars+0x30>
1a00728e:	6823      	ldr	r3, [r4, #0]
1a007290:	f013 0310 	ands.w	r3, r3, #16
1a007294:	d105      	bne.n	1a0072a2 <_scanf_chars+0xa2>
1a007296:	68e2      	ldr	r2, [r4, #12]
1a007298:	3201      	adds	r2, #1
1a00729a:	60e2      	str	r2, [r4, #12]
1a00729c:	69a2      	ldr	r2, [r4, #24]
1a00729e:	b102      	cbz	r2, 1a0072a2 <_scanf_chars+0xa2>
1a0072a0:	7033      	strb	r3, [r6, #0]
1a0072a2:	6923      	ldr	r3, [r4, #16]
1a0072a4:	441f      	add	r7, r3
1a0072a6:	6127      	str	r7, [r4, #16]
1a0072a8:	2000      	movs	r0, #0
1a0072aa:	e7cb      	b.n	1a007244 <_scanf_chars+0x44>
1a0072ac:	1a007ca5 	.word	0x1a007ca5

1a0072b0 <_scanf_i>:
1a0072b0:	e92d 4ff0 	stmdb	sp!, {r4, r5, r6, r7, r8, r9, sl, fp, lr}
1a0072b4:	4699      	mov	r9, r3
1a0072b6:	4b74      	ldr	r3, [pc, #464]	; (1a007488 <_scanf_i+0x1d8>)
1a0072b8:	460c      	mov	r4, r1
1a0072ba:	4682      	mov	sl, r0
1a0072bc:	4616      	mov	r6, r2
1a0072be:	e893 0007 	ldmia.w	r3, {r0, r1, r2}
1a0072c2:	b087      	sub	sp, #28
1a0072c4:	ab03      	add	r3, sp, #12
1a0072c6:	e883 0007 	stmia.w	r3, {r0, r1, r2}
1a0072ca:	4b70      	ldr	r3, [pc, #448]	; (1a00748c <_scanf_i+0x1dc>)
1a0072cc:	69a1      	ldr	r1, [r4, #24]
1a0072ce:	4a70      	ldr	r2, [pc, #448]	; (1a007490 <_scanf_i+0x1e0>)
1a0072d0:	2903      	cmp	r1, #3
1a0072d2:	bf18      	it	ne
1a0072d4:	461a      	movne	r2, r3
1a0072d6:	68a3      	ldr	r3, [r4, #8]
1a0072d8:	9201      	str	r2, [sp, #4]
1a0072da:	1e5a      	subs	r2, r3, #1
1a0072dc:	f5b2 7fae 	cmp.w	r2, #348	; 0x15c
1a0072e0:	bf88      	it	hi
1a0072e2:	f46f 75ae 	mvnhi.w	r5, #348	; 0x15c
1a0072e6:	4627      	mov	r7, r4
1a0072e8:	bf82      	ittt	hi
1a0072ea:	eb03 0805 	addhi.w	r8, r3, r5
1a0072ee:	f240 135d 	movwhi	r3, #349	; 0x15d
1a0072f2:	60a3      	strhi	r3, [r4, #8]
1a0072f4:	f857 3b1c 	ldr.w	r3, [r7], #28
1a0072f8:	f443 6350 	orr.w	r3, r3, #3328	; 0xd00
1a0072fc:	bf98      	it	ls
1a0072fe:	f04f 0800 	movls.w	r8, #0
1a007302:	6023      	str	r3, [r4, #0]
1a007304:	463d      	mov	r5, r7
1a007306:	f04f 0b00 	mov.w	fp, #0
1a00730a:	6831      	ldr	r1, [r6, #0]
1a00730c:	ab03      	add	r3, sp, #12
1a00730e:	2202      	movs	r2, #2
1a007310:	7809      	ldrb	r1, [r1, #0]
1a007312:	f853 002b 	ldr.w	r0, [r3, fp, lsl #2]
1a007316:	f000 fa33 	bl	1a007780 <memchr>
1a00731a:	b328      	cbz	r0, 1a007368 <_scanf_i+0xb8>
1a00731c:	f1bb 0f01 	cmp.w	fp, #1
1a007320:	d159      	bne.n	1a0073d6 <_scanf_i+0x126>
1a007322:	6862      	ldr	r2, [r4, #4]
1a007324:	b92a      	cbnz	r2, 1a007332 <_scanf_i+0x82>
1a007326:	6822      	ldr	r2, [r4, #0]
1a007328:	2308      	movs	r3, #8
1a00732a:	f442 7200 	orr.w	r2, r2, #512	; 0x200
1a00732e:	6063      	str	r3, [r4, #4]
1a007330:	6022      	str	r2, [r4, #0]
1a007332:	6822      	ldr	r2, [r4, #0]
1a007334:	f422 62a0 	bic.w	r2, r2, #1280	; 0x500
1a007338:	6022      	str	r2, [r4, #0]
1a00733a:	68a2      	ldr	r2, [r4, #8]
1a00733c:	1e51      	subs	r1, r2, #1
1a00733e:	60a1      	str	r1, [r4, #8]
1a007340:	b192      	cbz	r2, 1a007368 <_scanf_i+0xb8>
1a007342:	6832      	ldr	r2, [r6, #0]
1a007344:	1c51      	adds	r1, r2, #1
1a007346:	6031      	str	r1, [r6, #0]
1a007348:	7812      	ldrb	r2, [r2, #0]
1a00734a:	f805 2b01 	strb.w	r2, [r5], #1
1a00734e:	6872      	ldr	r2, [r6, #4]
1a007350:	3a01      	subs	r2, #1
1a007352:	2a00      	cmp	r2, #0
1a007354:	6072      	str	r2, [r6, #4]
1a007356:	dc07      	bgt.n	1a007368 <_scanf_i+0xb8>
1a007358:	f8d4 2180 	ldr.w	r2, [r4, #384]	; 0x180
1a00735c:	4631      	mov	r1, r6
1a00735e:	4650      	mov	r0, sl
1a007360:	4790      	blx	r2
1a007362:	2800      	cmp	r0, #0
1a007364:	f040 8085 	bne.w	1a007472 <_scanf_i+0x1c2>
1a007368:	f10b 0b01 	add.w	fp, fp, #1
1a00736c:	f1bb 0f03 	cmp.w	fp, #3
1a007370:	d1cb      	bne.n	1a00730a <_scanf_i+0x5a>
1a007372:	6863      	ldr	r3, [r4, #4]
1a007374:	b90b      	cbnz	r3, 1a00737a <_scanf_i+0xca>
1a007376:	230a      	movs	r3, #10
1a007378:	6063      	str	r3, [r4, #4]
1a00737a:	6863      	ldr	r3, [r4, #4]
1a00737c:	4945      	ldr	r1, [pc, #276]	; (1a007494 <_scanf_i+0x1e4>)
1a00737e:	6960      	ldr	r0, [r4, #20]
1a007380:	1ac9      	subs	r1, r1, r3
1a007382:	f000 f891 	bl	1a0074a8 <__sccl>
1a007386:	f04f 0b00 	mov.w	fp, #0
1a00738a:	68a3      	ldr	r3, [r4, #8]
1a00738c:	6822      	ldr	r2, [r4, #0]
1a00738e:	2b00      	cmp	r3, #0
1a007390:	d03d      	beq.n	1a00740e <_scanf_i+0x15e>
1a007392:	6831      	ldr	r1, [r6, #0]
1a007394:	6960      	ldr	r0, [r4, #20]
1a007396:	f891 c000 	ldrb.w	ip, [r1]
1a00739a:	f810 000c 	ldrb.w	r0, [r0, ip]
1a00739e:	2800      	cmp	r0, #0
1a0073a0:	d035      	beq.n	1a00740e <_scanf_i+0x15e>
1a0073a2:	f1bc 0f30 	cmp.w	ip, #48	; 0x30
1a0073a6:	d124      	bne.n	1a0073f2 <_scanf_i+0x142>
1a0073a8:	0510      	lsls	r0, r2, #20
1a0073aa:	d522      	bpl.n	1a0073f2 <_scanf_i+0x142>
1a0073ac:	f10b 0b01 	add.w	fp, fp, #1
1a0073b0:	f1b8 0f00 	cmp.w	r8, #0
1a0073b4:	d003      	beq.n	1a0073be <_scanf_i+0x10e>
1a0073b6:	3301      	adds	r3, #1
1a0073b8:	f108 38ff 	add.w	r8, r8, #4294967295
1a0073bc:	60a3      	str	r3, [r4, #8]
1a0073be:	6873      	ldr	r3, [r6, #4]
1a0073c0:	3b01      	subs	r3, #1
1a0073c2:	2b00      	cmp	r3, #0
1a0073c4:	6073      	str	r3, [r6, #4]
1a0073c6:	dd1b      	ble.n	1a007400 <_scanf_i+0x150>
1a0073c8:	6833      	ldr	r3, [r6, #0]
1a0073ca:	3301      	adds	r3, #1
1a0073cc:	6033      	str	r3, [r6, #0]
1a0073ce:	68a3      	ldr	r3, [r4, #8]
1a0073d0:	3b01      	subs	r3, #1
1a0073d2:	60a3      	str	r3, [r4, #8]
1a0073d4:	e7d9      	b.n	1a00738a <_scanf_i+0xda>
1a0073d6:	f1bb 0f02 	cmp.w	fp, #2
1a0073da:	d1ae      	bne.n	1a00733a <_scanf_i+0x8a>
1a0073dc:	6822      	ldr	r2, [r4, #0]
1a0073de:	f402 61c0 	and.w	r1, r2, #1536	; 0x600
1a0073e2:	f5b1 7f00 	cmp.w	r1, #512	; 0x200
1a0073e6:	d1bf      	bne.n	1a007368 <_scanf_i+0xb8>
1a0073e8:	2310      	movs	r3, #16
1a0073ea:	6063      	str	r3, [r4, #4]
1a0073ec:	f442 7280 	orr.w	r2, r2, #256	; 0x100
1a0073f0:	e7a2      	b.n	1a007338 <_scanf_i+0x88>
1a0073f2:	f422 6210 	bic.w	r2, r2, #2304	; 0x900
1a0073f6:	6022      	str	r2, [r4, #0]
1a0073f8:	780b      	ldrb	r3, [r1, #0]
1a0073fa:	f805 3b01 	strb.w	r3, [r5], #1
1a0073fe:	e7de      	b.n	1a0073be <_scanf_i+0x10e>
1a007400:	f8d4 3180 	ldr.w	r3, [r4, #384]	; 0x180
1a007404:	4631      	mov	r1, r6
1a007406:	4650      	mov	r0, sl
1a007408:	4798      	blx	r3
1a00740a:	2800      	cmp	r0, #0
1a00740c:	d0df      	beq.n	1a0073ce <_scanf_i+0x11e>
1a00740e:	6823      	ldr	r3, [r4, #0]
1a007410:	05d9      	lsls	r1, r3, #23
1a007412:	d50d      	bpl.n	1a007430 <_scanf_i+0x180>
1a007414:	42bd      	cmp	r5, r7
1a007416:	d909      	bls.n	1a00742c <_scanf_i+0x17c>
1a007418:	f815 1c01 	ldrb.w	r1, [r5, #-1]
1a00741c:	f8d4 317c 	ldr.w	r3, [r4, #380]	; 0x17c
1a007420:	4632      	mov	r2, r6
1a007422:	4650      	mov	r0, sl
1a007424:	4798      	blx	r3
1a007426:	f105 38ff 	add.w	r8, r5, #4294967295
1a00742a:	4645      	mov	r5, r8
1a00742c:	42bd      	cmp	r5, r7
1a00742e:	d028      	beq.n	1a007482 <_scanf_i+0x1d2>
1a007430:	6822      	ldr	r2, [r4, #0]
1a007432:	f012 0210 	ands.w	r2, r2, #16
1a007436:	d113      	bne.n	1a007460 <_scanf_i+0x1b0>
1a007438:	702a      	strb	r2, [r5, #0]
1a00743a:	6863      	ldr	r3, [r4, #4]
1a00743c:	9e01      	ldr	r6, [sp, #4]
1a00743e:	4639      	mov	r1, r7
1a007440:	4650      	mov	r0, sl
1a007442:	47b0      	blx	r6
1a007444:	f8d9 3000 	ldr.w	r3, [r9]
1a007448:	6821      	ldr	r1, [r4, #0]
1a00744a:	1d1a      	adds	r2, r3, #4
1a00744c:	f8c9 2000 	str.w	r2, [r9]
1a007450:	f011 0f20 	tst.w	r1, #32
1a007454:	681b      	ldr	r3, [r3, #0]
1a007456:	d00f      	beq.n	1a007478 <_scanf_i+0x1c8>
1a007458:	6018      	str	r0, [r3, #0]
1a00745a:	68e3      	ldr	r3, [r4, #12]
1a00745c:	3301      	adds	r3, #1
1a00745e:	60e3      	str	r3, [r4, #12]
1a007460:	1bed      	subs	r5, r5, r7
1a007462:	44ab      	add	fp, r5
1a007464:	6925      	ldr	r5, [r4, #16]
1a007466:	445d      	add	r5, fp
1a007468:	6125      	str	r5, [r4, #16]
1a00746a:	2000      	movs	r0, #0
1a00746c:	b007      	add	sp, #28
1a00746e:	e8bd 8ff0 	ldmia.w	sp!, {r4, r5, r6, r7, r8, r9, sl, fp, pc}
1a007472:	f04f 0b00 	mov.w	fp, #0
1a007476:	e7ca      	b.n	1a00740e <_scanf_i+0x15e>
1a007478:	07ca      	lsls	r2, r1, #31
1a00747a:	bf4c      	ite	mi
1a00747c:	8018      	strhmi	r0, [r3, #0]
1a00747e:	6018      	strpl	r0, [r3, #0]
1a007480:	e7eb      	b.n	1a00745a <_scanf_i+0x1aa>
1a007482:	2001      	movs	r0, #1
1a007484:	e7f2      	b.n	1a00746c <_scanf_i+0x1bc>
1a007486:	bf00      	nop
1a007488:	1a007fb8 	.word	0x1a007fb8
1a00748c:	1a0076ed 	.word	0x1a0076ed
1a007490:	1a0075fd 	.word	0x1a0075fd
1a007494:	1a007fd4 	.word	0x1a007fd4

1a007498 <nan>:
1a007498:	ed9f 0b01 	vldr	d0, [pc, #4]	; 1a0074a0 <nan+0x8>
1a00749c:	4770      	bx	lr
1a00749e:	bf00      	nop
1a0074a0:	00000000 	.word	0x00000000
1a0074a4:	7ff80000 	.word	0x7ff80000

1a0074a8 <__sccl>:
1a0074a8:	b570      	push	{r4, r5, r6, lr}
1a0074aa:	780b      	ldrb	r3, [r1, #0]
1a0074ac:	2b5e      	cmp	r3, #94	; 0x5e
1a0074ae:	bf13      	iteet	ne
1a0074b0:	1c4a      	addne	r2, r1, #1
1a0074b2:	1c8a      	addeq	r2, r1, #2
1a0074b4:	784b      	ldrbeq	r3, [r1, #1]
1a0074b6:	2100      	movne	r1, #0
1a0074b8:	bf08      	it	eq
1a0074ba:	2101      	moveq	r1, #1
1a0074bc:	1e44      	subs	r4, r0, #1
1a0074be:	f100 05ff 	add.w	r5, r0, #255	; 0xff
1a0074c2:	f804 1f01 	strb.w	r1, [r4, #1]!
1a0074c6:	42ac      	cmp	r4, r5
1a0074c8:	d1fb      	bne.n	1a0074c2 <__sccl+0x1a>
1a0074ca:	b913      	cbnz	r3, 1a0074d2 <__sccl+0x2a>
1a0074cc:	3a01      	subs	r2, #1
1a0074ce:	4610      	mov	r0, r2
1a0074d0:	bd70      	pop	{r4, r5, r6, pc}
1a0074d2:	f081 0401 	eor.w	r4, r1, #1
1a0074d6:	54c4      	strb	r4, [r0, r3]
1a0074d8:	1c51      	adds	r1, r2, #1
1a0074da:	f811 5c01 	ldrb.w	r5, [r1, #-1]
1a0074de:	2d2d      	cmp	r5, #45	; 0x2d
1a0074e0:	f101 36ff 	add.w	r6, r1, #4294967295
1a0074e4:	460a      	mov	r2, r1
1a0074e6:	d006      	beq.n	1a0074f6 <__sccl+0x4e>
1a0074e8:	2d5d      	cmp	r5, #93	; 0x5d
1a0074ea:	d0f0      	beq.n	1a0074ce <__sccl+0x26>
1a0074ec:	b90d      	cbnz	r5, 1a0074f2 <__sccl+0x4a>
1a0074ee:	4632      	mov	r2, r6
1a0074f0:	e7ed      	b.n	1a0074ce <__sccl+0x26>
1a0074f2:	462b      	mov	r3, r5
1a0074f4:	e7ef      	b.n	1a0074d6 <__sccl+0x2e>
1a0074f6:	780e      	ldrb	r6, [r1, #0]
1a0074f8:	2e5d      	cmp	r6, #93	; 0x5d
1a0074fa:	d0fa      	beq.n	1a0074f2 <__sccl+0x4a>
1a0074fc:	42b3      	cmp	r3, r6
1a0074fe:	dcf8      	bgt.n	1a0074f2 <__sccl+0x4a>
1a007500:	3301      	adds	r3, #1
1a007502:	429e      	cmp	r6, r3
1a007504:	54c4      	strb	r4, [r0, r3]
1a007506:	dcfb      	bgt.n	1a007500 <__sccl+0x58>
1a007508:	3102      	adds	r1, #2
1a00750a:	e7e6      	b.n	1a0074da <__sccl+0x32>

1a00750c <_strtol_l.isra.0>:
1a00750c:	e92d 47f0 	stmdb	sp!, {r4, r5, r6, r7, r8, r9, sl, lr}
1a007510:	4f39      	ldr	r7, [pc, #228]	; (1a0075f8 <_strtol_l.isra.0+0xec>)
1a007512:	4686      	mov	lr, r0
1a007514:	4608      	mov	r0, r1
1a007516:	4605      	mov	r5, r0
1a007518:	f815 4b01 	ldrb.w	r4, [r5], #1
1a00751c:	5de6      	ldrb	r6, [r4, r7]
1a00751e:	f016 0608 	ands.w	r6, r6, #8
1a007522:	d134      	bne.n	1a00758e <_strtol_l.isra.0+0x82>
1a007524:	2c2d      	cmp	r4, #45	; 0x2d
1a007526:	d134      	bne.n	1a007592 <_strtol_l.isra.0+0x86>
1a007528:	782c      	ldrb	r4, [r5, #0]
1a00752a:	f04f 0801 	mov.w	r8, #1
1a00752e:	1c85      	adds	r5, r0, #2
1a007530:	2b00      	cmp	r3, #0
1a007532:	d05c      	beq.n	1a0075ee <_strtol_l.isra.0+0xe2>
1a007534:	2b10      	cmp	r3, #16
1a007536:	d109      	bne.n	1a00754c <_strtol_l.isra.0+0x40>
1a007538:	2c30      	cmp	r4, #48	; 0x30
1a00753a:	d107      	bne.n	1a00754c <_strtol_l.isra.0+0x40>
1a00753c:	7828      	ldrb	r0, [r5, #0]
1a00753e:	f000 00df 	and.w	r0, r0, #223	; 0xdf
1a007542:	2858      	cmp	r0, #88	; 0x58
1a007544:	d14e      	bne.n	1a0075e4 <_strtol_l.isra.0+0xd8>
1a007546:	786c      	ldrb	r4, [r5, #1]
1a007548:	2310      	movs	r3, #16
1a00754a:	3502      	adds	r5, #2
1a00754c:	f1b8 0f00 	cmp.w	r8, #0
1a007550:	bf14      	ite	ne
1a007552:	f04f 4c00 	movne.w	ip, #2147483648	; 0x80000000
1a007556:	f06f 4c00 	mvneq.w	ip, #2147483648	; 0x80000000
1a00755a:	2700      	movs	r7, #0
1a00755c:	fbbc f9f3 	udiv	r9, ip, r3
1a007560:	4638      	mov	r0, r7
1a007562:	fb03 ca19 	mls	sl, r3, r9, ip
1a007566:	f1a4 0630 	sub.w	r6, r4, #48	; 0x30
1a00756a:	2e09      	cmp	r6, #9
1a00756c:	d818      	bhi.n	1a0075a0 <_strtol_l.isra.0+0x94>
1a00756e:	4634      	mov	r4, r6
1a007570:	42a3      	cmp	r3, r4
1a007572:	dd24      	ble.n	1a0075be <_strtol_l.isra.0+0xb2>
1a007574:	1c7e      	adds	r6, r7, #1
1a007576:	d007      	beq.n	1a007588 <_strtol_l.isra.0+0x7c>
1a007578:	4581      	cmp	r9, r0
1a00757a:	d31d      	bcc.n	1a0075b8 <_strtol_l.isra.0+0xac>
1a00757c:	d101      	bne.n	1a007582 <_strtol_l.isra.0+0x76>
1a00757e:	45a2      	cmp	sl, r4
1a007580:	db1a      	blt.n	1a0075b8 <_strtol_l.isra.0+0xac>
1a007582:	fb00 4003 	mla	r0, r0, r3, r4
1a007586:	2701      	movs	r7, #1
1a007588:	f815 4b01 	ldrb.w	r4, [r5], #1
1a00758c:	e7eb      	b.n	1a007566 <_strtol_l.isra.0+0x5a>
1a00758e:	4628      	mov	r0, r5
1a007590:	e7c1      	b.n	1a007516 <_strtol_l.isra.0+0xa>
1a007592:	2c2b      	cmp	r4, #43	; 0x2b
1a007594:	bf08      	it	eq
1a007596:	782c      	ldrbeq	r4, [r5, #0]
1a007598:	46b0      	mov	r8, r6
1a00759a:	bf08      	it	eq
1a00759c:	1c85      	addeq	r5, r0, #2
1a00759e:	e7c7      	b.n	1a007530 <_strtol_l.isra.0+0x24>
1a0075a0:	f1a4 0641 	sub.w	r6, r4, #65	; 0x41
1a0075a4:	2e19      	cmp	r6, #25
1a0075a6:	d801      	bhi.n	1a0075ac <_strtol_l.isra.0+0xa0>
1a0075a8:	3c37      	subs	r4, #55	; 0x37
1a0075aa:	e7e1      	b.n	1a007570 <_strtol_l.isra.0+0x64>
1a0075ac:	f1a4 0661 	sub.w	r6, r4, #97	; 0x61
1a0075b0:	2e19      	cmp	r6, #25
1a0075b2:	d804      	bhi.n	1a0075be <_strtol_l.isra.0+0xb2>
1a0075b4:	3c57      	subs	r4, #87	; 0x57
1a0075b6:	e7db      	b.n	1a007570 <_strtol_l.isra.0+0x64>
1a0075b8:	f04f 37ff 	mov.w	r7, #4294967295
1a0075bc:	e7e4      	b.n	1a007588 <_strtol_l.isra.0+0x7c>
1a0075be:	1c7b      	adds	r3, r7, #1
1a0075c0:	d106      	bne.n	1a0075d0 <_strtol_l.isra.0+0xc4>
1a0075c2:	2322      	movs	r3, #34	; 0x22
1a0075c4:	f8ce 3000 	str.w	r3, [lr]
1a0075c8:	4660      	mov	r0, ip
1a0075ca:	b942      	cbnz	r2, 1a0075de <_strtol_l.isra.0+0xd2>
1a0075cc:	e8bd 87f0 	ldmia.w	sp!, {r4, r5, r6, r7, r8, r9, sl, pc}
1a0075d0:	f1b8 0f00 	cmp.w	r8, #0
1a0075d4:	d000      	beq.n	1a0075d8 <_strtol_l.isra.0+0xcc>
1a0075d6:	4240      	negs	r0, r0
1a0075d8:	2a00      	cmp	r2, #0
1a0075da:	d0f7      	beq.n	1a0075cc <_strtol_l.isra.0+0xc0>
1a0075dc:	b107      	cbz	r7, 1a0075e0 <_strtol_l.isra.0+0xd4>
1a0075de:	1e69      	subs	r1, r5, #1
1a0075e0:	6011      	str	r1, [r2, #0]
1a0075e2:	e7f3      	b.n	1a0075cc <_strtol_l.isra.0+0xc0>
1a0075e4:	2430      	movs	r4, #48	; 0x30
1a0075e6:	2b00      	cmp	r3, #0
1a0075e8:	d1b0      	bne.n	1a00754c <_strtol_l.isra.0+0x40>
1a0075ea:	2308      	movs	r3, #8
1a0075ec:	e7ae      	b.n	1a00754c <_strtol_l.isra.0+0x40>
1a0075ee:	2c30      	cmp	r4, #48	; 0x30
1a0075f0:	d0a4      	beq.n	1a00753c <_strtol_l.isra.0+0x30>
1a0075f2:	230a      	movs	r3, #10
1a0075f4:	e7aa      	b.n	1a00754c <_strtol_l.isra.0+0x40>
1a0075f6:	bf00      	nop
1a0075f8:	1a007ca5 	.word	0x1a007ca5

1a0075fc <_strtol_r>:
1a0075fc:	f7ff bf86 	b.w	1a00750c <_strtol_l.isra.0>

1a007600 <_strtoul_l.isra.0>:
1a007600:	e92d 43f0 	stmdb	sp!, {r4, r5, r6, r7, r8, r9, lr}
1a007604:	4f38      	ldr	r7, [pc, #224]	; (1a0076e8 <_strtoul_l.isra.0+0xe8>)
1a007606:	4686      	mov	lr, r0
1a007608:	4608      	mov	r0, r1
1a00760a:	4605      	mov	r5, r0
1a00760c:	f815 4b01 	ldrb.w	r4, [r5], #1
1a007610:	5de6      	ldrb	r6, [r4, r7]
1a007612:	f016 0608 	ands.w	r6, r6, #8
1a007616:	d131      	bne.n	1a00767c <_strtoul_l.isra.0+0x7c>
1a007618:	2c2d      	cmp	r4, #45	; 0x2d
1a00761a:	d131      	bne.n	1a007680 <_strtoul_l.isra.0+0x80>
1a00761c:	782c      	ldrb	r4, [r5, #0]
1a00761e:	f04f 0801 	mov.w	r8, #1
1a007622:	1c85      	adds	r5, r0, #2
1a007624:	2b00      	cmp	r3, #0
1a007626:	d05a      	beq.n	1a0076de <_strtoul_l.isra.0+0xde>
1a007628:	2b10      	cmp	r3, #16
1a00762a:	d109      	bne.n	1a007640 <_strtoul_l.isra.0+0x40>
1a00762c:	2c30      	cmp	r4, #48	; 0x30
1a00762e:	d107      	bne.n	1a007640 <_strtoul_l.isra.0+0x40>
1a007630:	7828      	ldrb	r0, [r5, #0]
1a007632:	f000 00df 	and.w	r0, r0, #223	; 0xdf
1a007636:	2858      	cmp	r0, #88	; 0x58
1a007638:	d14c      	bne.n	1a0076d4 <_strtoul_l.isra.0+0xd4>
1a00763a:	786c      	ldrb	r4, [r5, #1]
1a00763c:	2310      	movs	r3, #16
1a00763e:	3502      	adds	r5, #2
1a007640:	f04f 3cff 	mov.w	ip, #4294967295
1a007644:	2600      	movs	r6, #0
1a007646:	fbbc fcf3 	udiv	ip, ip, r3
1a00764a:	fb03 f90c 	mul.w	r9, r3, ip
1a00764e:	ea6f 0909 	mvn.w	r9, r9
1a007652:	4630      	mov	r0, r6
1a007654:	f1a4 0730 	sub.w	r7, r4, #48	; 0x30
1a007658:	2f09      	cmp	r7, #9
1a00765a:	d818      	bhi.n	1a00768e <_strtoul_l.isra.0+0x8e>
1a00765c:	463c      	mov	r4, r7
1a00765e:	42a3      	cmp	r3, r4
1a007660:	dd24      	ble.n	1a0076ac <_strtoul_l.isra.0+0xac>
1a007662:	2e00      	cmp	r6, #0
1a007664:	db1f      	blt.n	1a0076a6 <_strtoul_l.isra.0+0xa6>
1a007666:	4584      	cmp	ip, r0
1a007668:	d31d      	bcc.n	1a0076a6 <_strtoul_l.isra.0+0xa6>
1a00766a:	d101      	bne.n	1a007670 <_strtoul_l.isra.0+0x70>
1a00766c:	45a1      	cmp	r9, r4
1a00766e:	db1a      	blt.n	1a0076a6 <_strtoul_l.isra.0+0xa6>
1a007670:	fb00 4003 	mla	r0, r0, r3, r4
1a007674:	2601      	movs	r6, #1
1a007676:	f815 4b01 	ldrb.w	r4, [r5], #1
1a00767a:	e7eb      	b.n	1a007654 <_strtoul_l.isra.0+0x54>
1a00767c:	4628      	mov	r0, r5
1a00767e:	e7c4      	b.n	1a00760a <_strtoul_l.isra.0+0xa>
1a007680:	2c2b      	cmp	r4, #43	; 0x2b
1a007682:	bf08      	it	eq
1a007684:	782c      	ldrbeq	r4, [r5, #0]
1a007686:	46b0      	mov	r8, r6
1a007688:	bf08      	it	eq
1a00768a:	1c85      	addeq	r5, r0, #2
1a00768c:	e7ca      	b.n	1a007624 <_strtoul_l.isra.0+0x24>
1a00768e:	f1a4 0741 	sub.w	r7, r4, #65	; 0x41
1a007692:	2f19      	cmp	r7, #25
1a007694:	d801      	bhi.n	1a00769a <_strtoul_l.isra.0+0x9a>
1a007696:	3c37      	subs	r4, #55	; 0x37
1a007698:	e7e1      	b.n	1a00765e <_strtoul_l.isra.0+0x5e>
1a00769a:	f1a4 0761 	sub.w	r7, r4, #97	; 0x61
1a00769e:	2f19      	cmp	r7, #25
1a0076a0:	d804      	bhi.n	1a0076ac <_strtoul_l.isra.0+0xac>
1a0076a2:	3c57      	subs	r4, #87	; 0x57
1a0076a4:	e7db      	b.n	1a00765e <_strtoul_l.isra.0+0x5e>
1a0076a6:	f04f 36ff 	mov.w	r6, #4294967295
1a0076aa:	e7e4      	b.n	1a007676 <_strtoul_l.isra.0+0x76>
1a0076ac:	2e00      	cmp	r6, #0
1a0076ae:	da07      	bge.n	1a0076c0 <_strtoul_l.isra.0+0xc0>
1a0076b0:	2322      	movs	r3, #34	; 0x22
1a0076b2:	f8ce 3000 	str.w	r3, [lr]
1a0076b6:	f04f 30ff 	mov.w	r0, #4294967295
1a0076ba:	b942      	cbnz	r2, 1a0076ce <_strtoul_l.isra.0+0xce>
1a0076bc:	e8bd 83f0 	ldmia.w	sp!, {r4, r5, r6, r7, r8, r9, pc}
1a0076c0:	f1b8 0f00 	cmp.w	r8, #0
1a0076c4:	d000      	beq.n	1a0076c8 <_strtoul_l.isra.0+0xc8>
1a0076c6:	4240      	negs	r0, r0
1a0076c8:	2a00      	cmp	r2, #0
1a0076ca:	d0f7      	beq.n	1a0076bc <_strtoul_l.isra.0+0xbc>
1a0076cc:	b106      	cbz	r6, 1a0076d0 <_strtoul_l.isra.0+0xd0>
1a0076ce:	1e69      	subs	r1, r5, #1
1a0076d0:	6011      	str	r1, [r2, #0]
1a0076d2:	e7f3      	b.n	1a0076bc <_strtoul_l.isra.0+0xbc>
1a0076d4:	2430      	movs	r4, #48	; 0x30
1a0076d6:	2b00      	cmp	r3, #0
1a0076d8:	d1b2      	bne.n	1a007640 <_strtoul_l.isra.0+0x40>
1a0076da:	2308      	movs	r3, #8
1a0076dc:	e7b0      	b.n	1a007640 <_strtoul_l.isra.0+0x40>
1a0076de:	2c30      	cmp	r4, #48	; 0x30
1a0076e0:	d0a6      	beq.n	1a007630 <_strtoul_l.isra.0+0x30>
1a0076e2:	230a      	movs	r3, #10
1a0076e4:	e7ac      	b.n	1a007640 <_strtoul_l.isra.0+0x40>
1a0076e6:	bf00      	nop
1a0076e8:	1a007ca5 	.word	0x1a007ca5

1a0076ec <_strtoul_r>:
1a0076ec:	f7ff bf88 	b.w	1a007600 <_strtoul_l.isra.0>

1a0076f0 <__submore>:
1a0076f0:	e92d 41f0 	stmdb	sp!, {r4, r5, r6, r7, r8, lr}
1a0076f4:	460c      	mov	r4, r1
1a0076f6:	6b49      	ldr	r1, [r1, #52]	; 0x34
1a0076f8:	f104 0344 	add.w	r3, r4, #68	; 0x44
1a0076fc:	4299      	cmp	r1, r3
1a0076fe:	d11d      	bne.n	1a00773c <__submore+0x4c>
1a007700:	f44f 6180 	mov.w	r1, #1024	; 0x400
1a007704:	f7fc fe34 	bl	1a004370 <_malloc_r>
1a007708:	b918      	cbnz	r0, 1a007712 <__submore+0x22>
1a00770a:	f04f 30ff 	mov.w	r0, #4294967295
1a00770e:	e8bd 81f0 	ldmia.w	sp!, {r4, r5, r6, r7, r8, pc}
1a007712:	f44f 6380 	mov.w	r3, #1024	; 0x400
1a007716:	63a3      	str	r3, [r4, #56]	; 0x38
1a007718:	f894 3046 	ldrb.w	r3, [r4, #70]	; 0x46
1a00771c:	6360      	str	r0, [r4, #52]	; 0x34
1a00771e:	f880 33ff 	strb.w	r3, [r0, #1023]	; 0x3ff
1a007722:	f894 3045 	ldrb.w	r3, [r4, #69]	; 0x45
1a007726:	f880 33fe 	strb.w	r3, [r0, #1022]	; 0x3fe
1a00772a:	f894 3044 	ldrb.w	r3, [r4, #68]	; 0x44
1a00772e:	f880 33fd 	strb.w	r3, [r0, #1021]	; 0x3fd
1a007732:	f200 30fd 	addw	r0, r0, #1021	; 0x3fd
1a007736:	6020      	str	r0, [r4, #0]
1a007738:	2000      	movs	r0, #0
1a00773a:	e7e8      	b.n	1a00770e <__submore+0x1e>
1a00773c:	6ba6      	ldr	r6, [r4, #56]	; 0x38
1a00773e:	0077      	lsls	r7, r6, #1
1a007740:	463a      	mov	r2, r7
1a007742:	f7fe ff65 	bl	1a006610 <_realloc_r>
1a007746:	4605      	mov	r5, r0
1a007748:	2800      	cmp	r0, #0
1a00774a:	d0de      	beq.n	1a00770a <__submore+0x1a>
1a00774c:	eb00 0806 	add.w	r8, r0, r6
1a007750:	4601      	mov	r1, r0
1a007752:	4632      	mov	r2, r6
1a007754:	4640      	mov	r0, r8
1a007756:	f7fc fda7 	bl	1a0042a8 <memcpy>
1a00775a:	f8c4 8000 	str.w	r8, [r4]
1a00775e:	e9c4 570d 	strd	r5, r7, [r4, #52]	; 0x34
1a007762:	e7e9      	b.n	1a007738 <__submore+0x48>

1a007764 <__ascii_wctomb>:
1a007764:	b149      	cbz	r1, 1a00777a <__ascii_wctomb+0x16>
1a007766:	2aff      	cmp	r2, #255	; 0xff
1a007768:	bf85      	ittet	hi
1a00776a:	238a      	movhi	r3, #138	; 0x8a
1a00776c:	6003      	strhi	r3, [r0, #0]
1a00776e:	700a      	strbls	r2, [r1, #0]
1a007770:	f04f 30ff 	movhi.w	r0, #4294967295
1a007774:	bf98      	it	ls
1a007776:	2001      	movls	r0, #1
1a007778:	4770      	bx	lr
1a00777a:	4608      	mov	r0, r1
1a00777c:	4770      	bx	lr
1a00777e:	Address 0x1a00777e is out of bounds.


1a007780 <memchr>:
1a007780:	f001 01ff 	and.w	r1, r1, #255	; 0xff
1a007784:	2a10      	cmp	r2, #16
1a007786:	db2b      	blt.n	1a0077e0 <memchr+0x60>
1a007788:	f010 0f07 	tst.w	r0, #7
1a00778c:	d008      	beq.n	1a0077a0 <memchr+0x20>
1a00778e:	f810 3b01 	ldrb.w	r3, [r0], #1
1a007792:	3a01      	subs	r2, #1
1a007794:	428b      	cmp	r3, r1
1a007796:	d02d      	beq.n	1a0077f4 <memchr+0x74>
1a007798:	f010 0f07 	tst.w	r0, #7
1a00779c:	b342      	cbz	r2, 1a0077f0 <memchr+0x70>
1a00779e:	d1f6      	bne.n	1a00778e <memchr+0xe>
1a0077a0:	b4f0      	push	{r4, r5, r6, r7}
1a0077a2:	ea41 2101 	orr.w	r1, r1, r1, lsl #8
1a0077a6:	ea41 4101 	orr.w	r1, r1, r1, lsl #16
1a0077aa:	f022 0407 	bic.w	r4, r2, #7
1a0077ae:	f07f 0700 	mvns.w	r7, #0
1a0077b2:	2300      	movs	r3, #0
1a0077b4:	e8f0 5602 	ldrd	r5, r6, [r0], #8
1a0077b8:	3c08      	subs	r4, #8
1a0077ba:	ea85 0501 	eor.w	r5, r5, r1
1a0077be:	ea86 0601 	eor.w	r6, r6, r1
1a0077c2:	fa85 f547 	uadd8	r5, r5, r7
1a0077c6:	faa3 f587 	sel	r5, r3, r7
1a0077ca:	fa86 f647 	uadd8	r6, r6, r7
1a0077ce:	faa5 f687 	sel	r6, r5, r7
1a0077d2:	b98e      	cbnz	r6, 1a0077f8 <memchr+0x78>
1a0077d4:	d1ee      	bne.n	1a0077b4 <memchr+0x34>
1a0077d6:	bcf0      	pop	{r4, r5, r6, r7}
1a0077d8:	f001 01ff 	and.w	r1, r1, #255	; 0xff
1a0077dc:	f002 0207 	and.w	r2, r2, #7
1a0077e0:	b132      	cbz	r2, 1a0077f0 <memchr+0x70>
1a0077e2:	f810 3b01 	ldrb.w	r3, [r0], #1
1a0077e6:	3a01      	subs	r2, #1
1a0077e8:	ea83 0301 	eor.w	r3, r3, r1
1a0077ec:	b113      	cbz	r3, 1a0077f4 <memchr+0x74>
1a0077ee:	d1f8      	bne.n	1a0077e2 <memchr+0x62>
1a0077f0:	2000      	movs	r0, #0
1a0077f2:	4770      	bx	lr
1a0077f4:	3801      	subs	r0, #1
1a0077f6:	4770      	bx	lr
1a0077f8:	2d00      	cmp	r5, #0
1a0077fa:	bf06      	itte	eq
1a0077fc:	4635      	moveq	r5, r6
1a0077fe:	3803      	subeq	r0, #3
1a007800:	3807      	subne	r0, #7
1a007802:	f015 0f01 	tst.w	r5, #1
1a007806:	d107      	bne.n	1a007818 <memchr+0x98>
1a007808:	3001      	adds	r0, #1
1a00780a:	f415 7f80 	tst.w	r5, #256	; 0x100
1a00780e:	bf02      	ittt	eq
1a007810:	3001      	addeq	r0, #1
1a007812:	f415 3fc0 	tsteq.w	r5, #98304	; 0x18000
1a007816:	3001      	addeq	r0, #1
1a007818:	bcf0      	pop	{r4, r5, r6, r7}
1a00781a:	3801      	subs	r0, #1
1a00781c:	4770      	bx	lr
1a00781e:	bf00      	nop

1a007820 <memmove>:
1a007820:	4288      	cmp	r0, r1
1a007822:	b510      	push	{r4, lr}
1a007824:	eb01 0302 	add.w	r3, r1, r2
1a007828:	d902      	bls.n	1a007830 <memmove+0x10>
1a00782a:	4283      	cmp	r3, r0
1a00782c:	461c      	mov	r4, r3
1a00782e:	d807      	bhi.n	1a007840 <memmove+0x20>
1a007830:	1e42      	subs	r2, r0, #1
1a007832:	4299      	cmp	r1, r3
1a007834:	d008      	beq.n	1a007848 <memmove+0x28>
1a007836:	f811 4b01 	ldrb.w	r4, [r1], #1
1a00783a:	f802 4f01 	strb.w	r4, [r2, #1]!
1a00783e:	e7f8      	b.n	1a007832 <memmove+0x12>
1a007840:	1883      	adds	r3, r0, r2
1a007842:	1a9a      	subs	r2, r3, r2
1a007844:	429a      	cmp	r2, r3
1a007846:	d100      	bne.n	1a00784a <memmove+0x2a>
1a007848:	bd10      	pop	{r4, pc}
1a00784a:	f814 1d01 	ldrb.w	r1, [r4, #-1]!
1a00784e:	f803 1d01 	strb.w	r1, [r3, #-1]!
1a007852:	e7f7      	b.n	1a007844 <memmove+0x24>

1a007854 <_malloc_usable_size_r>:
1a007854:	f851 3c04 	ldr.w	r3, [r1, #-4]
1a007858:	1f18      	subs	r0, r3, #4
1a00785a:	2b00      	cmp	r3, #0
1a00785c:	bfbc      	itt	lt
1a00785e:	580b      	ldrlt	r3, [r1, r0]
1a007860:	18c0      	addlt	r0, r0, r3
1a007862:	4770      	bx	lr

1a007864 <__aeabi_d2lz>:
1a007864:	b538      	push	{r3, r4, r5, lr}
1a007866:	2200      	movs	r2, #0
1a007868:	2300      	movs	r3, #0
1a00786a:	4604      	mov	r4, r0
1a00786c:	460d      	mov	r5, r1
1a00786e:	f7fc fadf 	bl	1a003e30 <__aeabi_dcmplt>
1a007872:	b928      	cbnz	r0, 1a007880 <__aeabi_d2lz+0x1c>
1a007874:	4620      	mov	r0, r4
1a007876:	4629      	mov	r1, r5
1a007878:	e8bd 4038 	ldmia.w	sp!, {r3, r4, r5, lr}
1a00787c:	f000 b80a 	b.w	1a007894 <__aeabi_d2ulz>
1a007880:	4620      	mov	r0, r4
1a007882:	f105 4100 	add.w	r1, r5, #2147483648	; 0x80000000
1a007886:	f000 f805 	bl	1a007894 <__aeabi_d2ulz>
1a00788a:	4240      	negs	r0, r0
1a00788c:	eb61 0141 	sbc.w	r1, r1, r1, lsl #1
1a007890:	bd38      	pop	{r3, r4, r5, pc}
1a007892:	bf00      	nop

1a007894 <__aeabi_d2ulz>:
1a007894:	b5d0      	push	{r4, r6, r7, lr}
1a007896:	2200      	movs	r2, #0
1a007898:	4b0b      	ldr	r3, [pc, #44]	; (1a0078c8 <__aeabi_d2ulz+0x34>)
1a00789a:	4606      	mov	r6, r0
1a00789c:	460f      	mov	r7, r1
1a00789e:	f7fc f855 	bl	1a00394c <__aeabi_dmul>
1a0078a2:	f7fc fcad 	bl	1a004200 <__aeabi_d2uiz>
1a0078a6:	4604      	mov	r4, r0
1a0078a8:	f7fb ffd6 	bl	1a003858 <__aeabi_ui2d>
1a0078ac:	2200      	movs	r2, #0
1a0078ae:	4b07      	ldr	r3, [pc, #28]	; (1a0078cc <__aeabi_d2ulz+0x38>)
1a0078b0:	f7fc f84c 	bl	1a00394c <__aeabi_dmul>
1a0078b4:	4602      	mov	r2, r0
1a0078b6:	460b      	mov	r3, r1
1a0078b8:	4630      	mov	r0, r6
1a0078ba:	4639      	mov	r1, r7
1a0078bc:	f7fb fe8e 	bl	1a0035dc <__aeabi_dsub>
1a0078c0:	f7fc fc9e 	bl	1a004200 <__aeabi_d2uiz>
1a0078c4:	4621      	mov	r1, r4
1a0078c6:	bdd0      	pop	{r4, r6, r7, pc}
1a0078c8:	3df00000 	.word	0x3df00000
1a0078cc:	41f00000 	.word	0x41f00000
1a0078d0:	736e6573 	.word	0x736e6573
1a0078d4:	695f726f 	.word	0x695f726f
1a0078d8:	6e65746e 	.word	0x6e65746e
1a0078dc:	61646973 	.word	0x61646973
1a0078e0:	ffff0064 	.word	0xffff0064
1a0078e4:	0064656c 	.word	0x0064656c
1a0078e8:	5f7a756c 	.word	0x5f7a756c
1a0078ec:	ffff0031 	.word	0xffff0031
1a0078f0:	736e6573 	.word	0x736e6573
1a0078f4:	6c5f726f 	.word	0x6c5f726f
1a0078f8:	6e696d75 	.word	0x6e696d75
1a0078fc:	6469736f 	.word	0x6469736f
1a007900:	ff006461 	.word	0xff006461
1a007904:	736e6573 	.word	0x736e6573
1a007908:	6d5f726f 	.word	0x6d5f726f
1a00790c:	6d69766f 	.word	0x6d69766f
1a007910:	746e6569 	.word	0x746e6569
1a007914:	ffff006f 	.word	0xffff006f
1a007918:	75746553 	.word	0x75746553
1a00791c:	69772070 	.word	0x69772070
1a007920:	63206966 	.word	0x63206966
1a007924:	69666e6f 	.word	0x69666e6f
1a007928:	2e2e2e67 	.word	0x2e2e2e67
1a00792c:	ff000a0d 	.word	0xff000a0d
1a007930:	6c6c756e 	.word	0x6c6c756e
1a007934:	00000000 	.word	0x00000000
1a007938:	00006425 	.word	0x00006425
1a00793c:	312e3125 	.word	0x312e3125
1a007940:	00006735 	.word	0x00006735
1a007944:	00676c25 	.word	0x00676c25
1a007948:	312e3125 	.word	0x312e3125
1a00794c:	ff006737 	.word	0xff006737
1a007950:	00002222 	.word	0x00002222
1a007954:	34302575 	.word	0x34302575
1a007958:	ffff0078 	.word	0xffff0078
1a00795c:	736c6166 	.word	0x736c6166
1a007960:	00000065 	.word	0x00000065
1a007964:	65757274 	.word	0x65757274
1a007968:	ffffff00 	.word	0xffffff00
1a00796c:	00bfbbef 	.word	0x00bfbbef
1a007970:	554c202a 	.word	0x554c202a
1a007974:	20202058 	.word	0x20202058
1a007978:	20642520 	.word	0x20642520
1a00797c:	ff000a2a 	.word	0xff000a2a

1a007980 <gpioPinsInit>:
1a007980:	02000104 00050701 05010d03 04080100     ................
1a007990:	02020002 02000304 00000403 04070002     ................
1a0079a0:	030c0300 09050402 05040103 04030208     ................
1a0079b0:	04020305 06040504 0802000c 03000b06     ................
1a0079c0:	00090607 07060503 060f0504 03030004     ................
1a0079d0:	02000404 00050404 06040502 04060200     ................
1a0079e0:	0c050408 05040a04 0003010e 14010a00     ................
1a0079f0:	010f0000 0d000012 00001101 0010010c     ................
1a007a00:	07070300 000f0300 01000001 00000000     ................
1a007a10:	000a0600 08060603 06100504 04030005     ................
1a007a20:	03000106 04090400 04010d05 010b0000     ................
1a007a30:	0200000f 00000001 00010104 02010800     ................
1a007a40:	01090000 09010006 05040002 04010200     ................
1a007a50:	02020105 02020504 0e00000a 01000b02     ................
1a007a60:	000c020b 00040c01 04000200 01020001     ................
1a007a70:	02000204 00030402 03070302 070b0300     ................
1a007a80:	0c030004 03000507 0006070d 01020e03     ................
1a007a90:	04010504 06020006 02000504 00040405     ................
1a007aa0:	08040402 040c0504 0d050409 05040a04     ................
1a007ab0:	0005010e ffff0801                       ........

1a007ab8 <SCTdataList>:
1a007ab8:	01040204 03040a02 0b020c02 0c060506     ................
1a007ac8:	04010301 00000501 04070507              ............

1a007ad4 <lpcUarts>:
1a007ad4:	40081000 06020406 00180205 40081000     ...@...........@
1a007ae4:	09070509 00180706 40082000 00000000     ......... .@....
1a007af4:	00190000 400c1000 07060107 001a0602     .......@........
1a007b04:	400c1000 01010f01 001a0110 400c2000     ...@......... .@
1a007b14:	02020302 001b0204                       ........

1a007b1c <pwmMap>:
1a007b1c:	000a0c01 02070d03 ff060405              ............

1a007b28 <ultrasonicSensorsIrqMap>:
1a007b28:	ff020100                                ....

1a007b2c <InitClkStates>:
1a007b2c:	01010f01                                ....

1a007b30 <pinmuxing>:
1a007b30:	00440002 00440102 00440202 00400a02     ..D...D...D...@.
1a007b40:	00400b02 00400c02 00500001 00500101     ..@...@...P...P.
1a007b50:	00500201 00500601 00500106 00500406     ..P...P...P...P.
1a007b60:	00500506 00540706 00540806 00500906     ..P...T...T...P.
1a007b70:	00500a06 00500b06 00500c06 00f0040f     ..P...P...P.....
1a007b80:	00d50301 00d50401 00160107 00560207     ..............V.
1a007b90:	00520302 00520402 00520509 00570609     ..R...R...R...W.
1a007ba0:	00570206                                ..W.

1a007ba4 <ExtRateIn>:
1a007ba4:	00000000                                ....

1a007ba8 <GpioButtons>:
1a007ba8:	08000400 09010900                       ........

1a007bb0 <GpioLeds>:
1a007bb0:	01050005 0e000205 0c010b01              ............

1a007bbc <GpioPorts>:
1a007bbc:	03030003 0f050403 05031005 07030603     ................
1a007bcc:	ffff0802                                ....

1a007bd0 <OscRateIn>:
1a007bd0:	00b71b00                                ....

1a007bd4 <InitClkStates>:
1a007bd4:	00010100 00010909 0001090a 01010701     ................
1a007be4:	00010902 00010906 0101090c 0001090d     ................
1a007bf4:	0001090e 0001090f 00010910 00010911     ................
1a007c04:	00010912 00010913 00011114 00011119     ................
1a007c14:	0001111a 0001111b 08040201 0f0f0f03     ................
1a007c24:	000000ff                                ....

1a007c28 <periph_to_base>:
1a007c28:	00050000 0020000a 00090024 00400040     ...... .$...@.@.
1a007c38:	00600005 000400a6 00c300c0 00e00002     ..`.............
1a007c48:	000100e0 01000100 01200003 00060120     .......... . ...
1a007c58:	01400140 0142000c 00190142 01620162     @.@...B.B...b.b.
1a007c68:	01820013 00120182 01a201a2 01c20011     ................
1a007c78:	001001c2 01e201e2 0202000f 000e0202     ................
1a007c88:	02220222 0223000d 001c0223              "."...#.#...

1a007c94 <UART_BClock>:
1a007c94:	01a201c2 01620182                       ......b.

1a007c9c <UART_PClock>:
1a007c9c:	00820081 00a200a1                       ........

1a007ca4 <_ctype_>:
1a007ca4:	20202000 20202020 28282020 20282828     .         ((((( 
1a007cb4:	20202020 20202020 20202020 20202020                     
1a007cc4:	10108820 10101010 10101010 10101010      ...............
1a007cd4:	04040410 04040404 10040404 10101010     ................
1a007ce4:	41411010 41414141 01010101 01010101     ..AAAAAA........
1a007cf4:	01010101 01010101 01010101 10101010     ................
1a007d04:	42421010 42424242 02020202 02020202     ..BBBBBB........
1a007d14:	02020202 02020202 02020202 10101010     ................
1a007d24:	00000020 00000000 00000000 00000000      ...............
	...
1a007da4:	00666e00 74696e69 6e610079 ffffff00     .nf.inity.an....

1a007db4 <fpi.7530>:
1a007db4:	00000035 fffffbce 000003cb 00000001     5...............
1a007dc4:	00000000                                ....

1a007dc8 <fpinan.7566>:
1a007dc8:	00000034 fffffbce 000003cb 00000001     4...............
1a007dd8:	00000000 ffffffff                       ........

1a007de0 <tinytens>:
1a007de0:	97d889bc 3c9cd2b2 d5a8a733 3949f623     .......<3...#.I9
1a007df0:	44f4a73d 32a50ffd cf8c979d 255bba08     =..D...2......[%
1a007e00:	64ac6f43 11680628                       Co.d(.h.

1a007e08 <__sf_fake_stderr>:
	...

1a007e28 <__sf_fake_stdin>:
	...

1a007e48 <__sf_fake_stdout>:
	...

1a007e68 <_global_impure_ptr>:
1a007e68:	100000ec                                ....

1a007e6c <_C_numeric_locale>:
1a007e6c:	1a007e78 1a007f89 1000014c 0043002e     x~......L.....C.
1a007e7c:	49534f50 ffff0058 ffffffff              POSIX.......

1a007e88 <__mprec_bigtens>:
1a007e88:	37e08000 4341c379 b5056e17 4693b8b5     ...7y.AC.n.....F
1a007e98:	e93ff9f5 4d384f03 f9301d32 5a827748     ..?..O8M2.0.Hw.Z
1a007ea8:	7f73bf3c 75154fdd                       <.s..O.u

1a007eb0 <__mprec_tens>:
1a007eb0:	00000000 3ff00000 00000000 40240000     .......?......$@
1a007ec0:	00000000 40590000 00000000 408f4000     ......Y@.....@.@
1a007ed0:	00000000 40c38800 00000000 40f86a00     .......@.....j.@
1a007ee0:	00000000 412e8480 00000000 416312d0     .......A......cA
1a007ef0:	00000000 4197d784 00000000 41cdcd65     .......A....e..A
1a007f00:	20000000 4202a05f e8000000 42374876     ... _..B....vH7B
1a007f10:	a2000000 426d1a94 e5400000 42a2309c     ......mB..@..0.B
1a007f20:	1e900000 42d6bcc4 26340000 430c6bf5     .......B..4&.k.C
1a007f30:	37e08000 4341c379 85d8a000 43763457     ...7y.AC....W4vC
1a007f40:	674ec800 43abc16d 60913d00 43e158e4     ..Ngm..C.=.`.X.C
1a007f50:	78b58c40 4415af1d d6e2ef50 444b1ae4     @..x...DP.....KD
1a007f60:	064dd592 4480f0cf c7e14af6 44b52d02     ..M....D.J...-.D
1a007f70:	79d99db4 44ea7843                       ...yCx.D

1a007f78 <p05.7454>:
1a007f78:	00000005 00000019 0000007d 2b302d23     ........}...#-0+
1a007f88:	6c680020 6665004c 47464567 32313000      .hlL.efgEFG.012
1a007f98:	36353433 41393837 45444342 31300046     3456789ABCDEF.01
1a007fa8:	35343332 39383736 64636261 ff006665     23456789abcdef..
1a007fb8:	1a007fd6 1a007fd9 1a007fdc 61462d41     ............A-Fa
1a007fc8:	3938662d 33323130 37363534 2d2b005d     -f8901234567].+-
1a007fd8:	00303000 ff005878                       .00.xX..
